###############################################################################
#
# IAR C/C++ Compiler V10.30.1.6000 for 8051               16/Mar/2020  12:48:32
# Copyright 2004-2018 IAR Systems AB.
# Evaluation license - IAR Embedded Workbench for 8051, Evaluation edition 10.30
#
#    Core               =  plain
#    Code model         =  banked
#    Data model         =  large
#    Calling convention =  xdata reentrant
#    Constant location  =  data_rom
#    Dptr setup         =  1,16
#                          
#    Source file        =  
#        C:\Texas Instruments\Z-Stack 3.0.1\Components\stack\zcl\zcl.c
#    Command line       =  
#        -f C:\Users\monster\AppData\Local\Temp\EWFFE1.tmp ("C:\Texas
#        Instruments\Z-Stack 3.0.1\Components\stack\zcl\zcl.c" -D NV_INIT -D
#        NV_RESTORE -D TC_LINKKEY_JOIN -D ZBA_FALLBACK_NWKKEY -D POWER_SAVING
#        -D NWK_AUTO_POLL -D ZTOOL_P1 -D MT_TASK -D MT_APP_FUNC -D MT_SYS_FUNC
#        -D MT_ZDO_FUNC -D MT_ZDO_MGMT -D xZCL_EZMODE -D MT_APP_CNF_FUNC -D
#        MULTICAST_ENABLED=FALSE -D ZCL_READ -D ZCL_DISCOVER -D ZCL_WRITE -D
#        ZCL_REPORT -D ZCL_BASIC -D ZCL_IDENTIFY -D ZCL_ON_OFF -D ZCL_GROUPS -D
#        ZCL_DIAGNOSTIC -D FEATURE_SYSTEM_STATS -D HAL_KEY=FALSE -D
#        HAL_LED=FALSE -D HAL_LCD=FALSE -D HAL_UART=FALSE -lC "C:\Texas
#        Instruments\Z-Stack
#        3.0.1\Projects\zstack\HomeAutomation\SampleSwitch\CC2530DB\EndDeviceEB\List"
#        -lA "C:\Texas Instruments\Z-Stack
#        3.0.1\Projects\zstack\HomeAutomation\SampleSwitch\CC2530DB\EndDeviceEB\List"
#        --diag_suppress Pe001,Pa010 -o "C:\Texas Instruments\Z-Stack
#        3.0.1\Projects\zstack\HomeAutomation\SampleSwitch\CC2530DB\EndDeviceEB\Obj"
#        -e --debug --core=plain --dptr=16,1 --data_model=large
#        --code_model=banked --calling_convention=xdata_reentrant
#        --place_constants=data_rom --nr_virtual_regs 16 -f "C:\Texas
#        Instruments\Z-Stack
#        3.0.1\Projects\zstack\HomeAutomation\SampleSwitch\CC2530DB\..\..\..\Tools\CC2530DB\f8wEndev.cfg"
#        (-DCPU32MHZ -DROOT=__near_func -DMAC_CFG_TX_DATA_MAX=3
#        -DMAC_CFG_TX_MAX=6 -DMAC_CFG_RX_MAX=3) -f "C:\Texas
#        Instruments\Z-Stack
#        3.0.1\Projects\zstack\HomeAutomation\SampleSwitch\CC2530DB\..\..\..\Tools\CC2530DB\f8wConfig.cfg"
#        (-DZIGBEEPRO -DSECURE=1 -DZG_SECURE_DYNAMIC=0 -DREFLECTOR
#        -DDEFAULT_CHANLIST=MAX_CHANNELS_24GHZ -DZDAPP_CONFIG_PAN_ID=0xFFFF
#        -DNWK_START_DELAY=100 -DEXTENDED_JOINING_RANDOM_MASK=0x007F
#        -DBEACON_REQUEST_DELAY=100 -DBEACON_REQ_DELAY_MASK=0x00FF
#        -DLINK_STATUS_JITTER_MASK=0x007F -DROUTE_EXPIRY_TIME=30
#        -DAPSC_ACK_WAIT_DURATION_POLLED=3000 -DNWK_INDIRECT_MSG_TIMEOUT=7
#        -DMAX_RREQ_ENTRIES=8 -DAPSC_MAX_FRAME_RETRIES=3
#        -DNWK_MAX_DATA_RETRIES=2 -DMAX_POLL_FAILURE_RETRIES=2 -DMAX_BCAST=9
#        -DAPS_MAX_GROUPS=16 -DMAX_RTG_ENTRIES=40 -DNWK_MAX_BINDING_ENTRIES=4
#        -DMAX_BINDING_CLUSTER_IDS=4 -DMAC_MAX_FRAME_SIZE=116
#        -DZDNWKMGR_MIN_TRANSMISSIONS=20 "-DCONST=const __code"
#        -DGENERIC=__generic -DRFD_RCVC_ALWAYS_ON=FALSE -DPOLL_RATE=1000
#        -DQUEUED_POLL_RATE=100 -DRESPONSE_POLL_RATE=100 -DREJOIN_POLL_RATE=440
#        -DREJOIN_BACKOFF=900000 -DREJOIN_SCAN=900000 -DENABLE_LED4_DISABLE_S1)
#        -f "C:\Texas Instruments\Z-Stack
#        3.0.1\Projects\zstack\HomeAutomation\SampleSwitch\CC2530DB\..\..\..\Tools\CC2530DB\f8wZCL.cfg"
#        -I "C:\Texas Instruments\Z-Stack
#        3.0.1\Projects\zstack\HomeAutomation\SampleSwitch\CC2530DB\" -I
#        "C:\Texas Instruments\Z-Stack
#        3.0.1\Projects\zstack\HomeAutomation\SampleSwitch\CC2530DB\..\Source\"
#        -I "C:\Texas Instruments\Z-Stack
#        3.0.1\Projects\zstack\HomeAutomation\SampleSwitch\CC2530DB\..\..\Source\"
#        -I "C:\Texas Instruments\Z-Stack
#        3.0.1\Projects\zstack\HomeAutomation\SampleSwitch\CC2530DB\..\..\..\ZMain\TI2530DB\"
#        -I "C:\Texas Instruments\Z-Stack
#        3.0.1\Projects\zstack\HomeAutomation\SampleSwitch\CC2530DB\..\..\..\..\..\Components\hal\include\"
#        -I "C:\Texas Instruments\Z-Stack
#        3.0.1\Projects\zstack\HomeAutomation\SampleSwitch\CC2530DB\..\..\..\..\..\Components\hal\target\CC2530EB\"
#        -I "C:\Texas Instruments\Z-Stack
#        3.0.1\Projects\zstack\HomeAutomation\SampleSwitch\CC2530DB\..\..\..\..\..\Components\mac\include\"
#        -I "C:\Texas Instruments\Z-Stack
#        3.0.1\Projects\zstack\HomeAutomation\SampleSwitch\CC2530DB\..\..\..\..\..\Components\mac\high_level\"
#        -I "C:\Texas Instruments\Z-Stack
#        3.0.1\Projects\zstack\HomeAutomation\SampleSwitch\CC2530DB\..\..\..\..\..\Components\mac\low_level\srf04\"
#        -I "C:\Texas Instruments\Z-Stack
#        3.0.1\Projects\zstack\HomeAutomation\SampleSwitch\CC2530DB\..\..\..\..\..\Components\mac\low_level\srf04\single_chip\"
#        -I "C:\Texas Instruments\Z-Stack
#        3.0.1\Projects\zstack\HomeAutomation\SampleSwitch\CC2530DB\..\..\..\..\..\Components\mt\"
#        -I "C:\Texas Instruments\Z-Stack
#        3.0.1\Projects\zstack\HomeAutomation\SampleSwitch\CC2530DB\..\..\..\..\..\Components\osal\include\"
#        -I "C:\Texas Instruments\Z-Stack
#        3.0.1\Projects\zstack\HomeAutomation\SampleSwitch\CC2530DB\..\..\..\..\..\Components\services\saddr\"
#        -I "C:\Texas Instruments\Z-Stack
#        3.0.1\Projects\zstack\HomeAutomation\SampleSwitch\CC2530DB\..\..\..\..\..\Components\services\sdata\"
#        -I "C:\Texas Instruments\Z-Stack
#        3.0.1\Projects\zstack\HomeAutomation\SampleSwitch\CC2530DB\..\..\..\..\..\Components\stack\af\"
#        -I "C:\Texas Instruments\Z-Stack
#        3.0.1\Projects\zstack\HomeAutomation\SampleSwitch\CC2530DB\..\..\..\..\..\Components\stack\bdb\"
#        -I "C:\Texas Instruments\Z-Stack
#        3.0.1\Projects\zstack\HomeAutomation\SampleSwitch\CC2530DB\..\..\..\..\..\Components\stack\gp\"
#        -I "C:\Texas Instruments\Z-Stack
#        3.0.1\Projects\zstack\HomeAutomation\SampleSwitch\CC2530DB\..\..\..\..\..\Components\stack\nwk\"
#        -I "C:\Texas Instruments\Z-Stack
#        3.0.1\Projects\zstack\HomeAutomation\SampleSwitch\CC2530DB\..\..\..\..\..\Components\stack\sapi\"
#        -I "C:\Texas Instruments\Z-Stack
#        3.0.1\Projects\zstack\HomeAutomation\SampleSwitch\CC2530DB\..\..\..\..\..\Components\stack\sec\"
#        -I "C:\Texas Instruments\Z-Stack
#        3.0.1\Projects\zstack\HomeAutomation\SampleSwitch\CC2530DB\..\..\..\..\..\Components\stack\sys\"
#        -I "C:\Texas Instruments\Z-Stack
#        3.0.1\Projects\zstack\HomeAutomation\SampleSwitch\CC2530DB\..\..\..\..\..\Components\stack\zcl\"
#        -I "C:\Texas Instruments\Z-Stack
#        3.0.1\Projects\zstack\HomeAutomation\SampleSwitch\CC2530DB\..\..\..\..\..\Components\stack\zdo\"
#        -I "C:\Texas Instruments\Z-Stack
#        3.0.1\Projects\zstack\HomeAutomation\SampleSwitch\CC2530DB\..\..\..\..\..\Components\zmac\"
#        -I "C:\Texas Instruments\Z-Stack
#        3.0.1\Projects\zstack\HomeAutomation\SampleSwitch\CC2530DB\..\..\..\..\..\Components\zmac\f8w\"
#        -Ohz --require_prototypes)
#    Locale             =  Russian_RUS.1251
#    List file          =  
#        C:\Texas Instruments\Z-Stack
#        3.0.1\Projects\zstack\HomeAutomation\SampleSwitch\CC2530DB\EndDeviceEB\List\zcl.lst
#    Object file        =  
#        C:\Texas Instruments\Z-Stack
#        3.0.1\Projects\zstack\HomeAutomation\SampleSwitch\CC2530DB\EndDeviceEB\Obj\zcl.r51
#
###############################################################################

C:\Texas Instruments\Z-Stack 3.0.1\Components\stack\zcl\zcl.c
      1          /**************************************************************************************************
      2            Filename:       zcl.c
      3            Revised:        $Date: 2015-09-09 11:51:49 -0700 (Wed, 09 Sep 2015) $
      4            Revision:       $Revision: 44489 $
      5          
      6            Description:    This file contains the Zigbee Cluster Library Foundation functions.
      7          
      8          
      9            Copyright 2006-2015 Texas Instruments Incorporated. All rights reserved.
     10          
     11            IMPORTANT: Your use of this Software is limited to those specific rights
     12            granted under the terms of a software license agreement between the user
     13            who downloaded the software, his/her employer (which must be your employer)
     14            and Texas Instruments Incorporated (the "License").  You may not use this
     15            Software unless you agree to abide by the terms of the License. The License
     16            limits your use, and you acknowledge, that the Software may not be modified,
     17            copied or distributed unless embedded on a Texas Instruments microcontroller
     18            or used solely and exclusively in conjunction with a Texas Instruments radio
     19            frequency transceiver, which is integrated into your product.  Other than for
     20            the foregoing purpose, you may not use, reproduce, copy, prepare derivative
     21            works of, modify, distribute, perform, display or sell this Software and/or
     22            its documentation for any purpose.
     23          
     24            YOU FURTHER ACKNOWLEDGE AND AGREE THAT THE SOFTWARE AND DOCUMENTATION ARE
     25            PROVIDED "AS IS" WITHOUT WARRANTY OF ANY KIND, EITHER EXPRESS OR IMPLIED,
     26            INCLUDING WITHOUT LIMITATION, ANY WARRANTY OF MERCHANTABILITY, TITLE,
     27            NON-INFRINGEMENT AND FITNESS FOR A PARTICULAR PURPOSE. IN NO EVENT SHALL
     28            TEXAS INSTRUMENTS OR ITS LICENSORS BE LIABLE OR OBLIGATED UNDER CONTRACT,
     29            NEGLIGENCE, STRICT LIABILITY, CONTRIBUTION, BREACH OF WARRANTY, OR OTHER
     30            LEGAL EQUITABLE THEORY ANY DIRECT OR INDIRECT DAMAGES OR EXPENSES
     31            INCLUDING BUT NOT LIMITED TO ANY INCIDENTAL, SPECIAL, INDIRECT, PUNITIVE
     32            OR CONSEQUENTIAL DAMAGES, LOST PROFITS OR LOST DATA, COST OF PROCUREMENT
     33            OF SUBSTITUTE GOODS, TECHNOLOGY, SERVICES, OR ANY CLAIMS BY THIRD PARTIES
     34            (INCLUDING BUT NOT LIMITED TO ANY DEFENSE THEREOF), OR OTHER SIMILAR COSTS.
     35          
     36            Should you have any questions regarding your right to use this Software,
     37            contact Texas Instruments Incorporated at www.TI.com.
     38          **************************************************************************************************/
     39          
     40          /*********************************************************************
     41           * INCLUDES
     42           */
     43          #include "ZComDef.h"
     44          #include "AF.h"
     45          
     46          #include "zcl.h"
     47          #include "zcl_general.h"
     48          
     49          #if defined ( INTER_PAN )
     50            #include "stub_aps.h"
     51          #endif
     52             
     53          #ifdef BDB_REPORTING
     54            #include "bdb_Reporting.h"
     55          #endif
     56          #include "bdb_interface.h"
     57          
     58          #include "zcl_green_power.h"
     59          
     60             
     61          /*********************************************************************
     62           * MACROS
     63           */
     64          /*** Frame Control ***/
     65          #define zcl_FCType( a )               ( (a) & ZCL_FRAME_CONTROL_TYPE )
     66          #define zcl_FCManuSpecific( a )       ( (a) & ZCL_FRAME_CONTROL_MANU_SPECIFIC )
     67          #define zcl_FCDirection( a )          ( (a) & ZCL_FRAME_CONTROL_DIRECTION )
     68          #define zcl_FCDisableDefaultRsp( a )  ( (a) & ZCL_FRAME_CONTROL_DISABLE_DEFAULT_RSP )
     69          
     70          /*** Attribute Access Control ***/
     71          #define zcl_AccessCtrlRead( a )       ( (a) & ACCESS_CONTROL_READ )
     72          #define zcl_AccessCtrlWrite( a )      ( (a) & ACCESS_CONTROL_WRITE )
     73          #define zcl_AccessCtrlCmd( a )        ( (a) & ACCESS_CONTROL_CMD )
     74          #define zcl_AccessCtrlAuthRead( a )   ( (a) & ACCESS_CONTROL_AUTH_READ )
     75          #define zcl_AccessCtrlAuthWrite( a )  ( (a) & ACCESS_CONTROL_AUTH_WRITE )
     76          #define zcl_AccessClient( a )         ( (a) & ACCESS_CLIENT )
     77          
     78          #define zclParseCmd( a, b )           zclCmdTable[(a)].pfnParseInProfile( (b) )
     79          #define zclProcessCmd( a, b )         zclCmdTable[(a)].pfnProcessInProfile( (b) )
     80          
     81          #define zcl_DefaultRspCmd( zclHdr )   ( zcl_ProfileCmd( (zclHdr).fc.type )     && \
     82                                                  (zclHdr).fc.manuSpecific == 0          && \
     83                                                  (zclHdr).commandID == ZCL_CMD_DEFAULT_RSP )
     84          
     85          // Commands that have corresponding responses (ZCL_CMD_WRITE_NO_RSP, does not have response, but must not send default response)
     86          #define CMD_HAS_RSP( cmd )            ( (cmd) == ZCL_CMD_READ                   || \
     87                                                  (cmd) == ZCL_CMD_WRITE                  || \
     88                                                  (cmd) == ZCL_CMD_WRITE_UNDIVIDED        || \
     89                                                  (cmd) == ZCL_CMD_WRITE_NO_RSP           || \
     90                                                  (cmd) == ZCL_CMD_CONFIG_REPORT          || \
     91                                                  (cmd) == ZCL_CMD_READ_REPORT_CFG        || \
     92                                                  (cmd) == ZCL_CMD_DISCOVER_ATTRS         || \
     93                                                  (cmd) == ZCL_CMD_DISCOVER_CMDS_RECEIVED || \
     94                                                  (cmd) == ZCL_CMD_DISCOVER_CMDS_GEN      || \
     95                                                  (cmd) == ZCL_CMD_DISCOVER_ATTRS_EXT     || \
     96                                                  (cmd) == ZCL_CMD_DEFAULT_RSP ) // exception
     97          #define  ZCL_VALID_MIN_HEADER_LEN  3
     98          
     99          /*********************************************************************
    100           * CONSTANTS
    101           */
    102          
    103          /*********************************************************************
    104           * TYPEDEFS
    105           */
    106          typedef struct zclLibPlugin
    107          {
    108            struct zclLibPlugin *next;
    109            uint16              startClusterID;    // starting cluster ID
    110            uint16              endClusterID;      // ending cluster ID
    111            zclInHdlr_t         pfnIncomingHdlr;    // function to handle incoming message
    112          } zclLibPlugin_t;
    113          
    114          // Command record list
    115          typedef struct zclCmdRecsList
    116          {
    117            struct zclCmdRecsList *pNext;
    118            uint8                 endpoint;
    119            uint8                 numCommands;
    120            CONST zclCommandRec_t *pCmdRecs;
    121          } zclCmdRecsList_t;
    122          
    123          
    124          // Cluster option list item
    125          typedef struct zclClusterOptionList
    126          {
    127            struct zclClusterOptionList *next;
    128            uint8                       endpoint;   // Used to link it into the endpoint descriptor
    129            uint8                       numOptions; // Number of the following records
    130            zclOptionRec_t              *options;   // option records
    131          } zclClusterOptionList;
    132          
    133          typedef void *(*zclParseInProfileCmd_t)( zclParseCmd_t *pCmd );
    134          typedef uint8 (*zclProcessInProfileCmd_t)( zclIncoming_t *pInMsg );
    135          
    136          typedef struct
    137          {
    138            zclParseInProfileCmd_t   pfnParseInProfile;
    139            zclProcessInProfileCmd_t pfnProcessInProfile;
    140          } zclCmdItems_t;
    141          
    142          
    143          // List record for external handler for unhandled ZCL Foundation commands/rsps
    144          typedef struct zclExternalFoundationHandlerList
    145          {
    146              struct zclExternalFoundationHandlerList *next;
    147              uint8 zcl_ExternalTaskID;
    148              uint8 zcl_ExternalEndPoint;
    149          } zclExternalFoundationHandlerList;
    150          
    151          
    152          /*********************************************************************
    153           * GLOBAL VARIABLES
    154           */
    155          
    156          #if !defined ( ZCL_STANDALONE )

   \                                 In  segment XDATA_Z, align 1, keep-with-next
    157            uint8 zcl_TaskID;
   \                     zcl_TaskID:
   \   000000                DS 1
   \   000001                REQUIRE __INIT_XDATA_Z
    158          #endif
    159          
    160          // The Application should register its attribute data validation function

   \                                 In  segment XDATA_Z, align 1, keep-with-next
    161          zclValidateAttrData_t zcl_ValidateAttrDataCB = (zclValidateAttrData_t)NULL;
   \                     zcl_ValidateAttrDataCB:
   \   000000                DS 2
   \   000002                REQUIRE __INIT_XDATA_Z
    162          
    163          // ZCL Sequence number
    164          //uint8 zcl_SeqNum = 0x00;  //Not longer used, refer to bdb_getZCLFrameCounter() in bdb_interface.h

   \                                 In  segment XDATA_Z, align 1, keep-with-next
    165          uint8 zcl_InSeqNum = 0x00;
   \                     zcl_InSeqNum:
   \   000000                DS 1
   \   000001                REQUIRE __INIT_XDATA_Z
    166          

   \                                 In  segment XDATA_Z, align 1, keep-with-next
    167          uint8 zcl_TransID = 0;  // This is the unique message ID (counter)
   \                     zcl_TransID:
   \   000000                DS 1
   \   000001                REQUIRE __INIT_XDATA_Z
    168          

   \                                 In  segment XDATA_Z, align 1, keep-with-next
    169          static uint8 savedZCLTransSeqNum = 0;
   \                     savedZCLTransSeqNum:
   \   000000                DS 1
   \   000001                REQUIRE __INIT_XDATA_Z
    170          
    171          /*********************************************************************
    172           * EXTERNAL VARIABLES
    173           */
    174          
    175          /*********************************************************************
    176           * EXTERNAL FUNCTIONS
    177           */
    178          
    179          /*********************************************************************
    180           * LOCAL VARIABLES
    181           */

   \                                 In  segment XDATA_Z, align 1, keep-with-next
    182          static zclLibPlugin_t *plugins = (zclLibPlugin_t *)NULL;
   \                     plugins:
   \   000000                DS 2
   \   000002                REQUIRE __INIT_XDATA_Z
    183          
    184          #if defined ( ZCL_DISCOVER )

   \                                 In  segment XDATA_Z, align 1, keep-with-next
    185            static zclCmdRecsList_t *gpCmdList = (zclCmdRecsList_t *)NULL;
   \                     gpCmdList:
   \   000000                DS 2
   \   000002                REQUIRE __INIT_XDATA_Z
    186          #endif
    187          

   \                                 In  segment XDATA_Z, align 1, keep-with-next
    188          static zclAttrRecsList *attrList = (zclAttrRecsList *)NULL;
   \                     attrList:
   \   000000                DS 2
   \   000002                REQUIRE __INIT_XDATA_Z

   \                                 In  segment XDATA_Z, align 1, keep-with-next
    189          static zclClusterOptionList *clusterOptionList = (zclClusterOptionList *)NULL;
   \                     clusterOptionList:
   \   000000                DS 2
   \   000002                REQUIRE __INIT_XDATA_Z
    190          

   \                                 In  segment XDATA_Z, align 1, keep-with-next
    191          static afIncomingMSGPacket_t *rawAFMsg = (afIncomingMSGPacket_t *)NULL;
   \                     rawAFMsg:
   \   000000                DS 2
   \   000002                REQUIRE __INIT_XDATA_Z
    192          
    193          #if !defined ( ZCL_STANDALONE )

   \                                 In  segment XDATA_Z, align 1, keep-with-next
    194          static zclExternalFoundationHandlerList *externalEndPointHandlerList = (zclExternalFoundationHandlerList *)NULL;
   \                     externalEndPointHandlerList:
   \   000000                DS 2
   \   000002                REQUIRE __INIT_XDATA_Z
    195          #endif
    196          
    197          /*********************************************************************
    198           * LOCAL FUNCTIONS
    199           */
    200          static uint8 *zclBuildHdr( zclFrameHdr_t *hdr, uint8 *pData );
    201          static uint8 zclCalcHdrSize( zclFrameHdr_t *hdr );
    202          static zclLibPlugin_t *zclFindPlugin( uint16 clusterID, uint16 profileID );
    203          
    204          #if !defined ( ZCL_STANDALONE )
    205          static uint8 zcl_addExternalFoundationHandler( uint8 taskId, uint8 endPointId );
    206          static uint8 zcl_getExternalFoundationHandler( afIncomingMSGPacket_t *pInMsg );
    207          #endif // !defined ( ZCL_STANDALONE )
    208          
    209          #if defined ( ZCL_DISCOVER )
    210            static zclCmdRecsList_t *zclFindCmdRecsList( uint8 endpoint );
    211          #endif
    212          
    213          zclAttrRecsList *zclFindAttrRecsList( uint8 endpoint );
    214          static zclOptionRec_t *zclFindClusterOption( uint8 endpoint, uint16 clusterID );
    215          static uint8 zclGetClusterOption( uint8 endpoint, uint16 clusterID );
    216          static void zclSetSecurityOption( uint8 endpoint, uint16 clusterID, uint8 enable );
    217          
    218          static uint8 zcl_DeviceOperational( uint8 srcEP, uint16 clusterID, uint8 frameType, uint8 cmd, uint16 profileID );
    219          
    220          #if defined ( ZCL_READ ) || defined ( ZCL_WRITE )
    221          static zclReadWriteCB_t zclGetReadWriteCB( uint8 endpoint );
    222          static zclAuthorizeCB_t zclGetAuthorizeCB( uint8 endpoint );
    223          #endif // ZCL_READ || ZCL_WRITE
    224          
    225          #ifdef ZCL_READ
    226          ZStatus_t zclReadAttrData( uint8 *pAttrData, zclAttrRec_t *pAttr, uint16 *pDataLen );
    227          static uint16 zclGetAttrDataLengthUsingCB( uint8 endpoint, uint16 clusterID, uint16 attrId );
    228          static ZStatus_t zclReadAttrDataUsingCB( uint8 endpoint, uint16 clusterId, uint16 attrId,
    229                                                   uint8 *pAttrData, uint16 *pDataLen );
    230          static ZStatus_t zclAuthorizeRead( uint8 endpoint, afAddrType_t *srcAddr, zclAttrRec_t *pAttr );
    231          static void *zclParseInReadRspCmd( zclParseCmd_t *pCmd );
    232          static uint8 zclProcessInReadCmd( zclIncoming_t *pInMsg );
    233          #endif // ZCL_READ
    234          
    235          #ifdef ZCL_WRITE
    236          static ZStatus_t zclWriteAttrData( uint8 endpoint, afAddrType_t *srcAddr,
    237                                             zclAttrRec_t *pAttr, zclWriteRec_t *pWriteRec );
    238          static ZStatus_t zclWriteAttrDataUsingCB( uint8 endpoint, afAddrType_t *srcAddr,
    239                                                    zclAttrRec_t *pAttr, uint8 *pAttrData );
    240          static ZStatus_t zclAuthorizeWrite( uint8 endpoint, afAddrType_t *srcAddr, zclAttrRec_t *pAttr );
    241          static void *zclParseInWriteRspCmd( zclParseCmd_t *pCmd );
    242          static uint8 zclProcessInWriteCmd( zclIncoming_t *pInMsg );
    243          static uint8 zclProcessInWriteUndividedCmd( zclIncoming_t *pInMsg );
    244          #endif // ZCL_WRITE
    245          
    246          #ifdef ZCL_REPORT_CONFIGURING_DEVICE
    247          static void *zclParseInConfigReportRspCmd( zclParseCmd_t *pCmd );
    248          static void *zclParseInReadReportCfgRspCmd( zclParseCmd_t *pCmd );
    249          #endif
    250          
    251          static void *zclParseInDefaultRspCmd( zclParseCmd_t *pCmd );
    252          
    253          #ifdef ZCL_DISCOVER
    254          static uint8 zclFindNextCmdRec( uint8 endpoint, uint16 clusterID, uint8 commandID, uint8 direction, uint8 *pCmdID, zclCommandRec_t *pCmd );
    255          static uint8 zclFindNextAttrRec( uint8 endpoint, uint16 clusterID, uint8 direction, uint16 *attrId, zclAttrRec_t *pAttr );
    256          static void *zclParseInDiscCmdsRspCmd( zclParseCmd_t *pCmd );
    257          static void *zclParseInDiscAttrsRspCmd( zclParseCmd_t *pCmd );
    258          static void *zclParseInDiscAttrsExtRspCmd( zclParseCmd_t *pCmd );
    259          static uint8 zclProcessInDiscCmd( zclIncoming_t *pInMsg );
    260          static uint8 zclProcessInDiscAttrs( zclIncoming_t *pInMsg );
    261          static void zclProcessInDiscAttrsCmd( zclIncoming_t *pInMsg, zclDiscoverAttrsCmd_t *pDiscoverCmd, uint8 attrLenBuf );
    262          static void zclProcessInDiscAttrsExtCmd( zclIncoming_t *pInMsg, zclDiscoverAttrsCmd_t *pDiscoverCmd, uint8 attrLenBuf );
    263          #endif // ZCL_DISCOVER
    264          
    265          /*********************************************************************
    266           * Parse Profile Command Function Table
    267           */
    268          

   \                                 In  segment CODE_C, align 1
    269          static CONST zclCmdItems_t zclCmdTable[] =
   \                     zclCmdTable:
   \   000000   ....         DW `??zclParseInReadCmd::?relay`
   \   000002   ....         DW `??zclProcessInReadCmd::?relay`
   \   000004   ....         DW `??zclParseInReadRspCmd::?relay`
   \   000006   ....         DW `??zcl_HandleExternal::?relay`
   \   000008   ....         DW `??zclParseInWriteCmd::?relay`
   \   00000A   ....         DW `??zclProcessInWriteCmd::?relay`
   \   00000C   ....         DW `??zclParseInWriteCmd::?relay`
   \   00000E   ....         DW `??zclProcessInWriteUndividedCmd::?relay`
   \   000010   ....         DW `??zclParseInWriteRspCmd::?relay`
   \   000012   ....         DW `??zcl_HandleExternal::?relay`
   \   000014   ....         DW `??zclParseInWriteCmd::?relay`
   \   000016   ....         DW `??zclProcessInWriteCmd::?relay`
   \   000018   0000         DW 0H
   \   00001A   0000         DW 0H
   \   00001C   0000         DW 0H
   \   00001E   0000         DW 0H
   \   000020   0000         DW 0H
   \   000022   0000         DW 0H
   \   000024   0000         DW 0H
   \   000026   0000         DW 0H
   \   000028   0000         DW 0H
   \   00002A   0000         DW 0H
   \   00002C   ....         DW `??zclParseInDefaultRspCmd::?relay`
   \   00002E   ....         DW `??zcl_HandleExternal::?relay`
   \   000030   ....         DW `??zclParseInDiscAttrsCmd::?relay`
   \   000032   ....         DW `??zclProcessInDiscAttrs::?relay`
   \   000034   ....         DW `??zclParseInDiscAttrsRspCmd::?relay`
   \   000036   ....         DW `??zcl_HandleExternal::?relay`
   \   000038   0000         DW 0H
   \   00003A   0000         DW 0H
   \   00003C   0000         DW 0H
   \   00003E   0000         DW 0H
   \   000040   0000         DW 0H
   \   000042   0000         DW 0H
   \   000044   ....         DW `??zclParseInDiscCmdsCmd::?relay`
   \   000046   ....         DW `??zclProcessInDiscCmd::?relay`
   \   000048   ....         DW `??zclParseInDiscCmdsRspCmd::?relay`
   \   00004A   ....         DW `??zcl_HandleExternal::?relay`
   \   00004C   ....         DW `??zclParseInDiscCmdsCmd::?relay`
   \   00004E   ....         DW `??zclProcessInDiscCmd::?relay`
   \   000050   ....         DW `??zclParseInDiscCmdsRspCmd::?relay`
   \   000052   ....         DW `??zcl_HandleExternal::?relay`
   \   000054   ....         DW `??zclParseInDiscAttrsCmd::?relay`
   \   000056   ....         DW `??zclProcessInDiscAttrs::?relay`
   \   000058   ....         DW `??zclParseInDiscAttrsExtRspCmd::?relay`
   \   00005A   ....         DW `??zcl_HandleExternal::?relay`
    270          {
    271          #ifdef ZCL_READ
    272            /* ZCL_CMD_READ */                { zclParseInReadCmd,             zclProcessInReadCmd             },
    273            /* ZCL_CMD_READ_RSP */            { zclParseInReadRspCmd,          zcl_HandleExternal              },
    274          #else
    275            /* ZCL_CMD_READ */                { (zclParseInProfileCmd_t)NULL,  (zclProcessInProfileCmd_t)NULL  },
    276            /* ZCL_CMD_READ_RSP */            { (zclParseInProfileCmd_t)NULL,  (zclProcessInProfileCmd_t)NULL  },
    277          #endif // ZCL_READ
    278          
    279          #ifdef ZCL_WRITE
    280            /* ZCL_CMD_WRITE */               { zclParseInWriteCmd,            zclProcessInWriteCmd            },
    281            /* ZCL_CMD_WRITE_UNDIVIDED */     { zclParseInWriteCmd,            zclProcessInWriteUndividedCmd   },
    282            /* ZCL_CMD_WRITE_RSP */           { zclParseInWriteRspCmd,         zcl_HandleExternal              },
    283            /* ZCL_CMD_WRITE_NO_RSP */        { zclParseInWriteCmd,            zclProcessInWriteCmd            },
    284          #else
    285            /* ZCL_CMD_WRITE */               { (zclParseInProfileCmd_t)NULL,  (zclProcessInProfileCmd_t)NULL  },
    286            /* ZCL_CMD_WRITE_UNDIVIDED */     { (zclParseInProfileCmd_t)NULL,  (zclProcessInProfileCmd_t)NULL  },
    287            /* ZCL_CMD_WRITE_RSP */           { (zclParseInProfileCmd_t)NULL,  (zclProcessInProfileCmd_t)NULL  },
    288            /* ZCL_CMD_WRITE_NO_RSP */        { (zclParseInProfileCmd_t)NULL,  (zclProcessInProfileCmd_t)NULL  },
    289          #endif // ZCL_WRITE
    290          
    291          #ifdef ZCL_REPORTING_DEVICE
    292              /* ZCL_CMD_CONFIG_REPORT */       { zclParseInConfigReportCmd,     zcl_HandleExternal              },
    293          #else
    294              /* ZCL_CMD_CONFIG_REPORT */       { (zclParseInProfileCmd_t)NULL,  (zclProcessInProfileCmd_t)NULL  },
    295          #endif
    296          
    297          #ifdef ZCL_REPORT_CONFIGURING_DEVICE
    298              /* ZCL_CMD_CONFIG_REPORT_RSP */   { zclParseInConfigReportRspCmd,  zcl_HandleExternal              },
    299          #else
    300              /* ZCL_CMD_CONFIG_REPORT_RSP */   { (zclParseInProfileCmd_t)NULL,  (zclProcessInProfileCmd_t)NULL  },
    301          #endif
    302          
    303          #ifdef ZCL_REPORTING_DEVICE
    304              /* ZCL_CMD_READ_REPORT_CFG */     { zclParseInReadReportCfgCmd,    zcl_HandleExternal              },
    305          #else
    306              /* ZCL_CMD_READ_REPORT_CFG */     { (zclParseInProfileCmd_t)NULL,  (zclProcessInProfileCmd_t)NULL  },
    307          #endif
    308          
    309          #ifdef ZCL_REPORT_CONFIGURING_DEVICE
    310              /* ZCL_CMD_READ_REPORT_CFG_RSP */ { zclParseInReadReportCfgRspCmd, zcl_HandleExternal              },
    311          #else
    312              /* ZCL_CMD_READ_REPORT_CFG_RSP */ { (zclParseInProfileCmd_t)NULL,  (zclProcessInProfileCmd_t)NULL  },
    313          #endif
    314          
    315          #ifdef ZCL_REPORT_DESTINATION_DEVICE
    316              /* ZCL_CMD_REPORT */              { zclParseInReportCmd,           zcl_HandleExternal              },
    317          #else
    318              /* ZCL_CMD_REPORT */              { (zclParseInProfileCmd_t)NULL,  (zclProcessInProfileCmd_t)NULL  },
    319          #endif
    320          
    321            /* ZCL_CMD_DEFAULT_RSP */         { zclParseInDefaultRspCmd,       zcl_HandleExternal              },
    322          
    323          #ifdef ZCL_DISCOVER
    324            /* ZCL_CMD_DISCOVER_ATTRS */                { zclParseInDiscAttrsCmd,         zclProcessInDiscAttrs           },
    325            /* ZCL_CMD_DISCOVER_ATTRS_RSP */            { zclParseInDiscAttrsRspCmd,      zcl_HandleExternal              },
    326            /* *not supported* READ_ATTRS_STRCT */      { NULL,                           (zclProcessInProfileCmd_t)NULL  },
    327            /* *not supported* WRITE_ATTRS_STRCT */     { NULL,                           (zclProcessInProfileCmd_t)NULL  },
    328            /* *not supported* WRITE_ATTRS_STRCT_RSP */ { NULL,                           (zclProcessInProfileCmd_t)NULL  },
    329            /* ZCL_CMD_DISCOVER_CMDS_RECEIVED */        { zclParseInDiscCmdsCmd,          zclProcessInDiscCmd             },
    330            /* ZCL_CMD_DISCOVER_CMDS_RECEIVED_RSP */    { zclParseInDiscCmdsRspCmd,       zcl_HandleExternal              },
    331            /* ZCL_CMD_DISCOVER_CMDS_GEN */             { zclParseInDiscCmdsCmd,          zclProcessInDiscCmd             },
    332            /* ZCL_CMD_DISCOVER_CMDS_GEN_RSP */         { zclParseInDiscCmdsRspCmd,       zcl_HandleExternal              },
    333            /* ZCL_CMD_DISCOVER_ATTRS_EXT */            { zclParseInDiscAttrsCmd,         zclProcessInDiscAttrs           },
    334            /* ZCL_CMD_DISCOVER_ATTRS_EXT_RSP */        { zclParseInDiscAttrsExtRspCmd,   zcl_HandleExternal              },
    335          #else
    336            /* ZCL_CMD_DISCOVER_ATTRS */                { (zclParseInProfileCmd_t)NULL,    (zclProcessInProfileCmd_t)NULL  },
    337            /* ZCL_CMD_DISCOVER_ATTRS_RSP */            { (zclParseInProfileCmd_t)NULL,   (zclProcessInProfileCmd_t)NULL  },
    338            /* *not supported* READ_ATTRS_STRCT */      { (zclParseInProfileCmd_t)NULL,   (zclProcessInProfileCmd_t)NULL  },
    339            /* *not supported* WRITE_ATTRS_STRCT */     { (zclParseInProfileCmd_t)NULL,   (zclProcessInProfileCmd_t)NULL  },
    340            /* *not supported* WRITE_ATTRS_STRCT_RSP */ { (zclParseInProfileCmd_t)NULL,   (zclProcessInProfileCmd_t)NULL  },
    341            /* ZCL_CMD_DISCOVER_CMDS_RECEIVED */        { (zclParseInProfileCmd_t)NULL,   (zclProcessInProfileCmd_t)NULL  },
    342            /* ZCL_CMD_DISCOVER_CMDS_RECEIVED_RSP */    { (zclParseInProfileCmd_t)NULL,   (zclProcessInProfileCmd_t)NULL  },
    343            /* ZCL_CMD_DISCOVER_CMDS_GEN */             { (zclParseInProfileCmd_t)NULL,   (zclProcessInProfileCmd_t)NULL  },
    344            /* ZCL_CMD_DISCOVER_CMDS_GEN_RSP */         { (zclParseInProfileCmd_t)NULL,   (zclProcessInProfileCmd_t)NULL  },
    345            /* ZCL_CMD_DISCOVER_ATTRS_EXT */            { (zclParseInProfileCmd_t)NULL,   (zclProcessInProfileCmd_t)NULL  },
    346            /* ZCL_CMD_DISCOVER_ATTRS_EXT_RSP */        { (zclParseInProfileCmd_t)NULL,   (zclProcessInProfileCmd_t)NULL  },
    347          #endif // ZCL_DISCOVER
    348          };
    349          
    350          /*********************************************************************
    351           * PUBLIC FUNCTIONS
    352           *********************************************************************/
    353          
    354          #if !defined ( ZCL_STANDALONE )
    355          /*********************************************************************
    356           * @fn          zcl_Init
    357           *
    358           * @brief       Initialization function for the zcl layer.
    359           *
    360           * @param       task_id - ZCL task id
    361           *
    362           * @return      none
    363           */

   \                                 In  segment BANKED_CODE, align 1, keep-with-next
    364          void zcl_Init( uint8 task_id )
   \                     zcl_Init:
    365          {
   \   000000   C082         PUSH      DPL
   \   000002   C083         PUSH      DPH
   \   000004                ; Saved register size: 2
   \   000004                ; Auto size: 0
    366            zcl_TaskID = task_id;
   \   000004   E9           MOV       A,R1
   \   000005   90....       MOV       DPTR,#zcl_TaskID
   \   000008   F0           MOVX      @DPTR,A
    367          }
   \   000009   02....       LJMP      ?Subroutine0 & 0xFFFF

   \                                 In  segment BANKED_CODE, align 1, keep-with-next
   \                     ?Subroutine0:
   \   000000   D083         POP       DPH
   \   000002   D082         POP       DPL
   \   000004   02....       LJMP      ?BRET
    368          #endif
    369          
    370          #if !defined ( ZCL_STANDALONE )
    371          /*********************************************************************
    372           * @fn          zcl_event_loop
    373           *
    374           * @brief       Event Loop Processor for zcl.
    375           *
    376           * @param       task_id - task id
    377           * @param       events - event bitmap
    378           *
    379           * @return      unprocessed events
    380           */

   \                                 In  segment BANKED_CODE, align 1, keep-with-next
    381          uint16 zcl_event_loop( uint8 task_id, uint16 events )
   \                     zcl_event_loop:
    382          {
   \   000000                REQUIRE ?V0
   \   000000                REQUIRE ?V1
   \   000000                REQUIRE ?V2
   \   000000                REQUIRE ?V3
   \   000000   74F4         MOV       A,#-0xc
   \   000002   12....       LCALL     ?BANKED_ENTER_XDATA
   \   000005                ; Saved register size: 12
   \   000005                ; Auto size: 0
   \   000005   8A..         MOV       ?V0,R2
   \   000007   8B..         MOV       ?V1,R3
    383            uint8 *msgPtr;
    384          
    385            (void)task_id;  // Intentionally unreferenced parameter
    386          
    387            if ( events & SYS_EVENT_MSG )
   \   000009   EB           MOV       A,R3
   \   00000A   5480         ANL       A,#0x80
   \   00000C   604D         JZ        ??zcl_event_loop_0
    388            {
    389              msgPtr = osal_msg_receive( zcl_TaskID );
   \   00000E                ; Setup parameters for call to function osal_msg_receive
   \   00000E   800E         SJMP      ??zcl_event_loop_1
    390              while ( msgPtr != NULL )
    391              {
    392                uint8 dealloc = TRUE;
    393          
    394                if ( *msgPtr == AF_INCOMING_MSG_CMD )
    395                {
    396                  zcl_ProcessMessageMSG( (afIncomingMSGPacket_t *)msgPtr );
   \                     ??zcl_event_loop_2:
   \   000010                ; Setup parameters for call to function zcl_ProcessMessageMSG
   \   000010   EE           MOV       A,R6
   \   000011   FA           MOV       R2,A
   \   000012   EF           MOV       A,R7
   \   000013   FB           MOV       R3,A
   \   000014   12....       LCALL     `??zcl_ProcessMessageMSG::?relay`; Banked call to: zcl_ProcessMessageMSG
    397                }
    398                else
    399                {
    400                  uint8 taskID;
    401                  taskID = zcl_getExternalFoundationHandler( (afIncomingMSGPacket_t *)msgPtr );
    402          
    403                  if ( taskID != TASK_NO_TASK )
    404                  {
    405                    // send it to another task to process.
    406                    osal_msg_send( taskID, msgPtr );
    407                    dealloc = FALSE;
    408                  }
    409                }
    410          
    411                // Release the memory
    412                if ( dealloc )
    413                {
    414                  osal_msg_deallocate( msgPtr );
   \                     ??zcl_event_loop_3:
   \   000017                ; Setup parameters for call to function osal_msg_deallocate
   \   000017   EE           MOV       A,R6
   \   000018   FA           MOV       R2,A
   \   000019   EF           MOV       A,R7
   \   00001A   FB           MOV       R3,A
   \   00001B   12....       LCALL     `??osal_msg_deallocate::?relay`; Banked call to: osal_msg_deallocate
    415                }
    416          
    417                // Next
    418                msgPtr = osal_msg_receive( zcl_TaskID );
   \                     ??zcl_event_loop_1:
   \   00001E                ; Setup parameters for call to function osal_msg_receive
   \   00001E   90....       MOV       DPTR,#zcl_TaskID
   \   000021   E0           MOVX      A,@DPTR
   \   000022   F9           MOV       R1,A
   \   000023   12....       LCALL     `??osal_msg_receive::?relay`; Banked call to: osal_msg_receive
   \   000026   8A..         MOV       ?V2,R2
   \   000028   8B..         MOV       ?V3,R3
   \   00002A   AE..         MOV       R6,?V2
   \   00002C   AF..         MOV       R7,?V3
   \   00002E   EE           MOV       A,R6
   \   00002F   4F           ORL       A,R7
   \   000030   6020         JZ        ??zcl_event_loop_4
   \   000032   8E82         MOV       DPL,R6
   \   000034   8F83         MOV       DPH,R7
   \   000036   E0           MOVX      A,@DPTR
   \   000037   641A         XRL       A,#0x1a
   \   000039   60D5         JZ        ??zcl_event_loop_2
   \   00003B                ; Setup parameters for call to function zcl_getExternalFoundationHandler
   \   00003B   EE           MOV       A,R6
   \   00003C   FA           MOV       R2,A
   \   00003D   EF           MOV       A,R7
   \   00003E   FB           MOV       R3,A
   \   00003F   12....       LCALL     `??zcl_getExternalFoundationHandler::?relay`; Banked call to: zcl_getExternalFoundationHandler
   \   000042   E9           MOV       A,R1
   \   000043   F9           MOV       R1,A
   \   000044   74FF         MOV       A,#-0x1
   \   000046   69           XRL       A,R1
   \   000047   60CE         JZ        ??zcl_event_loop_3
   \   000049                ; Setup parameters for call to function osal_msg_send
   \   000049   EE           MOV       A,R6
   \   00004A   FA           MOV       R2,A
   \   00004B   EF           MOV       A,R7
   \   00004C   FB           MOV       R3,A
   \   00004D   12....       LCALL     `??osal_msg_send::?relay`; Banked call to: osal_msg_send
   \   000050   80CC         SJMP      ??zcl_event_loop_1
    419              }
    420          
    421              // return unprocessed events
    422              return (events ^ SYS_EVENT_MSG);
   \                     ??zcl_event_loop_4:
   \   000052   AA..         MOV       R2,?V0
   \   000054   E5..         MOV       A,?V1
   \   000056   6480         XRL       A,#0x80
   \   000058   FB           MOV       R3,A
   \   000059   8004         SJMP      ??zcl_event_loop_5
    423            }
    424          
    425          #if !defined (DISABLE_GREENPOWER_BASIC_PROXY) && (ZG_BUILD_RTR_TYPE)
    426            if ( events & ZCL_DATABUF_SEND )
    427            {
    428              gpNotificationMsg_t *gpNotification = NULL;
    429              gpCmdPayloadMsg_t *pCmdPayloadMsgCurr = NULL;
    430              uint8 appId;
    431              uint8 nwkSeqNum;
    432              uint16 nwkAddr;
    433              
    434              gpNotification = gp_GetHeadNotificationMsg( );
    435              
    436              if ( gpNotification == NULL )
    437              {
    438                return 0;
    439              }
    440              
    441              pCmdPayloadMsgCurr = ( gpCmdPayloadMsg_t* ) gpNotification->pMsg ;
    442              appId = PROXY_TBL_GET_APPLICTION_ID((uint16)*pCmdPayloadMsgCurr->pMsg);
    443              
    444              // To save the NIB nwk sequense number and use the GP alias nwk sequence number
    445              // for the GP notification
    446              nwkSeqNum = _NIB.SequenceNum;
    447              _NIB.SequenceNum = pCmdPayloadMsgCurr->secNum;
    448              
    449              // To save the NIB nwk address and use the GP alias nwk address for the GP notification
    450              nwkAddr = _NIB.nwkDevAddress;
    451              
    452              if( appId == GP_OPT_APP_ID_GPD )
    453              {
    454                osal_memcpy( &_NIB.nwkDevAddress,( pCmdPayloadMsgCurr->pMsg + sizeof( uint16 ) ), sizeof(uint16) );
    455              }
    456              else if( appId == GP_OPT_APP_ID_IEEE )
    457              {
    458                osal_revmemcpy( &_NIB.nwkDevAddress,(pCmdPayloadMsgCurr->pMsg + Z_EXTADDR_LEN), sizeof(uint16) );
    459              }
    460              
    461              zcl_SendCommand( GREEN_POWER_INTERNAL_ENDPOINT, &gpNotification->addr, ZCL_CLUSTER_ID_GREEN_POWER,
    462                                    COMMAND_GP_NOTIFICATION, TRUE, ZCL_FRAME_CLIENT_SERVER_DIR,
    463                                    TRUE, 0,  bdb_getZCLFrameCounter(), pCmdPayloadMsgCurr->lenght, pCmdPayloadMsgCurr->pMsg );
    464              
    465              // Restore the NIB nwk sequence number
    466              _NIB.SequenceNum = nwkSeqNum;
    467              
    468              // Restore the NIB nwk address
    469              _NIB.nwkDevAddress = nwkAddr;
    470              
    471              gp_NotificationMsgClean( gp_GetPHeadNotification ( ) );
    472              
    473              if ( gp_GetHeadNotificationMsg ( ) != NULL )
    474              {
    475                osal_start_timerEx( zcl_TaskID, ZCL_DATABUF_SEND, 50 );
    476              }
    477            }
    478          #endif
    479          
    480            // Discard unknown events
    481            return 0;
   \                     ??zcl_event_loop_0:
   \   00005B   7A00         MOV       R2,#0x0
   \   00005D   7B00         MOV       R3,#0x0
   \                     ??zcl_event_loop_5:
   \   00005F   02....       LJMP      ??Subroutine180_0 & 0xFFFF
    482          }

   \                                 In  segment BANKED_CODE, align 1, keep-with-next
   \                     ??Subroutine180_0:
   \   000000   7F04         MOV       R7,#0x4
   \   000002   02....       LJMP      ?BANKED_LEAVE_XDATA
    483          #endif
    484          
    485          #if !defined ( ZCL_STANDALONE )
    486          /*********************************************************************
    487           * @fn      zcl_registerForMsg
    488           *
    489           * @brief   The ZCL is setup to send all incoming Foundation Command/Response
    490           *          messages that aren't processed to one task (if a task is
    491           *          registered).
    492           *
    493           * @param   taskId - task Id of the Application where commands will be sent to
    494           *
    495           * @return  TRUE if task registeration successful, FALSE otherwise
    496           *********************************************************************/

   \                                 In  segment BANKED_CODE, align 1, keep-with-next
    497          uint8 zcl_registerForMsg( uint8 taskId )
   \                     zcl_registerForMsg:
    498          {
   \   000000   74F7         MOV       A,#-0x9
   \   000002   12....       LCALL     ?BANKED_ENTER_XDATA
   \   000005                ; Saved register size: 9
   \   000005                ; Auto size: 0
    499            return zcl_addExternalFoundationHandler( taskId, AF_BROADCAST_ENDPOINT );
   \   000005                ; Setup parameters for call to function zcl_addExternalFoundationHandler
   \   000005   7AFF         MOV       R2,#-0x1
   \   000007   02....       LJMP      ?Subroutine2 & 0xFFFF
    500          }

   \                                 In  segment BANKED_CODE, align 1, keep-with-next
   \                     ?Subroutine2:
   \   000000   12....       LCALL     `??zcl_addExternalFoundationHandler::?relay`; Banked call to: zcl_addExternalFoundationHandler
   \   000003                REQUIRE ??Subroutine193_0
   \   000003                ; // Fall through to label ??Subroutine193_0

   \                                 In  segment BANKED_CODE, align 1, keep-with-next
   \                     ??Subroutine193_0:
   \   000000   7F01         MOV       R7,#0x1
   \   000002   02....       LJMP      ?BANKED_LEAVE_XDATA
    501          
    502          /*********************************************************************
    503           * @fn      zcl_registerForMsgExt
    504           *
    505           * @brief   This function enables a Task to register to recieve all
    506           *          incoming Foundation Command/Response messages, for a particular
    507           *          End Point, that aren't processed by ZCL.
    508           *
    509           *          NOTE: Any Task registered for a unique end point will take
    510           *          priority over any Task registered with the AF_BROADCAST_ENDPOINT
    511           *          value.  ie. If task A registers for End Point 1, task B registers
    512           *          for AF_BROADCAST_ENDPOINT,  commands addressed to End Point 1 will be
    513           *          sent to Task A and NOT Task B.
    514           *
    515           * @param   taskId - task Id of the Application where commands will be sent to
    516           * @param   endPointId - end point Id of interest
    517           *
    518           * @return  TRUE if task registeration successful, FALSE otherwise
    519           *********************************************************************/

   \                                 In  segment BANKED_CODE, align 1, keep-with-next
    520          uint8 zcl_registerForMsgExt( uint8 taskId, uint8 endPointId  )
   \                     zcl_registerForMsgExt:
    521          {
   \   000000   74F7         MOV       A,#-0x9
   \   000002   12....       LCALL     ?BANKED_ENTER_XDATA
   \   000005                ; Saved register size: 9
   \   000005                ; Auto size: 0
    522            return ( zcl_addExternalFoundationHandler( taskId, endPointId  ) );
   \   000005                ; Setup parameters for call to function zcl_addExternalFoundationHandler
   \   000005   02....       LJMP      ?Subroutine2 & 0xFFFF
    523          }
    524          
    525          /*********************************************************************
    526           * @fn      zcl_addExternalFoundationHandler
    527           *
    528           * @brief   This function adds a record to the internal list of external
    529           *          handlers of unhandled incoming Foundation Command/Response messages.
    530           *
    531           * @param   taskId - task Id of the Application where commands will be sent to
    532           * @param   endPointId - end point Id of interest
    533           *
    534           * @return  TRUE if task registeration successful, FALSE otherwise
    535           *********************************************************************/

   \                                 In  segment BANKED_CODE, align 1, keep-with-next
    536          uint8 zcl_addExternalFoundationHandler( uint8 taskId, uint8 endPointId  )
   \                     zcl_addExternalFoundationHandler:
    537          {
   \   000000                REQUIRE ?V0
   \   000000                REQUIRE ?V1
   \   000000   74F6         MOV       A,#-0xa
   \   000002   12....       LCALL     ?BANKED_ENTER_XDATA
   \   000005                ; Saved register size: 10
   \   000005                ; Auto size: 0
   \   000005   E9           MOV       A,R1
   \   000006   FE           MOV       R6,A
   \   000007   EA           MOV       A,R2
   \   000008   FF           MOV       R7,A
    538            zclExternalFoundationHandlerList *pNewItem;
    539            zclExternalFoundationHandlerList *pLoop;
    540            zclExternalFoundationHandlerList *pLoopPrev;
    541          
    542            // Fill in the new endpoint registrant list
    543            pNewItem = zcl_mem_alloc( sizeof( zclExternalFoundationHandlerList ) );
   \   000009                ; Setup parameters for call to function osal_mem_alloc
   \   000009   7A04         MOV       R2,#0x4
   \   00000B   12....       LCALL     ?Subroutine117 & 0xFFFF
    544            if ( pNewItem == NULL )
   \                     ??CrossCallReturnLabel_407:
   \   00000E   6035         JZ        ??zcl_addExternalFoundationHandler_0
    545            {
    546              return ( false );
    547            }
    548          
    549            pNewItem->zcl_ExternalEndPoint = endPointId;
   \   000010   EF           MOV       A,R7
   \   000011   8A82         MOV       DPL,R2
   \   000013   8B83         MOV       DPH,R3
   \   000015   A3           INC       DPTR
   \   000016   A3           INC       DPTR
   \   000017   A3           INC       DPTR
   \   000018   F0           MOVX      @DPTR,A
    550            pNewItem->zcl_ExternalTaskID = taskId;
   \   000019   EE           MOV       A,R6
   \   00001A   8A82         MOV       DPL,R2
   \   00001C   8B83         MOV       DPH,R3
   \   00001E   A3           INC       DPTR
   \   00001F   A3           INC       DPTR
   \   000020   12....       LCALL     ?Subroutine34 & 0xFFFF
    551            pNewItem->next = NULL;
   \                     ??CrossCallReturnLabel_43:
   \   000023   F0           MOVX      @DPTR,A
    552          
    553            // Add to the list
    554            if ( externalEndPointHandlerList == NULL )
   \   000024   90....       MOV       DPTR,#externalEndPointHandlerList
   \   000027   12....       LCALL     ??Subroutine196_0 & 0xFFFF
   \                     ??CrossCallReturnLabel_352:
   \   00002A   7009         JNZ       ??zcl_addExternalFoundationHandler_1
    555            {
    556              externalEndPointHandlerList = pNewItem;
   \   00002C   90....       MOV       DPTR,#externalEndPointHandlerList
   \   00002F   EA           MOV       A,R2
   \   000030   F0           MOVX      @DPTR,A
   \   000031   A3           INC       DPTR
   \   000032   EB           MOV       A,R3
   \   000033   8047         SJMP      ??zcl_addExternalFoundationHandler_2
    557            }
    558            else
    559            {
    560              // make sure no one else tried to register for this endpoint
    561              pLoop = externalEndPointHandlerList;
   \                     ??zcl_addExternalFoundationHandler_1:
   \   000035   E0           MOVX      A,@DPTR
   \   000036   F9           MOV       R1,A
    562              pLoopPrev = externalEndPointHandlerList;
    563          
    564              while ( pLoop != NULL )
    565              {
    566                if ( ( pLoop->zcl_ExternalEndPoint ) == endPointId )
   \                     ??zcl_addExternalFoundationHandler_3:
   \   000037   8882         MOV       DPL,R0
   \   000039   8983         MOV       DPH,R1
   \   00003B   A3           INC       DPTR
   \   00003C   A3           INC       DPTR
   \   00003D   A3           INC       DPTR
   \   00003E   E0           MOVX      A,@DPTR
   \   00003F   6F           XRL       A,R7
   \   000040   7007         JNZ       ??zcl_addExternalFoundationHandler_4
    567                {
    568                  zcl_mem_free(pNewItem);
   \   000042                ; Setup parameters for call to function osal_mem_free
   \   000042   12....       LCALL     `??osal_mem_free::?relay`; Banked call to: osal_mem_free
    569                  return ( false );
   \                     ??zcl_addExternalFoundationHandler_0:
   \   000045   7900         MOV       R1,#0x0
   \   000047   8036         SJMP      ??zcl_addExternalFoundationHandler_5
    570                }
    571                pLoopPrev = pLoop;
   \                     ??zcl_addExternalFoundationHandler_4:
   \   000049   E8           MOV       A,R0
   \   00004A   FC           MOV       R4,A
   \   00004B   E9           MOV       A,R1
   \   00004C   FD           MOV       R5,A
    572                pLoop = pLoop->next;
   \   00004D   8882         MOV       DPL,R0
   \   00004F   8983         MOV       DPH,R1
   \   000051   12....       LCALL     ??Subroutine196_0 & 0xFFFF
    573              }
   \                     ??CrossCallReturnLabel_347:
   \   000054   70E1         JNZ       ??zcl_addExternalFoundationHandler_3
    574          
    575              if ( endPointId == AF_BROADCAST_ENDPOINT )
   \   000056   74FF         MOV       A,#-0x1
   \   000058   6F           XRL       A,R7
   \   000059   700D         JNZ       ??zcl_addExternalFoundationHandler_6
    576              {
    577                // put new registration at the end of the list
    578                pLoopPrev->next = pNewItem;
   \   00005B   8C82         MOV       DPL,R4
   \   00005D   8D83         MOV       DPH,R5
   \   00005F   EA           MOV       A,R2
   \   000060   F0           MOVX      @DPTR,A
   \   000061   A3           INC       DPTR
   \   000062   EB           MOV       A,R3
   \   000063   12....       LCALL     ?Subroutine34 & 0xFFFF
    579                pNewItem->next = NULL;
    580              }
   \                     ??CrossCallReturnLabel_44:
   \   000066   8014         SJMP      ??zcl_addExternalFoundationHandler_2
    581              else
    582              {
    583                // put new registration at the front of the list
    584                zclExternalFoundationHandlerList *temp = externalEndPointHandlerList;
   \                     ??zcl_addExternalFoundationHandler_6:
   \   000068   90....       MOV       DPTR,#externalEndPointHandlerList
   \   00006B   12....       LCALL     ??Subroutine205_0 & 0xFFFF
    585                externalEndPointHandlerList = pNewItem;
   \                     ??CrossCallReturnLabel_412:
   \   00006E   90....       MOV       DPTR,#externalEndPointHandlerList
   \   000071   12....       LCALL     ??Subroutine234_0 & 0xFFFF
    586                pNewItem->next = temp;
   \                     ??CrossCallReturnLabel_584:
   \   000074   8A82         MOV       DPL,R2
   \   000076   8B83         MOV       DPH,R3
   \   000078   E8           MOV       A,R0
   \   000079   F0           MOVX      @DPTR,A
   \   00007A   A3           INC       DPTR
   \   00007B   E9           MOV       A,R1
   \                     ??zcl_addExternalFoundationHandler_2:
   \   00007C   F0           MOVX      @DPTR,A
    587              }
    588            }
    589          
    590            return ( true );
   \   00007D   7901         MOV       R1,#0x1
   \                     ??zcl_addExternalFoundationHandler_5:
   \   00007F   02....       LJMP      ?Subroutine3 & 0xFFFF
    591          
    592          }

   \                                 In  segment BANKED_CODE, align 1, keep-with-next
   \                     ?Subroutine34:
   \   000000   12....       LCALL     ?Subroutine174 & 0xFFFF
   \                     ??CrossCallReturnLabel_343:
   \   000003   E4           CLR       A
   \   000004   F0           MOVX      @DPTR,A
   \   000005   A3           INC       DPTR
   \   000006   22           RET

   \                                 In  segment BANKED_CODE, align 1, keep-with-next
   \                     ?Subroutine174:
   \   000000   F0           MOVX      @DPTR,A
   \   000001   8A82         MOV       DPL,R2
   \   000003   8B83         MOV       DPH,R3
   \   000005   22           RET

   \                                 In  segment BANKED_CODE, align 1, keep-with-next
   \                     ??Subroutine196_0:
   \   000000   12....       LCALL     ?Subroutine165 & 0xFFFF
   \                     ??CrossCallReturnLabel_426:
   \   000003   E8           MOV       A,R0
   \   000004   49           ORL       A,R1
   \   000005   22           RET

   \                                 In  segment BANKED_CODE, align 1, keep-with-next
   \                     ?Subroutine3:
   \   000000   7F02         MOV       R7,#0x2
   \   000002   02....       LJMP      ?BANKED_LEAVE_XDATA

   \                                 In  segment BANKED_CODE, align 1, keep-with-next
   \                     ?Subroutine176:
   \   000000   E0           MOVX      A,@DPTR
   \   000001   F8           MOV       R0,A
   \   000002   A3           INC       DPTR
   \   000003   E0           MOVX      A,@DPTR
   \   000004   22           RET

   \                                 In  segment BANKED_CODE, align 1, keep-with-next
   \                     ?Subroutine117:
   \   000000   7B00         MOV       R3,#0x0
   \   000002                REQUIRE ??Subroutine204_0
   \   000002                ; // Fall through to label ??Subroutine204_0

   \                                 In  segment BANKED_CODE, align 1, keep-with-next
   \                     ??Subroutine204_0:
   \   000000   12....       LCALL     `??osal_mem_alloc::?relay`; Banked call to: osal_mem_alloc
   \   000003   EA           MOV       A,R2
   \   000004   4B           ORL       A,R3
   \   000005   22           RET

   \                                 In  segment BANKED_CODE, align 1, keep-with-next
   \                     ??Subroutine205_0:
   \   000000   12....       LCALL     ?Subroutine165 & 0xFFFF
   \                     ??CrossCallReturnLabel_427:
   \   000003   22           RET

   \                                 In  segment BANKED_CODE, align 1, keep-with-next
   \                     ?Subroutine165:
   \   000000   12....       LCALL     ?Subroutine176 & 0xFFFF
   \                     ??CrossCallReturnLabel_436:
   \   000003   F9           MOV       R1,A
   \   000004   22           RET

   \                                 In  segment BANKED_CODE, align 1, keep-with-next
   \                     ??Subroutine234_0:
   \   000000   EA           MOV       A,R2
   \   000001   F0           MOVX      @DPTR,A
   \   000002   A3           INC       DPTR
   \   000003   EB           MOV       A,R3
   \   000004   F0           MOVX      @DPTR,A
   \   000005   22           RET
    593          
    594          /*********************************************************************
    595           * @fn      zcl_getExternalFoundationHandler
    596           *
    597           * @brief   This function retrieves the Task ID of the task registered
    598           *          to received unhandled incoming Foundation Command/Response messages
    599           *          for a particular End Point ID.
    600           *
    601           * @param   pInMsg - recevied ZCL command
    602           *
    603           * @return  TASK ID of registered task.  If no task is reigistered, it returns
    604           *          TASK_NO_TASK.
    605           *********************************************************************/

   \                                 In  segment BANKED_CODE, align 1, keep-with-next
    606          static uint8 zcl_getExternalFoundationHandler( afIncomingMSGPacket_t *pInMsg )
   \                     zcl_getExternalFoundationHandler:
    607          {
   \   000000   C082         PUSH      DPL
   \   000002   C083         PUSH      DPH
   \   000004                ; Saved register size: 2
   \   000004                ; Auto size: 0
    608            zclExternalFoundationHandlerList *pLoop;
    609            uint8 addressedEndPointId = pInMsg->endPoint;
   \   000004   EA           MOV       A,R2
   \   000005   12....       LCALL     ??Subroutine216_0 & 0xFFFF
   \                     ??CrossCallReturnLabel_480:
   \   000008   3B           ADDC      A,R3
   \   000009   F583         MOV       DPH,A
   \   00000B   E0           MOVX      A,@DPTR
   \   00000C   FA           MOV       R2,A
    610          
    611            // make sure no one else tried to register for this endpoint
    612            pLoop = externalEndPointHandlerList;
   \   00000D   90....       MOV       DPTR,#externalEndPointHandlerList
   \   000010   8004         SJMP      ??zcl_getExternalFoundationHandler_0
    613          
    614            while ( pLoop != NULL )
    615            {
    616              if ( ( ( pLoop->zcl_ExternalEndPoint ) == addressedEndPointId ) ||
    617                   ( ( pLoop->zcl_ExternalEndPoint ) == AF_BROADCAST_ENDPOINT ) )
    618              {
    619                return ( pLoop->zcl_ExternalTaskID );
    620              }
    621              pLoop = pLoop->next;
   \                     ??zcl_getExternalFoundationHandler_1:
   \   000012   8882         MOV       DPL,R0
   \   000014   8983         MOV       DPH,R1
   \                     ??zcl_getExternalFoundationHandler_0:
   \   000016   12....       LCALL     ??Subroutine196_0 & 0xFFFF
   \                     ??CrossCallReturnLabel_348:
   \   000019   601C         JZ        ??zcl_getExternalFoundationHandler_2
   \   00001B   8882         MOV       DPL,R0
   \   00001D   8983         MOV       DPH,R1
   \   00001F   A3           INC       DPTR
   \   000020   A3           INC       DPTR
   \   000021   A3           INC       DPTR
   \   000022   E0           MOVX      A,@DPTR
   \   000023   FB           MOV       R3,A
   \   000024   EA           MOV       A,R2
   \   000025   6B           XRL       A,R3
   \   000026   6005         JZ        ??zcl_getExternalFoundationHandler_3
   \   000028   74FF         MOV       A,#-0x1
   \   00002A   6B           XRL       A,R3
   \   00002B   70E5         JNZ       ??zcl_getExternalFoundationHandler_1
   \                     ??zcl_getExternalFoundationHandler_3:
   \   00002D   8882         MOV       DPL,R0
   \   00002F   8983         MOV       DPH,R1
   \   000031   A3           INC       DPTR
   \   000032   A3           INC       DPTR
   \   000033   E0           MOVX      A,@DPTR
   \   000034   F9           MOV       R1,A
   \   000035   8002         SJMP      ??zcl_getExternalFoundationHandler_4
    622            }
    623          
    624            return ( TASK_NO_TASK );
   \                     ??zcl_getExternalFoundationHandler_2:
   \   000037   79FF         MOV       R1,#-0x1
   \                     ??zcl_getExternalFoundationHandler_4:
   \   000039   02....       LJMP      ?Subroutine0 & 0xFFFF
    625          }

   \                                 In  segment BANKED_CODE, align 1, keep-with-next
   \                     ??Subroutine216_0:
   \   000000   12....       LCALL     ?Subroutine171 & 0xFFFF
   \                     ??CrossCallReturnLabel_548:
   \   000003   22           RET

   \                                 In  segment BANKED_CODE, align 1, keep-with-next
   \                     ?Subroutine171:
   \   000000   12....       LCALL     ?Subroutine178 & 0xFFFF
   \                     ??CrossCallReturnLabel_556:
   \   000003   22           RET

   \                                 In  segment BANKED_CODE, align 1, keep-with-next
   \                     ?Subroutine178:
   \   000000   2414         ADD       A,#0x14
   \   000002   F582         MOV       DPL,A
   \   000004   E4           CLR       A
   \   000005   22           RET
    626          #endif
    627          
    628          #if !defined ( ZCL_STANDALONE )
    629          /*********************************************************************
    630           * @fn      zcl_HandleExternal
    631           *
    632           * @brief
    633           *
    634           * @param   pInMsg - incoming message to process
    635           *
    636           * @return  TRUE
    637           */

   \                                 In  segment BANKED_CODE, align 1, keep-with-next
    638          uint8 zcl_HandleExternal( zclIncoming_t *pInMsg )
   \                     zcl_HandleExternal:
    639          {
   \   000000                REQUIRE ?V0
   \   000000                REQUIRE ?V1
   \   000000                REQUIRE ?V2
   \   000000                REQUIRE ?V3
   \   000000   74F4         MOV       A,#-0xc
   \   000002   12....       LCALL     ?BANKED_ENTER_XDATA
   \   000005                ; Saved register size: 12
   \   000005                ; Auto size: 0
   \   000005   EA           MOV       A,R2
   \   000006   FE           MOV       R6,A
   \   000007   EB           MOV       A,R3
   \   000008   FF           MOV       R7,A
    640            zclIncomingMsg_t *pCmd;
    641            uint8 taskID;
    642          
    643            taskID = zcl_getExternalFoundationHandler( pInMsg->msg );
   \   000009                ; Setup parameters for call to function zcl_getExternalFoundationHandler
   \   000009   8A82         MOV       DPL,R2
   \   00000B   F583         MOV       DPH,A
   \   00000D   12....       LCALL     ??Subroutine208_0 & 0xFFFF
   \                     ??CrossCallReturnLabel_437:
   \   000010   12....       LCALL     `??zcl_getExternalFoundationHandler::?relay`; Banked call to: zcl_getExternalFoundationHandler
   \   000013   E9           MOV       A,R1
   \   000014   F5..         MOV       ?V0,A
    644          
    645            if ( taskID == TASK_NO_TASK )
   \   000016   74FF         MOV       A,#-0x1
   \   000018   69           XRL       A,R1
   \   000019   7003         JNZ       $+5
   \   00001B   02....       LJMP      ??zcl_HandleExternal_0 & 0xFFFF
    646            {
    647              return ( TRUE );
    648            }
    649          
    650            pCmd = (zclIncomingMsg_t *)osal_msg_allocate( sizeof ( zclIncomingMsg_t ) );
   \   00001E                ; Setup parameters for call to function osal_msg_allocate
   \   00001E   7A19         MOV       R2,#0x19
   \   000020   7B00         MOV       R3,#0x0
   \   000022   12....       LCALL     `??osal_msg_allocate::?relay`; Banked call to: osal_msg_allocate
    651            if ( pCmd != NULL )
   \   000025   EA           MOV       A,R2
   \   000026   4B           ORL       A,R3
   \   000027   6079         JZ        ??zcl_HandleExternal_0
    652            {
    653              // fill in the message
    654              pCmd->hdr.event = ZCL_INCOMING_MSG;
   \   000029   8A82         MOV       DPL,R2
   \   00002B   8B83         MOV       DPH,R3
   \   00002D   7434         MOV       A,#0x34
   \   00002F   12....       LCALL     ?Subroutine32 & 0xFFFF
    655              pCmd->zclHdr    = pInMsg->hdr;
   \                     ??CrossCallReturnLabel_38:
   \   000032   A3           INC       DPTR
   \   000033   EA           MOV       A,R2
   \   000034   2402         ADD       A,#0x2
   \   000036   FC           MOV       R4,A
   \   000037   E4           CLR       A
   \   000038   3B           ADDC      A,R3
   \   000039   FD           MOV       R5,A
   \   00003A   7406         MOV       A,#0x6
   \   00003C   12....       LCALL     ?MOVE_LONG8_XDATA_XDATA
    656              pCmd->clusterId = pInMsg->msg->clusterId;
   \   00003F   8E82         MOV       DPL,R6
   \   000041   8F83         MOV       DPH,R7
   \   000043   12....       LCALL     ?Subroutine87 & 0xFFFF
   \                     ??CrossCallReturnLabel_143:
   \   000046   12....       LCALL     ?Subroutine94 & 0xFFFF
   \                     ??CrossCallReturnLabel_477:
   \   000049   8A82         MOV       DPL,R2
   \   00004B   8B83         MOV       DPH,R3
   \   00004D   A3           INC       DPTR
   \   00004E   A3           INC       DPTR
   \   00004F   A3           INC       DPTR
   \   000050   A3           INC       DPTR
   \   000051   A3           INC       DPTR
   \   000052   A3           INC       DPTR
   \   000053   A3           INC       DPTR
   \   000054   A3           INC       DPTR
   \   000055   12....       LCALL     ?Subroutine36 & 0xFFFF
    657              pCmd->srcAddr   = pInMsg->msg->srcAddr;
   \                     ??CrossCallReturnLabel_45:
   \   000058   A3           INC       DPTR
   \   000059   A3           INC       DPTR
   \   00005A   A3           INC       DPTR
   \   00005B   A3           INC       DPTR
   \   00005C   A3           INC       DPTR
   \   00005D   A3           INC       DPTR
   \   00005E   EA           MOV       A,R2
   \   00005F   240A         ADD       A,#0xa
   \   000061   FC           MOV       R4,A
   \   000062   E4           CLR       A
   \   000063   3B           ADDC      A,R3
   \   000064   FD           MOV       R5,A
   \   000065   740C         MOV       A,#0xc
   \   000067   12....       LCALL     ?MOVE_LONG8_XDATA_XDATA
    658              pCmd->endPoint  = pInMsg->msg->endPoint;
   \   00006A   8E82         MOV       DPL,R6
   \   00006C   8F83         MOV       DPH,R7
   \   00006E   12....       LCALL     ?Subroutine69 & 0xFFFF
   \                     ??CrossCallReturnLabel_108:
   \   000071   C0E0         PUSH      A
   \   000073   EA           MOV       A,R2
   \   000074   2416         ADD       A,#0x16
   \   000076   F582         MOV       DPL,A
   \   000078   E4           CLR       A
   \   000079   3B           ADDC      A,R3
   \   00007A   F583         MOV       DPH,A
   \   00007C   D0E0         POP       A
   \   00007E   F0           MOVX      @DPTR,A
    659              pCmd->attrCmd   = pInMsg->attrCmd;
   \   00007F   EE           MOV       A,R6
   \   000080   240C         ADD       A,#0xc
   \   000082   F8           MOV       R0,A
   \   000083   E4           CLR       A
   \   000084   3F           ADDC      A,R7
   \   000085   F9           MOV       R1,A
   \   000086   8882         MOV       DPL,R0
   \   000088   F583         MOV       DPH,A
   \   00008A   12....       LCALL     ??Subroutine212_0 & 0xFFFF
   \                     ??CrossCallReturnLabel_470:
   \   00008D   EA           MOV       A,R2
   \   00008E   2417         ADD       A,#0x17
   \   000090   F582         MOV       DPL,A
   \   000092   E4           CLR       A
   \   000093   3B           ADDC      A,R3
   \   000094   F583         MOV       DPH,A
   \   000096   12....       LCALL     ?Subroutine36 & 0xFFFF
    660              
    661          #ifdef BDB_REPORTING
    662              if(pCmd->zclHdr.commandID == ZCL_CMD_CONFIG_REPORT)
    663              {
    664                bdb_ProcessInConfigReportCmd(pCmd);
    665                return TRUE;          
    666              }
    667              if(pCmd->zclHdr.commandID == ZCL_CMD_READ_REPORT_CFG)
    668              {
    669                bdb_ProcessInReadReportCfgCmd(pCmd);
    670                return TRUE;
    671              }
    672          #endif
    673              // Application will free the attrCmd buffer
    674              pInMsg->attrCmd = NULL;
   \                     ??CrossCallReturnLabel_46:
   \   000099   E4           CLR       A
   \   00009A   F0           MOVX      @DPTR,A
   \   00009B   A3           INC       DPTR
   \   00009C   F0           MOVX      @DPTR,A
    675          
    676              /* send message through task message */
    677              osal_msg_send( taskID, (uint8 *)pCmd );
   \   00009D                ; Setup parameters for call to function osal_msg_send
   \   00009D   A9..         MOV       R1,?V0
   \   00009F   12....       LCALL     `??osal_msg_send::?relay`; Banked call to: osal_msg_send
    678            }
    679          
    680            return ( TRUE );
   \                     ??zcl_HandleExternal_0:
   \   0000A2   7901         MOV       R1,#0x1
   \   0000A4   02....       LJMP      ??Subroutine180_0 & 0xFFFF
    681          }

   \                                 In  segment BANKED_CODE, align 1, keep-with-next
   \                     ?Subroutine36:
   \   000000   EC           MOV       A,R4
   \   000001   F0           MOVX      @DPTR,A
   \   000002   A3           INC       DPTR
   \   000003   ED           MOV       A,R5
   \   000004   F0           MOVX      @DPTR,A
   \   000005   8882         MOV       DPL,R0
   \   000007   8983         MOV       DPH,R1
   \   000009   22           RET

   \                                 In  segment BANKED_CODE, align 1, keep-with-next
   \                     ?Subroutine87:
   \   000000   12....       LCALL     ?Subroutine163 & 0xFFFF
   \                     ??CrossCallReturnLabel_278:
   \   000003   22           RET

   \                                 In  segment BANKED_CODE, align 1, keep-with-next
   \                     ?Subroutine163:
   \   000000   12....       LCALL     ?Subroutine176 & 0xFFFF
   \                     ??CrossCallReturnLabel_433:
   \   000003   F9           MOV       R1,A
   \   000004   8882         MOV       DPL,R0
   \   000006   F583         MOV       DPH,A
   \   000008   22           RET

   \                                 In  segment BANKED_CODE, align 1, keep-with-next
   \                     ?Subroutine32:
   \   000000   12....       LCALL     ?Subroutine148 & 0xFFFF
   \                     ??CrossCallReturnLabel_253:
   \   000003   A3           INC       DPTR
   \   000004   22           RET

   \                                 In  segment BANKED_CODE, align 1, keep-with-next
   \                     ?Subroutine148:
   \   000000   F0           MOVX      @DPTR,A
   \   000001   8E82         MOV       DPL,R6
   \   000003   8F83         MOV       DPH,R7
   \   000005   22           RET

   \                                 In  segment BANKED_CODE, align 1, keep-with-next
   \                     ??Subroutine208_0:
   \   000000   12....       LCALL     ??Subroutine232_0 & 0xFFFF
   \                     ??CrossCallReturnLabel_581:
   \   000003   22           RET

   \                                 In  segment BANKED_CODE, align 1, keep-with-next
   \                     ?Subroutine69:
   \   000000   E0           MOVX      A,@DPTR
   \   000001   F8           MOV       R0,A
   \   000002   12....       LCALL     ?Subroutine159 & 0xFFFF
   \                     ??CrossCallReturnLabel_274:
   \   000005   22           RET

   \                                 In  segment BANKED_CODE, align 1, keep-with-next
   \                     ?Subroutine159:
   \   000000   A3           INC       DPTR
   \   000001   E0           MOVX      A,@DPTR
   \   000002   C8           XCH       A,R0
   \   000003   12....       LCALL     ?Subroutine178 & 0xFFFF
   \                     ??CrossCallReturnLabel_554:
   \   000006   38           ADDC      A,R0
   \   000007   F583         MOV       DPH,A
   \   000009   E0           MOVX      A,@DPTR
   \   00000A   22           RET

   \                                 In  segment BANKED_CODE, align 1, keep-with-next
   \                     ?Subroutine94:
   \   000000   A3           INC       DPTR
   \   000001   A3           INC       DPTR
   \   000002                REQUIRE ??Subroutine211_0
   \   000002                ; // Fall through to label ??Subroutine211_0

   \                                 In  segment BANKED_CODE, align 1, keep-with-next
   \                     ??Subroutine211_0:
   \   000000   A3           INC       DPTR
   \   000001   A3           INC       DPTR
   \   000002                REQUIRE ??Subroutine212_0
   \   000002                ; // Fall through to label ??Subroutine212_0

   \                                 In  segment BANKED_CODE, align 1, keep-with-next
   \                     ??Subroutine212_0:
   \   000000   12....       LCALL     ??Subroutine223_0 & 0xFFFF
   \                     ??CrossCallReturnLabel_522:
   \   000003   22           RET

   \                                 In  segment BANKED_CODE, align 1, keep-with-next
   \                     ??Subroutine223_0:
   \   000000   E0           MOVX      A,@DPTR
   \   000001   FC           MOV       R4,A
   \   000002   A3           INC       DPTR
   \   000003   E0           MOVX      A,@DPTR
   \   000004   FD           MOV       R5,A
   \   000005   22           RET

   \                                 In  segment BANKED_CODE, align 1, keep-with-next
   \                     ??Subroutine232_0:
   \   000000   E0           MOVX      A,@DPTR
   \   000001   FA           MOV       R2,A
   \   000002   A3           INC       DPTR
   \   000003   E0           MOVX      A,@DPTR
   \   000004   FB           MOV       R3,A
   \   000005   22           RET
    682          #endif
    683          
    684          
    685          /*********************************************************************
    686           * @fn          zcl_getRawAFMsg
    687           *
    688           * @brief       Call to get original unprocessed AF message
    689           *              (not parsed by ZCL).
    690           *
    691           *   NOTE:  This function can only be called during a ZCL callback function
    692           *          and the calling function must NOT change any data in the message.
    693           *
    694           * @param       none
    695           *
    696           * @return      pointer to original AF message, NULL if not processing
    697           *              AF message.
    698           */

   \                                 In  segment BANKED_CODE, align 1, keep-with-next
    699          afIncomingMSGPacket_t *zcl_getRawAFMsg( void )
   \                     zcl_getRawAFMsg:
    700          {
   \   000000   C082         PUSH      DPL
   \   000002   C083         PUSH      DPH
   \   000004                ; Saved register size: 2
   \   000004                ; Auto size: 0
    701            return ( rawAFMsg );
   \   000004   90....       MOV       DPTR,#rawAFMsg
   \   000007   12....       LCALL     ??Subroutine208_0 & 0xFFFF
   \                     ??CrossCallReturnLabel_438:
   \   00000A   80..         SJMP      ?Subroutine0
    702          }
    703          
    704          /*********************************************************************
    705           * @fn          zcl_getParsedTransSeqNum
    706           *
    707           * @brief       Call to the get the transaction sequence number from
    708           *              the incoming message.
    709           *
    710           *   NOTE:  This function can only be called during a ZCL callback function
    711           *          and the calling function must NOT change any data in the message.
    712           *
    713           * @param       none
    714           *
    715           * @return      transaction sequence number.
    716           */

   \                                 In  segment BANKED_CODE, align 1, keep-with-next
    717          uint8 zcl_getParsedTransSeqNum( void )
   \                     zcl_getParsedTransSeqNum:
    718          {
   \   000000   C082         PUSH      DPL
   \   000002   C083         PUSH      DPH
   \   000004                ; Saved register size: 2
   \   000004                ; Auto size: 0
    719            return ( savedZCLTransSeqNum );
   \   000004   90....       MOV       DPTR,#savedZCLTransSeqNum
   \   000007   E0           MOVX      A,@DPTR
   \   000008   F9           MOV       R1,A
   \   000009                REQUIRE ?Subroutine0
   \   000009                ; // Fall through to label ?Subroutine0
    720          }
    721          
    722          /*********************************************************************
    723           * @fn          zcl_registerPlugin
    724           *
    725           * @brief       Add a Cluster Library handler
    726           *
    727           * @param       startClusterID - starting cluster ID
    728           * @param       endClusterID - ending cluster ID
    729           * @param       pfnHdlr - function pointer to incoming message handler
    730           *
    731           * @return      ZSuccess if OK
    732           */

   \                                 In  segment BANKED_CODE, align 1, keep-with-next
    733          ZStatus_t zcl_registerPlugin( uint16 startClusterID,
   \                     zcl_registerPlugin:
    734                    uint16 endClusterID, zclInHdlr_t pfnIncomingHdlr )
    735          {
   \   000000                REQUIRE ?V0
   \   000000                REQUIRE ?V1
   \   000000                REQUIRE ?V2
   \   000000                REQUIRE ?V3
   \   000000   74F4         MOV       A,#-0xc
   \   000002   12....       LCALL     ?BANKED_ENTER_XDATA
   \   000005                ; Saved register size: 12
   \   000005                ; Auto size: 0
   \   000005   8A..         MOV       ?V0,R2
   \   000007   8B..         MOV       ?V1,R3
   \   000009   EC           MOV       A,R4
   \   00000A   FE           MOV       R6,A
   \   00000B   ED           MOV       A,R5
   \   00000C   FF           MOV       R7,A
    736            zclLibPlugin_t *pNewItem;
    737            zclLibPlugin_t *pLoop;
    738          
    739            // Fill in the new profile list
    740            pNewItem = zcl_mem_alloc( sizeof( zclLibPlugin_t ) );
   \   00000D                ; Setup parameters for call to function osal_mem_alloc
   \   00000D   7A08         MOV       R2,#0x8
   \   00000F   12....       LCALL     ??Subroutine179_0 & 0xFFFF
    741            if ( pNewItem == NULL )
   \                     ??CrossCallReturnLabel_294:
   \   000012   7004         JNZ       ??zcl_registerPlugin_0
    742            {
    743              return (ZMemError);
   \   000014   7910         MOV       R1,#0x10
   \   000016   8034         SJMP      ??CrossCallReturnLabel_23
    744            }
    745          
    746            // Fill in the plugin record.
    747            pNewItem->next = (zclLibPlugin_t *)NULL;
   \                     ??zcl_registerPlugin_0:
   \   000018   12....       LCALL     ?Subroutine24 & 0xFFFF
    748            pNewItem->startClusterID = startClusterID;
   \                     ??CrossCallReturnLabel_21:
   \   00001B   12....       LCALL     ?Subroutine142 & 0xFFFF
    749            pNewItem->endClusterID = endClusterID;
    750            pNewItem->pfnIncomingHdlr = pfnIncomingHdlr;
   \                     ??CrossCallReturnLabel_243:
   \   00001E   740C         MOV       A,#0xc
   \   000020   12....       LCALL     ?XSTACK_DISP0_8
   \   000023   12....       LCALL     ?Subroutine90 & 0xFFFF
   \                     ??CrossCallReturnLabel_146:
   \   000026   A3           INC       DPTR
   \   000027   A3           INC       DPTR
   \   000028   A3           INC       DPTR
   \   000029   A3           INC       DPTR
   \   00002A   12....       LCALL     ??Subroutine233_0 & 0xFFFF
    751          
    752            // Find spot in list
    753            if (  plugins == NULL )
   \                     ??CrossCallReturnLabel_593:
   \   00002D   90....       MOV       DPTR,#plugins
   \   000030   12....       LCALL     ??Subroutine185_0 & 0xFFFF
   \                     ??CrossCallReturnLabel_311:
   \   000033   90....       MOV       DPTR,#plugins
   \   000036   6011         JZ        ??zcl_registerPlugin_1
    754            {
    755              plugins = pNewItem;
    756            }
    757            else
    758            {
    759              // Look for end of list
    760              pLoop = plugins;
   \   000038   12....       LCALL     ?Subroutine109 & 0xFFFF
   \                     ??CrossCallReturnLabel_190:
   \   00003B   8003         SJMP      ??zcl_registerPlugin_2
    761              while ( pLoop->next != NULL )
    762              {
    763                pLoop = pLoop->next;
   \                     ??zcl_registerPlugin_3:
   \   00003D   EA           MOV       A,R2
   \   00003E   FC           MOV       R4,A
   \   00003F   EB           MOV       A,R3
    764              }
   \                     ??zcl_registerPlugin_2:
   \   000040   12....       LCALL     ?Subroutine44 & 0xFFFF
   \                     ??CrossCallReturnLabel_305:
   \   000043   70F8         JNZ       ??zcl_registerPlugin_3
    765          
    766              // Put new item at end of list
    767              pLoop->next = pNewItem;
   \   000045   8C82         MOV       DPL,R4
   \   000047   8D83         MOV       DPH,R5
    768            }
   \                     ??zcl_registerPlugin_1:
   \   000049   12....       LCALL     ?Subroutine25 & 0xFFFF
    769          
    770            return ( ZSuccess );
   \                     ??CrossCallReturnLabel_23:
   \   00004C   80..         SJMP      ??Subroutine180_0
    771          }

   \                                 In  segment BANKED_CODE, align 1, keep-with-next
   \                     ??Subroutine179_0:
   \   000000   7B00         MOV       R3,#0x0
   \   000002   12....       LCALL     `??osal_mem_alloc::?relay`; Banked call to: osal_mem_alloc
   \   000005   8A..         MOV       ?V2,R2
   \   000007   8B..         MOV       ?V3,R3
   \   000009   A8..         MOV       R0,?V2
   \   00000B   A9..         MOV       R1,?V3
   \   00000D   EA           MOV       A,R2
   \   00000E   49           ORL       A,R1
   \   00000F   22           RET

   \                                 In  segment BANKED_CODE, align 1, keep-with-next
   \                     ?Subroutine25:
   \   000000   E8           MOV       A,R0
   \   000001   F0           MOVX      @DPTR,A
   \   000002   A3           INC       DPTR
   \   000003   E9           MOV       A,R1
   \   000004   F0           MOVX      @DPTR,A
   \   000005   7900         MOV       R1,#0x0
   \   000007   22           RET

   \                                 In  segment BANKED_CODE, align 1, keep-with-next
   \                     ?Subroutine24:
   \   000000   12....       LCALL     ?Subroutine143 & 0xFFFF
   \                     ??CrossCallReturnLabel_245:
   \   000003   22           RET

   \                                 In  segment BANKED_CODE, align 1, keep-with-next
   \                     ?Subroutine143:
   \   000000   8A82         MOV       DPL,R2
   \   000002   8B83         MOV       DPH,R3
   \   000004   E4           CLR       A
   \   000005   F0           MOVX      @DPTR,A
   \   000006   A3           INC       DPTR
   \   000007   12....       LCALL     ?Subroutine174 & 0xFFFF
   \                     ??CrossCallReturnLabel_344:
   \   00000A   A3           INC       DPTR
   \   00000B   A3           INC       DPTR
   \   00000C   E5..         MOV       A,?V0
   \   00000E   F0           MOVX      @DPTR,A
   \   00000F   22           RET

   \                                 In  segment BANKED_CODE, align 1, keep-with-next
   \                     ?Subroutine109:
   \   000000   E0           MOVX      A,@DPTR
   \   000001   FC           MOV       R4,A
   \   000002   A3           INC       DPTR
   \   000003   E0           MOVX      A,@DPTR
   \   000004   22           RET

   \                                 In  segment BANKED_CODE, align 1, keep-with-next
   \                     ?Subroutine142:
   \   000000   A3           INC       DPTR
   \   000001   E5..         MOV       A,?V1
   \   000003   12....       LCALL     ?Subroutine173 & 0xFFFF
   \                     ??CrossCallReturnLabel_287:
   \   000006   EE           MOV       A,R6
   \   000007   F0           MOVX      @DPTR,A
   \   000008   A3           INC       DPTR
   \   000009   EF           MOV       A,R7
   \   00000A   F0           MOVX      @DPTR,A
   \   00000B   22           RET

   \                                 In  segment BANKED_CODE, align 1, keep-with-next
   \                     ?Subroutine44:
   \   000000   FD           MOV       R5,A
   \   000001   8C82         MOV       DPL,R4
   \   000003   8D83         MOV       DPH,R5
   \   000005                REQUIRE ??Subroutine185_0
   \   000005                ; // Fall through to label ??Subroutine185_0

   \                                 In  segment BANKED_CODE, align 1, keep-with-next
   \                     ??Subroutine185_0:
   \   000000   12....       LCALL     ??Subroutine232_0 & 0xFFFF
   \                     ??CrossCallReturnLabel_580:
   \   000003   EA           MOV       A,R2
   \   000004   4B           ORL       A,R3
   \   000005   22           RET

   \                                 In  segment BANKED_CODE, align 1, keep-with-next
   \                     ?Subroutine90:
   \   000000   12....       LCALL     ?Subroutine161 & 0xFFFF
   \                     ??CrossCallReturnLabel_276:
   \   000003   22           RET

   \                                 In  segment BANKED_CODE, align 1, keep-with-next
   \                     ?Subroutine161:
   \   000000   E0           MOVX      A,@DPTR
   \   000001   FA           MOV       R2,A
   \   000002   A3           INC       DPTR
   \   000003   E0           MOVX      A,@DPTR
   \   000004   FB           MOV       R3,A
   \   000005   8882         MOV       DPL,R0
   \   000007   8983         MOV       DPH,R1
   \   000009   22           RET

   \                                 In  segment BANKED_CODE, align 1, keep-with-next
   \                     ?Subroutine173:
   \   000000   F0           MOVX      @DPTR,A
   \   000001   8A82         MOV       DPL,R2
   \   000003   8B83         MOV       DPH,R3
   \   000005   A3           INC       DPTR
   \   000006   A3           INC       DPTR
   \   000007   A3           INC       DPTR
   \   000008   A3           INC       DPTR
   \   000009   22           RET

   \                                 In  segment BANKED_CODE, align 1, keep-with-next
   \                     ??Subroutine233_0:
   \   000000   A3           INC       DPTR
   \   000001   A3           INC       DPTR
   \   000002                REQUIRE ??Subroutine234_0
   \   000002                ; // Fall through to label ??Subroutine234_0
    772          
    773          #ifdef ZCL_DISCOVER
    774          /*********************************************************************
    775           * @fn          zcl_registerCmdList
    776           *
    777           * @brief       Register a Command List with ZCL Foundation
    778           *
    779           * @param       endpoint - endpoint the attribute list belongs to
    780           * @param       newCmdList - array of command records
    781           *
    782           * @return      ZSuccess if OK
    783           */

   \                                 In  segment BANKED_CODE, align 1, keep-with-next
    784          ZStatus_t zcl_registerCmdList( uint8 endpoint, CONST uint8 cmdListSize, CONST zclCommandRec_t newCmdList[] )
   \                     zcl_registerCmdList:
    785          {
   \   000000                REQUIRE ?V0
   \   000000                REQUIRE ?V1
   \   000000                REQUIRE ?V2
   \   000000                REQUIRE ?V3
   \   000000   74F4         MOV       A,#-0xc
   \   000002   12....       LCALL     ?BANKED_ENTER_XDATA
   \   000005                ; Saved register size: 12
   \   000005                ; Auto size: 0
   \   000005   12....       LCALL     ?Subroutine116 & 0xFFFF
    786            zclCmdRecsList_t *pNewItem;
    787            zclCmdRecsList_t *pLoop;
    788          
    789            // Fill in the new profile list
    790            pNewItem = zcl_mem_alloc( sizeof( zclCmdRecsList_t ) );
    791            if ( pNewItem == NULL )
   \                     ??CrossCallReturnLabel_292:
   \   000008   7004         JNZ       ??zcl_registerCmdList_0
    792            {
    793              return (ZMemError);
   \   00000A   7910         MOV       R1,#0x10
   \   00000C   8022         SJMP      ??CrossCallReturnLabel_24
    794            }
    795          
    796            pNewItem->pNext = (zclCmdRecsList_t *)NULL;
   \                     ??zcl_registerCmdList_0:
   \   00000E   12....       LCALL     ?Subroutine12 & 0xFFFF
    797            pNewItem->endpoint = endpoint;
    798            pNewItem->numCommands = cmdListSize;
    799            pNewItem->pCmdRecs = newCmdList;
    800          
    801            // Find spot in list
    802            if ( gpCmdList == NULL )
   \                     ??CrossCallReturnLabel_0:
   \   000011   90....       MOV       DPTR,#gpCmdList
   \   000014   12....       LCALL     ??Subroutine185_0 & 0xFFFF
   \                     ??CrossCallReturnLabel_312:
   \   000017   90....       MOV       DPTR,#gpCmdList
   \   00001A   6011         JZ        ??zcl_registerCmdList_1
    803            {
    804              gpCmdList = pNewItem;
    805            }
    806            else
    807            {
    808              // Look for end of list
    809              pLoop = gpCmdList;
   \   00001C   12....       LCALL     ?Subroutine109 & 0xFFFF
   \                     ??CrossCallReturnLabel_191:
   \   00001F   8003         SJMP      ??zcl_registerCmdList_2
    810              while ( pLoop->pNext != NULL )
    811              {
    812                pLoop = pLoop->pNext;
   \                     ??zcl_registerCmdList_3:
   \   000021   EA           MOV       A,R2
   \   000022   FC           MOV       R4,A
   \   000023   EB           MOV       A,R3
    813              }
   \                     ??zcl_registerCmdList_2:
   \   000024   12....       LCALL     ?Subroutine44 & 0xFFFF
   \                     ??CrossCallReturnLabel_306:
   \   000027   70F8         JNZ       ??zcl_registerCmdList_3
    814          
    815              // Put new item at end of list
    816              pLoop->pNext = pNewItem;
   \   000029   8C82         MOV       DPL,R4
   \   00002B   8D83         MOV       DPH,R5
    817            }
   \                     ??zcl_registerCmdList_1:
   \   00002D   12....       LCALL     ?Subroutine25 & 0xFFFF
    818          
    819            return ( ZSuccess );
   \                     ??CrossCallReturnLabel_24:
   \   000030   80..         SJMP      ??Subroutine180_0
    820          }

   \                                 In  segment BANKED_CODE, align 1, keep-with-next
   \                     ?Subroutine116:
   \   000000   89..         MOV       ?V0,R1
   \   000002   8A..         MOV       ?V1,R2
   \   000004   EC           MOV       A,R4
   \   000005   FE           MOV       R6,A
   \   000006   ED           MOV       A,R5
   \   000007   FF           MOV       R7,A
   \   000008                ; Setup parameters for call to function osal_mem_alloc
   \   000008                ; Setup parameters for call to function osal_mem_alloc
   \   000008   7A06         MOV       R2,#0x6
   \   00000A                REQUIRE ??Subroutine179_0
   \   00000A                ; // Fall through to label ??Subroutine179_0

   \                                 In  segment BANKED_CODE, align 1, keep-with-next
   \                     ?Subroutine12:
   \   000000   12....       LCALL     ?Subroutine143 & 0xFFFF
   \                     ??CrossCallReturnLabel_246:
   \   000003   8A82         MOV       DPL,R2
   \   000005   8B83         MOV       DPH,R3
   \   000007   A3           INC       DPTR
   \   000008   A3           INC       DPTR
   \   000009   12....       LCALL     ?Subroutine142 & 0xFFFF
   \                     ??CrossCallReturnLabel_244:
   \   00000C   22           RET
    821          #endif  // ZCL_DISCOVER
    822          
    823          /*********************************************************************
    824           * @fn          zcl_registerAttrList
    825           *
    826           * @brief       Register an Attribute List with ZCL Foundation
    827           *
    828           * @param       endpoint - endpoint the attribute list belongs to
    829           * @param       numAttr - number of attributes in list
    830           * @param       newAttrList - array of Attribute records.
    831           *                            NOTE: THE ATTRIBUTE IDs (FOR A CLUSTER) MUST BE IN
    832           *                            ASCENDING ORDER. OTHERWISE, THE DISCOVERY RESPONSE
    833           *                            COMMAND WILL NOT HAVE THE RIGHT ATTRIBUTE INFO
    834           *
    835           * @return      ZSuccess if OK
    836           */

   \                                 In  segment BANKED_CODE, align 1, keep-with-next
    837          ZStatus_t zcl_registerAttrList( uint8 endpoint, uint8 numAttr, CONST zclAttrRec_t newAttrList[] )
   \                     zcl_registerAttrList:
    838          {
   \   000000                REQUIRE ?V0
   \   000000                REQUIRE ?V1
   \   000000                REQUIRE ?V2
   \   000000                REQUIRE ?V3
   \   000000   74F4         MOV       A,#-0xc
   \   000002   12....       LCALL     ?BANKED_ENTER_XDATA
   \   000005                ; Saved register size: 12
   \   000005                ; Auto size: 0
   \   000005   89..         MOV       ?V0,R1
   \   000007   8A..         MOV       ?V1,R2
   \   000009   EC           MOV       A,R4
   \   00000A   FE           MOV       R6,A
   \   00000B   ED           MOV       A,R5
   \   00000C   FF           MOV       R7,A
    839            zclAttrRecsList *pNewItem;
    840            zclAttrRecsList *pLoop;
    841          
    842            // Fill in the new profile list
    843            pNewItem = zcl_mem_alloc( sizeof( zclAttrRecsList ) );
   \   00000D                ; Setup parameters for call to function osal_mem_alloc
   \   00000D   7A0A         MOV       R2,#0xa
   \   00000F   12....       LCALL     ??Subroutine179_0 & 0xFFFF
    844            if ( pNewItem == NULL )
   \                     ??CrossCallReturnLabel_295:
   \   000012   7004         JNZ       ??zcl_registerAttrList_0
    845            {
    846              return (ZMemError);
   \   000014   7910         MOV       R1,#0x10
   \   000016   803A         SJMP      ??CrossCallReturnLabel_25
    847            }
    848          
    849            pNewItem->next = (zclAttrRecsList *)NULL;
   \                     ??zcl_registerAttrList_0:
   \   000018   12....       LCALL     ?Subroutine24 & 0xFFFF
    850            pNewItem->endpoint = endpoint;
    851            pNewItem->pfnReadWriteCB = NULL;
   \                     ??CrossCallReturnLabel_22:
   \   00001B   8A82         MOV       DPL,R2
   \   00001D   8B83         MOV       DPH,R3
   \   00001F   A3           INC       DPTR
   \   000020   A3           INC       DPTR
   \   000021   A3           INC       DPTR
   \   000022   E4           CLR       A
   \   000023   F0           MOVX      @DPTR,A
   \   000024   A3           INC       DPTR
   \   000025   12....       LCALL     ?Subroutine22 & 0xFFFF
    852            pNewItem->numAttributes = numAttr;
   \                     ??CrossCallReturnLabel_17:
   \   000028   E5..         MOV       A,?V1
   \   00002A   12....       LCALL     ?Subroutine22 & 0xFFFF
    853            pNewItem->attrs = newAttrList;
   \                     ??CrossCallReturnLabel_18:
   \   00002D   A3           INC       DPTR
   \   00002E   EE           MOV       A,R6
   \   00002F   F0           MOVX      @DPTR,A
   \   000030   A3           INC       DPTR
   \   000031   EF           MOV       A,R7
   \   000032   F0           MOVX      @DPTR,A
    854          
    855            // Find spot in list
    856            if ( attrList == NULL )
   \   000033   90....       MOV       DPTR,#attrList
   \   000036   12....       LCALL     ??Subroutine185_0 & 0xFFFF
   \                     ??CrossCallReturnLabel_313:
   \   000039   90....       MOV       DPTR,#attrList
   \   00003C   6011         JZ        ??zcl_registerAttrList_1
    857            {
    858              attrList = pNewItem;
    859            }
    860            else
    861            {
    862              // Look for end of list
    863              pLoop = attrList;
   \   00003E   12....       LCALL     ?Subroutine109 & 0xFFFF
   \                     ??CrossCallReturnLabel_192:
   \   000041   8003         SJMP      ??zcl_registerAttrList_2
    864              while ( pLoop->next != NULL )
    865              {
    866                pLoop = pLoop->next;
   \                     ??zcl_registerAttrList_3:
   \   000043   EA           MOV       A,R2
   \   000044   FC           MOV       R4,A
   \   000045   EB           MOV       A,R3
    867              }
   \                     ??zcl_registerAttrList_2:
   \   000046   12....       LCALL     ?Subroutine44 & 0xFFFF
   \                     ??CrossCallReturnLabel_307:
   \   000049   70F8         JNZ       ??zcl_registerAttrList_3
    868          
    869              // Put new item at end of list
    870              pLoop->next = pNewItem;
   \   00004B   8C82         MOV       DPL,R4
   \   00004D   8D83         MOV       DPH,R5
    871            }
   \                     ??zcl_registerAttrList_1:
   \   00004F   12....       LCALL     ?Subroutine25 & 0xFFFF
    872          
    873            return ( ZSuccess );
   \                     ??CrossCallReturnLabel_25:
   \   000052   80..         SJMP      ??Subroutine180_0
    874          }

   \                                 In  segment BANKED_CODE, align 1, keep-with-next
   \                     ?Subroutine22:
   \   000000   12....       LCALL     ?Subroutine144 & 0xFFFF
   \                     ??CrossCallReturnLabel_247:
   \   000003   A3           INC       DPTR
   \   000004   A3           INC       DPTR
   \   000005   22           RET

   \                                 In  segment BANKED_CODE, align 1, keep-with-next
   \                     ?Subroutine144:
   \   000000   12....       LCALL     ?Subroutine173 & 0xFFFF
   \                     ??CrossCallReturnLabel_288:
   \   000003   A3           INC       DPTR
   \   000004   22           RET
    875          
    876          /*********************************************************************
    877           * @fn          zcl_registerClusterOptionList
    878           *
    879           * @brief       Register a Cluster Option List with ZCL Foundation
    880           *
    881           * @param       endpoint - endpoint the option list belongs to
    882           * @param       numOption - number of options in list
    883           * @param       optionList - array of cluster option records.
    884           *
    885           *              NOTE: This API should be called to enable 'Application
    886           *                    Link Key' security and/or 'APS ACK' for a specific
    887           *                    Cluster. The 'Application Link Key' is discarded
    888           *                    if security isn't enabled on the device.
    889           *                    The default behavior is 'Network Key' when security
    890           *                    is enabled and no 'APS ACK' for the ZCL messages.
    891           *
    892           * @return      ZSuccess if OK
    893           */

   \                                 In  segment BANKED_CODE, align 1, keep-with-next
    894          ZStatus_t zcl_registerClusterOptionList( uint8 endpoint, uint8 numOption, zclOptionRec_t optionList[] )
   \                     zcl_registerClusterOptionList:
    895          {
   \   000000                REQUIRE ?V0
   \   000000                REQUIRE ?V1
   \   000000                REQUIRE ?V2
   \   000000                REQUIRE ?V3
   \   000000   74F4         MOV       A,#-0xc
   \   000002   12....       LCALL     ?BANKED_ENTER_XDATA
   \   000005                ; Saved register size: 12
   \   000005                ; Auto size: 0
   \   000005   12....       LCALL     ?Subroutine116 & 0xFFFF
    896            zclClusterOptionList *pNewItem;
    897            zclClusterOptionList *pLoop;
    898          
    899            // Fill in the new profile list
    900            pNewItem = zcl_mem_alloc( sizeof( zclClusterOptionList ) );
    901            if ( pNewItem == NULL )
   \                     ??CrossCallReturnLabel_293:
   \   000008   7004         JNZ       ??zcl_registerClusterOptionList_0
    902            {
    903              return (ZMemError);
   \   00000A   7910         MOV       R1,#0x10
   \   00000C   8022         SJMP      ??CrossCallReturnLabel_26
    904            }
    905          
    906            pNewItem->next = (zclClusterOptionList *)NULL;
   \                     ??zcl_registerClusterOptionList_0:
   \   00000E   12....       LCALL     ?Subroutine12 & 0xFFFF
    907            pNewItem->endpoint = endpoint;
    908            pNewItem->numOptions = numOption;
    909            pNewItem->options = optionList;
    910          
    911            // Find spot in list
    912            if ( clusterOptionList == NULL )
   \                     ??CrossCallReturnLabel_1:
   \   000011   90....       MOV       DPTR,#clusterOptionList
   \   000014   12....       LCALL     ??Subroutine185_0 & 0xFFFF
   \                     ??CrossCallReturnLabel_314:
   \   000017   90....       MOV       DPTR,#clusterOptionList
   \   00001A   6011         JZ        ??zcl_registerClusterOptionList_1
    913            {
    914              clusterOptionList = pNewItem;
    915            }
    916            else
    917            {
    918              // Look for end of list
    919              pLoop = clusterOptionList;
   \   00001C   12....       LCALL     ?Subroutine109 & 0xFFFF
   \                     ??CrossCallReturnLabel_193:
   \   00001F   8003         SJMP      ??zcl_registerClusterOptionList_2
    920              while ( pLoop->next != NULL )
    921              {
    922                pLoop = pLoop->next;
   \                     ??zcl_registerClusterOptionList_3:
   \   000021   EA           MOV       A,R2
   \   000022   FC           MOV       R4,A
   \   000023   EB           MOV       A,R3
    923              }
   \                     ??zcl_registerClusterOptionList_2:
   \   000024   12....       LCALL     ?Subroutine44 & 0xFFFF
   \                     ??CrossCallReturnLabel_308:
   \   000027   70F8         JNZ       ??zcl_registerClusterOptionList_3
    924          
    925              // Put new item at end of list
    926              pLoop->next = pNewItem;
   \   000029   8C82         MOV       DPL,R4
   \   00002B   8D83         MOV       DPH,R5
    927            }
   \                     ??zcl_registerClusterOptionList_1:
   \   00002D   12....       LCALL     ?Subroutine25 & 0xFFFF
    928          
    929            return ( ZSuccess );
   \                     ??CrossCallReturnLabel_26:
   \   000030   02....       LJMP      ??Subroutine180_0 & 0xFFFF
    930          }
    931          
    932          /*********************************************************************
    933           * @fn          zcl_registerValidateAttrData
    934           *
    935           * @brief       Add a validation function for attribute data
    936           *
    937           * @param       pfnValidateAttrData - function pointer to validate routine
    938           *
    939           * @return      ZSuccess if OK
    940           */

   \                                 In  segment BANKED_CODE, align 1, keep-with-next
    941          ZStatus_t zcl_registerValidateAttrData( zclValidateAttrData_t pfnValidateAttrData )
   \                     zcl_registerValidateAttrData:
    942          {
   \   000000   C082         PUSH      DPL
   \   000002   C083         PUSH      DPH
   \   000004                ; Saved register size: 2
   \   000004                ; Auto size: 0
    943            zcl_ValidateAttrDataCB = pfnValidateAttrData;
   \   000004   90....       MOV       DPTR,#zcl_ValidateAttrDataCB
   \   000007   12....       LCALL     ??Subroutine234_0 & 0xFFFF
    944          
    945            return ( ZSuccess );
   \                     ??CrossCallReturnLabel_585:
   \   00000A   7900         MOV       R1,#0x0
   \   00000C   02....       LJMP      ?Subroutine0 & 0xFFFF
    946          }
    947          
    948          /*********************************************************************
    949           * @fn          zcl_registerReadWriteCB
    950           *
    951           * @brief       Register the application's callback function to read/write
    952           *              attribute data, and authorize read/write operation.
    953           *
    954           *              Note: The pfnReadWriteCB callback function is only required
    955           *                    when the attribute data format is unknown to ZCL. The
    956           *                    callback function gets called when the pointer 'dataPtr'
    957           *                    to the attribute value is NULL in the attribute database
    958           *                    registered with the ZCL.
    959           *
    960           *              Note: The pfnAuthorizeCB callback function is only required
    961           *                    when the Read/Write operation on an attribute requires
    962           *                    authorization (i.e., attributes with ACCESS_CONTROL_AUTH_READ
    963           *                    or ACCESS_CONTROL_AUTH_WRITE access permissions).
    964           *
    965           * @param       endpoint - application's endpoint
    966           * @param       pfnReadWriteCB - function pointer to read/write routine
    967           * @param       pfnAuthorizeCB - function pointer to authorize read/write operation
    968           *
    969           * @return      ZSuccess if successful. ZFailure, otherwise.
    970           */

   \                                 In  segment BANKED_CODE, align 1, keep-with-next
    971          ZStatus_t zcl_registerReadWriteCB( uint8 endpoint, zclReadWriteCB_t pfnReadWriteCB,
   \                     zcl_registerReadWriteCB:
    972                                             zclAuthorizeCB_t pfnAuthorizeCB )
    973          {
   \   000000                REQUIRE ?V0
   \   000000                REQUIRE ?V1
   \   000000                REQUIRE ?V2
   \   000000                REQUIRE ?V4
   \   000000                REQUIRE ?V5
   \   000000   74F2         MOV       A,#-0xe
   \   000002   12....       LCALL     ?BANKED_ENTER_XDATA
   \   000005                ; Saved register size: 14
   \   000005                ; Auto size: 0
   \   000005   EA           MOV       A,R2
   \   000006   FE           MOV       R6,A
   \   000007   EB           MOV       A,R3
   \   000008   FF           MOV       R7,A
   \   000009   8C..         MOV       ?V0,R4
   \   00000B   8D..         MOV       ?V1,R5
    974            zclAttrRecsList *pRec = zclFindAttrRecsList( endpoint );
   \   00000D                ; Setup parameters for call to function zclFindAttrRecsList
   \   00000D   12....       LCALL     `??zclFindAttrRecsList::?relay`; Banked call to: zclFindAttrRecsList
   \   000010   8B..         MOV       ?V5,R3
   \   000012   A9..         MOV       R1,?V5
    975          
    976            if ( pRec != NULL )
   \   000014   EA           MOV       A,R2
   \   000015   49           ORL       A,R1
   \   000016   6019         JZ        ??zcl_registerReadWriteCB_0
    977            {
    978              pRec->pfnReadWriteCB = pfnReadWriteCB;
   \   000018   8A82         MOV       DPL,R2
   \   00001A   8B83         MOV       DPH,R3
   \   00001C   A3           INC       DPTR
   \   00001D   A3           INC       DPTR
   \   00001E   A3           INC       DPTR
   \   00001F   EE           MOV       A,R6
   \   000020   F0           MOVX      @DPTR,A
   \   000021   A3           INC       DPTR
   \   000022   EF           MOV       A,R7
   \   000023   12....       LCALL     ?Subroutine30 & 0xFFFF
    979              pRec->pfnAuthorizeCB = pfnAuthorizeCB;
   \                     ??CrossCallReturnLabel_36:
   \   000026   E5..         MOV       A,?V0
   \   000028   F0           MOVX      @DPTR,A
   \   000029   A3           INC       DPTR
   \   00002A   E5..         MOV       A,?V1
   \   00002C   F0           MOVX      @DPTR,A
    980          
    981              return ( ZSuccess );
   \   00002D   7900         MOV       R1,#0x0
   \   00002F   8002         SJMP      ??zcl_registerReadWriteCB_1
    982            }
    983          
    984            return ( ZFailure );
   \                     ??zcl_registerReadWriteCB_0:
   \   000031   7901         MOV       R1,#0x1
   \                     ??zcl_registerReadWriteCB_1:
   \   000033   02....       LJMP      ?Subroutine4 & 0xFFFF
    985          }

   \                                 In  segment BANKED_CODE, align 1, keep-with-next
   \                     ?Subroutine30:
   \   000000   12....       LCALL     ?Subroutine144 & 0xFFFF
   \                     ??CrossCallReturnLabel_248:
   \   000003   22           RET

   \                                 In  segment BANKED_CODE, align 1, keep-with-next
   \                     ?Subroutine4:
   \   000000   7F06         MOV       R7,#0x6
   \   000002   02....       LJMP      ?BANKED_LEAVE_XDATA
    986          
    987          /*********************************************************************
    988           * @fn      zcl_DeviceOperational
    989           *
    990           * @brief   Used to see whether or not the device can send or respond
    991           *          to application level commands.
    992           *
    993           * @param   srcEP - source endpoint
    994           * @param   clusterID - cluster ID
    995           * @param   frameType - command type
    996           * @param   cmd - command ID
    997           *
    998           * @return  TRUE if device is operational, FALSE otherwise
    999           */

   \                                 In  segment BANKED_CODE, align 1, keep-with-next
   \                     ?Subroutine1:
   \   000000   12....       LCALL     ?DEALLOC_XSTACK8
   \   000003                REQUIRE ??Subroutine180_0
   \   000003                ; // Fall through to label ??Subroutine180_0

   \                                 In  segment BANKED_CODE, align 1, keep-with-next
   1000          static uint8 zcl_DeviceOperational( uint8 srcEP, uint16 clusterID,
   \                     zcl_DeviceOperational:
   1001                                              uint8 frameType, uint8 cmd, uint16 profileID )
   1002          {
   \   000000                REQUIRE ?V0
   \   000000                REQUIRE ?V2
   \   000000                REQUIRE ?V3
   \   000000   74F4         MOV       A,#-0xc
   \   000002   12....       LCALL     ?BANKED_ENTER_XDATA
   \   000005                ; Saved register size: 12
   \   000005                ; Auto size: 9
   \   000005   74F7         MOV       A,#-0x9
   \   000007   12....       LCALL     ?ALLOC_XSTACK8
   \   00000A   E9           MOV       A,R1
   \   00000B   FE           MOV       R6,A
   1003            zclAttrRec_t attrRec;
   1004            uint8 deviceEnabled = DEVICE_ENABLED; // default value
   \   00000C   85..82       MOV       DPL,?XSP + 0
   \   00000F   85..83       MOV       DPH,?XSP + 1
   \   000012   7401         MOV       A,#0x1
   \   000014   F0           MOVX      @DPTR,A
   1005          
   1006            (void)profileID;  // Intentionally unreferenced parameter
   1007          
   1008            // If the device is Disabled (DeviceEnabled attribute is set to Disabled), it
   1009            // cannot send or respond to application level commands, other than commands
   1010            // to read or write attributes. Note that the Identify cluster cannot be
   1011            // disabled, and remains functional regardless of this setting.
   1012            if ( zcl_ProfileCmd( frameType ) && cmd <= ZCL_CMD_WRITE_NO_RSP )
   \   000015   EC           MOV       A,R4
   \   000016   7006         JNZ       ??zcl_DeviceOperational_0
   \   000018   ED           MOV       A,R5
   \   000019   C3           CLR       C
   \   00001A   9406         SUBB      A,#0x6
   \   00001C   404D         JC        ??zcl_DeviceOperational_1
   1013            {
   1014              return ( TRUE );
   1015            }
   1016          
   1017            if ( clusterID == ZCL_CLUSTER_ID_GEN_IDENTIFY )
   \                     ??zcl_DeviceOperational_0:
   \   00001E   7403         MOV       A,#0x3
   \   000020   6A           XRL       A,R2
   \   000021   4B           ORL       A,R3
   \   000022   6047         JZ        ??zcl_DeviceOperational_1
   1018            {
   1019              return ( TRUE );
   1020            }
   1021          
   1022            // Is device enabled?
   1023            if ( zclFindAttrRec( srcEP, ZCL_CLUSTER_ID_GEN_BASIC,
   1024                                 ATTRID_BASIC_DEVICE_ENABLED, &attrRec ) )
   \   000024                ; Setup parameters for call to function zclFindAttrRec
   \   000024   7401         MOV       A,#0x1
   \   000026   12....       LCALL     ?XSTACK_DISP100_8
   \   000029   88..         MOV       ?V2,R0
   \   00002B   89..         MOV       ?V3,R1
   \   00002D   78..         MOV       R0,#?V2
   \   00002F   12....       LCALL     ?PUSH_XSTACK_I_TWO
   \   000032   7C12         MOV       R4,#0x12
   \   000034   7D00         MOV       R5,#0x0
   \   000036   7A00         MOV       R2,#0x0
   \   000038   7B00         MOV       R3,#0x0
   \   00003A   EE           MOV       A,R6
   \   00003B   12....       LCALL     ?Subroutine128 & 0xFFFF
   \                     ??CrossCallReturnLabel_296:
   \   00003E   12....       LCALL     ?DEALLOC_XSTACK8
   \   000041   E9           MOV       A,R1
   \   000042   601C         JZ        ??zcl_DeviceOperational_2
   1025            {
   1026          #ifdef ZCL_READ
   1027              zclReadAttrData( &deviceEnabled, &attrRec, NULL );
   \   000044                ; Setup parameters for call to function zclReadAttrData
   \   000044   E4           CLR       A
   \   000045   F5..         MOV       ?V2,A
   \   000047   F5..         MOV       ?V3,A
   \   000049   78..         MOV       R0,#?V2
   \   00004B   12....       LCALL     ?PUSH_XSTACK_I_TWO
   \   00004E   7403         MOV       A,#0x3
   \   000050   12....       LCALL     ?XSTACK_DISP102_8
   \   000053   7402         MOV       A,#0x2
   \   000055   12....       LCALL     ?XSTACK_DISP101_8
   \   000058   12....       LCALL     `??zclReadAttrData::?relay`; Banked call to: zclReadAttrData
   \   00005B   7402         MOV       A,#0x2
   \   00005D   12....       LCALL     ?DEALLOC_XSTACK8
   1028          #endif
   1029            }
   1030          
   1031            return ( deviceEnabled == DEVICE_ENABLED ? TRUE : FALSE );
   \                     ??zcl_DeviceOperational_2:
   \   000060   85..82       MOV       DPL,?XSP + 0
   \   000063   85..83       MOV       DPH,?XSP + 1
   \   000066   E0           MOVX      A,@DPTR
   \   000067   6401         XRL       A,#0x1
   \   000069   7004         JNZ       ??zcl_DeviceOperational_3
   \                     ??zcl_DeviceOperational_1:
   \   00006B   7901         MOV       R1,#0x1
   \   00006D   8002         SJMP      ??zcl_DeviceOperational_4
   \                     ??zcl_DeviceOperational_3:
   \   00006F   7900         MOV       R1,#0x0
   \                     ??zcl_DeviceOperational_4:
   \   000071   7409         MOV       A,#0x9
   \   000073   02....       LJMP      ?Subroutine1 & 0xFFFF
   1032          }

   \                                 In  segment BANKED_CODE, align 1, keep-with-next
   \                     ?Subroutine128:
   \   000000   F9           MOV       R1,A
   \   000001                REQUIRE ??Subroutine181_0
   \   000001                ; // Fall through to label ??Subroutine181_0

   \                                 In  segment BANKED_CODE, align 1, keep-with-next
   \                     ??Subroutine181_0:
   \   000000   12....       LCALL     `??zclFindAttrRec::?relay`; Banked call to: zclFindAttrRec
   \   000003   7402         MOV       A,#0x2
   \   000005   22           RET
   1033          
   1034          /*********************************************************************
   1035           * @fn      zcl_SendCommand
   1036           *
   1037           * @brief   Used to send Profile and Cluster Specific Command messages.
   1038           *
   1039           *          NOTE: The calling application is responsible for incrementing
   1040           *                the Sequence Number.
   1041           *
   1042           * @param   srcEp - source endpoint
   1043           * @param   destAddr - destination address
   1044           * @param   clusterID - cluster ID
   1045           * @param   cmd - command ID
   1046           * @param   specific - whether the command is Cluster Specific
   1047           * @param   direction - client/server direction of the command
   1048           * @param   disableDefaultRsp - disable Default Response command
   1049           * @param   manuCode - manufacturer code for proprietary extensions to a profile
   1050           * @param   seqNumber - identification number for the transaction
   1051           * @param   cmdFormatLen - length of the command to be sent
   1052           * @param   cmdFormat - command to be sent
   1053           *
   1054           * @return  ZSuccess if OK
   1055           */

   \                                 In  segment BANKED_CODE, align 1, keep-with-next
   1056          ZStatus_t zcl_SendCommand( uint8 srcEP, afAddrType_t *destAddr,
   \                     zcl_SendCommand:
   1057                                     uint16 clusterID, uint8 cmd, uint8 specific, uint8 direction,
   1058                                     uint8 disableDefaultRsp, uint16 manuCode, uint8 seqNum,
   1059                                     uint16 cmdFormatLen, uint8 *cmdFormat )
   1060          {
   \   000000                REQUIRE ?V0
   \   000000                REQUIRE ?V1
   \   000000                REQUIRE ?V2
   \   000000                REQUIRE ?V3
   \   000000                REQUIRE ?V4
   \   000000                REQUIRE ?V5
   \   000000                REQUIRE ?V6
   \   000000                REQUIRE ?V7
   \   000000                REQUIRE ?V8
   \   000000                REQUIRE ?V9
   \   000000                REQUIRE ?V10
   \   000000                REQUIRE ?V12
   \   000000                REQUIRE ?V13
   \   000000                REQUIRE ?V14
   \   000000                REQUIRE ?V15
   \   000000   74E8         MOV       A,#-0x18
   \   000002   12....       LCALL     ?BANKED_ENTER_XDATA
   \   000005                ; Saved register size: 24
   \   000005                ; Auto size: 6
   \   000005   74FA         MOV       A,#-0x6
   \   000007   12....       LCALL     ?ALLOC_XSTACK8
   \   00000A   89..         MOV       ?V10,R1
   \   00000C   8A..         MOV       ?V14,R2
   \   00000E   8B..         MOV       ?V15,R3
   \   000010   8C..         MOV       ?V0,R4
   \   000012   8D..         MOV       ?V1,R5
   1061            endPointDesc_t *epDesc;
   1062            zclFrameHdr_t hdr;
   1063            uint8 *msgBuf;
   1064            uint16 msgLen;
   1065            uint8 *pBuf;
   1066            uint8 options;
   1067            ZStatus_t status;
   1068          
   1069            epDesc = afFindEndPointDesc( srcEP );
   \   000014                ; Setup parameters for call to function afFindEndPointDesc
   \   000014   12....       LCALL     `??afFindEndPointDesc::?relay`; Banked call to: afFindEndPointDesc
   \   000017   8A..         MOV       ?V12,R2
   \   000019   8B..         MOV       ?V13,R3
   1070            if ( epDesc == NULL )
   \   00001B   EA           MOV       A,R2
   \   00001C   4B           ORL       A,R3
   \   00001D   7005         JNZ       ??zcl_SendCommand_0
   1071            {
   1072              return ( ZInvalidParameter ); // EMBEDDED RETURN
   \   00001F   7902         MOV       R1,#0x2
   \   000021   02....       LJMP      ??zcl_SendCommand_1 & 0xFFFF
   1073            }
   1074          
   1075          #if defined ( INTER_PAN )
   1076            if ( StubAPS_InterPan( destAddr->panId, destAddr->endPoint ) )
   1077            {
   1078              options = AF_TX_OPTIONS_NONE;
   1079            }
   1080            else
   1081          #endif
   1082            {
   1083              options = zclGetClusterOption( srcEP, clusterID );
   \                     ??zcl_SendCommand_0:
   \   000024                ; Setup parameters for call to function zclGetClusterOption
   \   000024   AA..         MOV       R2,?V0
   \   000026   AB..         MOV       R3,?V1
   \   000028   A9..         MOV       R1,?V10
   \   00002A   12....       LCALL     `??zclGetClusterOption::?relay`; Banked call to: zclGetClusterOption
   \   00002D   E9           MOV       A,R1
   \   00002E   F5..         MOV       ?V7,A
   1084          
   1085              // The cluster might not have been defined to use security but if this message
   1086              // is in response to another message that was using APS security this message
   1087              // will be sent with APS security
   1088              if ( !( options & AF_EN_SECURITY ) )
   \   000030   A2E6         MOV       C,0xE0 /* A   */.6
   \   000032   401C         JC        ??zcl_SendCommand_2
   1089              {
   1090                afIncomingMSGPacket_t *origPkt = zcl_getRawAFMsg();
   \   000034   90....       MOV       DPTR,#rawAFMsg
   \   000037   12....       LCALL     ??Subroutine196_0 & 0xFFFF
   1091          
   1092                if ( ( origPkt != NULL ) && ( origPkt->SecurityUse == TRUE ) )
   \                     ??CrossCallReturnLabel_349:
   \   00003A   6014         JZ        ??zcl_SendCommand_2
   \   00003C   E8           MOV       A,R0
   \   00003D   2419         ADD       A,#0x19
   \   00003F   F582         MOV       DPL,A
   \   000041   E4           CLR       A
   \   000042   39           ADDC      A,R1
   \   000043   F583         MOV       DPH,A
   \   000045   E0           MOVX      A,@DPTR
   \   000046   6401         XRL       A,#0x1
   \   000048   7006         JNZ       ??zcl_SendCommand_2
   1093                {
   1094                  options |= AF_EN_SECURITY;
   \   00004A   E5..         MOV       A,?V7
   \   00004C   D2E6         SETB      0xE0 /* A   */.6
   \   00004E   F5..         MOV       ?V7,A
   1095                }
   1096              }
   1097            }
   1098          
   1099            zcl_memset( &hdr, 0, sizeof( zclFrameHdr_t ) );
   \                     ??zcl_SendCommand_2:
   \   000050                ; Setup parameters for call to function osal_memset
   \   000050   7C06         MOV       R4,#0x6
   \   000052   7D00         MOV       R5,#0x0
   \   000054   7900         MOV       R1,#0x0
   \   000056   AA..         MOV       R2,?XSP + 0
   \   000058   AB..         MOV       R3,?XSP + 1
   \   00005A   12....       LCALL     `??osal_memset::?relay`; Banked call to: osal_memset
   1100          
   1101            // Not Profile wide command (like READ, WRITE)
   1102            if ( specific )
   \   00005D   741F         MOV       A,#0x1f
   \   00005F   12....       LCALL     ?XSTACK_DISP0_8
   \   000062   12....       LCALL     ?Subroutine111 & 0xFFFF
   \                     ??CrossCallReturnLabel_198:
   \   000065   6009         JZ        ??zcl_SendCommand_3
   1103            {
   1104              hdr.fc.type = ZCL_FRAME_TYPE_SPECIFIC_CMD;
   \   000067   E0           MOVX      A,@DPTR
   \   000068   54FC         ANL       A,#0xfc
   \   00006A   F0           MOVX      @DPTR,A
   \   00006B   E0           MOVX      A,@DPTR
   \   00006C   4401         ORL       A,#0x1
   \   00006E   8003         SJMP      ??zcl_SendCommand_4
   1105            }
   1106            else
   1107            {
   1108              hdr.fc.type = ZCL_FRAME_TYPE_PROFILE_CMD;
   \                     ??zcl_SendCommand_3:
   \   000070   E0           MOVX      A,@DPTR
   \   000071   54FC         ANL       A,#0xfc
   1109            }
   \                     ??zcl_SendCommand_4:
   \   000073   12....       LCALL     ?Subroutine38 & 0xFFFF
   1110          
   1111            if ( ( epDesc->simpleDesc == NULL ) ||
   1112                 ( zcl_DeviceOperational( srcEP, clusterID, hdr.fc.type,
   1113                                          cmd, epDesc->simpleDesc->AppProfId ) == FALSE ) )
   \                     ??CrossCallReturnLabel_49:
   \   000076   A3           INC       DPTR
   \   000077   12....       LCALL     ??Subroutine195_0 & 0xFFFF
   \                     ??CrossCallReturnLabel_360:
   \   00007A   602B         JZ        ??zcl_SendCommand_5
   \   00007C   741E         MOV       A,#0x1e
   \   00007E   12....       LCALL     ?XSTACK_DISP0_8
   \   000081   E0           MOVX      A,@DPTR
   \   000082   FE           MOV       R6,A
   \   000083                ; Setup parameters for call to function zcl_DeviceOperational
   \   000083   8882         MOV       DPL,R0
   \   000085   8983         MOV       DPH,R1
   \   000087   A3           INC       DPTR
   \   000088   12....       LCALL     ?PUSH_XSTACK8_X_TWO
   \   00008B   EE           MOV       A,R6
   \   00008C   FD           MOV       R5,A
   \   00008D   7402         MOV       A,#0x2
   \   00008F   12....       LCALL     ?XSTACK_DISP0_8
   \   000092   E0           MOVX      A,@DPTR
   \   000093   5403         ANL       A,#0x3
   \   000095   FC           MOV       R4,A
   \   000096   AA..         MOV       R2,?V0
   \   000098   AB..         MOV       R3,?V1
   \   00009A   A9..         MOV       R1,?V10
   \   00009C   12....       LCALL     `??zcl_DeviceOperational::?relay`; Banked call to: zcl_DeviceOperational
   \   00009F   7402         MOV       A,#0x2
   \   0000A1   12....       LCALL     ?DEALLOC_XSTACK8
   \   0000A4   E9           MOV       A,R1
   \   0000A5   7005         JNZ       ??zcl_SendCommand_6
   1114            {
   1115              return ( ZFailure ); // EMBEDDED RETURN
   \                     ??zcl_SendCommand_5:
   \   0000A7   7901         MOV       R1,#0x1
   \   0000A9   02....       LJMP      ??zcl_SendCommand_1 & 0xFFFF
   1116            }
   \                     ??zcl_SendCommand_6:
   \   0000AC   7422         MOV       A,#0x22
   \   0000AE   12....       LCALL     ?XSTACK_DISP0_8
   \   0000B1   12....       LCALL     ??Subroutine196_0 & 0xFFFF
   1117          
   1118            // Fill in the Maufacturer Code
   1119            if ( manuCode != 0 )
   \                     ??CrossCallReturnLabel_350:
   \   0000B4   6012         JZ        ??CrossCallReturnLabel_365
   1120            {
   1121              hdr.fc.manuSpecific = 1;
   \   0000B6   85..82       MOV       DPL,?XSP + 0
   \   0000B9   85..83       MOV       DPH,?XSP + 1
   \   0000BC   E0           MOVX      A,@DPTR
   \   0000BD   4404         ORL       A,#0x4
   \   0000BF   F0           MOVX      @DPTR,A
   1122              hdr.manuCode = manuCode;
   \   0000C0   7402         MOV       A,#0x2
   \   0000C2   12....       LCALL     ?XSTACK_DISP0_8
   \   0000C5   12....       LCALL     ??Subroutine197_0 & 0xFFFF
   1123            }
   1124          
   1125            // Set the Command Direction
   1126            if ( direction )
   \                     ??CrossCallReturnLabel_365:
   \   0000C8   7420         MOV       A,#0x20
   \   0000CA   12....       LCALL     ?XSTACK_DISP0_8
   \   0000CD   12....       LCALL     ?Subroutine111 & 0xFFFF
   \                     ??CrossCallReturnLabel_199:
   \   0000D0   6005         JZ        ??zcl_SendCommand_7
   1127            {
   1128              hdr.fc.direction = ZCL_FRAME_SERVER_CLIENT_DIR;
   \   0000D2   E0           MOVX      A,@DPTR
   \   0000D3   4408         ORL       A,#0x8
   \   0000D5   8003         SJMP      ??zcl_SendCommand_8
   1129            }
   1130            else
   1131            {
   1132              hdr.fc.direction = ZCL_FRAME_CLIENT_SERVER_DIR;
   \                     ??zcl_SendCommand_7:
   \   0000D7   E0           MOVX      A,@DPTR
   \   0000D8   54F7         ANL       A,#0xf7
   \                     ??zcl_SendCommand_8:
   \   0000DA   F0           MOVX      @DPTR,A
   1133            }
   1134          
   1135            // Set the Disable Default Response field
   1136            if ( disableDefaultRsp )
   \   0000DB   7421         MOV       A,#0x21
   \   0000DD   12....       LCALL     ?XSTACK_DISP0_8
   \   0000E0   12....       LCALL     ?Subroutine111 & 0xFFFF
   \                     ??CrossCallReturnLabel_200:
   \   0000E3   6005         JZ        ??zcl_SendCommand_9
   1137            {
   1138              hdr.fc.disableDefaultRsp = 1;
   \   0000E5   E0           MOVX      A,@DPTR
   \   0000E6   4410         ORL       A,#0x10
   \   0000E8   8003         SJMP      ??zcl_SendCommand_10
   1139            }
   1140            else
   1141            {
   1142              hdr.fc.disableDefaultRsp = 0;
   \                     ??zcl_SendCommand_9:
   \   0000EA   E0           MOVX      A,@DPTR
   \   0000EB   54EF         ANL       A,#0xef
   \                     ??zcl_SendCommand_10:
   \   0000ED   F0           MOVX      @DPTR,A
   1143            }
   1144          
   1145            // Fill in the Transaction Sequence Number
   1146            hdr.transSeqNum = seqNum;
   \   0000EE   7424         MOV       A,#0x24
   \   0000F0   12....       LCALL     ?XSTACK_DISP0_8
   \   0000F3   E0           MOVX      A,@DPTR
   \   0000F4   C0E0         PUSH      A
   \   0000F6   7404         MOV       A,#0x4
   \   0000F8   12....       LCALL     ?XSTACK_DISP0_8
   \   0000FB   D0E0         POP       A
   \   0000FD   F0           MOVX      @DPTR,A
   1147          
   1148            // Fill in the command
   1149            hdr.commandID = cmd;
   \   0000FE   7405         MOV       A,#0x5
   \   000100   12....       LCALL     ?XSTACK_DISP0_8
   \   000103   EE           MOV       A,R6
   \   000104   F0           MOVX      @DPTR,A
   1150          
   1151            // calculate the needed buffer size
   1152            msgLen = zclCalcHdrSize( &hdr );
   \   000105   7803         MOV       R0,#0x3
   \   000107   85..82       MOV       DPL,?XSP + 0
   \   00010A   85..83       MOV       DPH,?XSP + 1
   \   00010D   E0           MOVX      A,@DPTR
   \   00010E   5404         ANL       A,#0x4
   \   000110   6002         JZ        ??zcl_SendCommand_11
   \   000112   7805         MOV       R0,#0x5
   \                     ??zcl_SendCommand_11:
   \   000114   7425         MOV       A,#0x25
   \   000116   12....       LCALL     ?XSTACK_DISP0_8
   \   000119   12....       LCALL     ??Subroutine210_0 & 0xFFFF
   1153            msgLen += cmdFormatLen;
   \                     ??CrossCallReturnLabel_464:
   \   00011C   E8           MOV       A,R0
   \   00011D   25..         ADD       A,?V8
   \   00011F   FE           MOV       R6,A
   \   000120   E4           CLR       A
   \   000121   35..         ADDC      A,?V9
   \   000123   FF           MOV       R7,A
   1154          
   1155            // Allocate the buffer needed
   1156            msgBuf = zcl_mem_alloc( msgLen );
   \   000124                ; Setup parameters for call to function osal_mem_alloc
   \   000124   EE           MOV       A,R6
   \   000125   FA           MOV       R2,A
   \   000126   EF           MOV       A,R7
   \   000127   FB           MOV       R3,A
   \   000128   12....       LCALL     `??osal_mem_alloc::?relay`; Banked call to: osal_mem_alloc
   \   00012B   8A..         MOV       ?V2,R2
   \   00012D   8B..         MOV       ?V3,R3
   1157            if ( msgBuf != NULL )
   \   00012F   EA           MOV       A,R2
   \   000130   4B           ORL       A,R3
   \   000131   6063         JZ        ??zcl_SendCommand_12
   1158            {
   1159              // Fill in the ZCL Header
   1160              pBuf = zclBuildHdr( &hdr, msgBuf );
   \   000133                ; Setup parameters for call to function zclBuildHdr
   \   000133   AC..         MOV       R4,?V2
   \   000135   AD..         MOV       R5,?V3
   \   000137   AA..         MOV       R2,?XSP + 0
   \   000139   AB..         MOV       R3,?XSP + 1
   \   00013B   12....       LCALL     `??zclBuildHdr::?relay`; Banked call to: zclBuildHdr
   1161          
   1162              // Fill in the command frame
   1163              zcl_memcpy( pBuf, cmdFormat, cmdFormatLen );
   \   00013E                ; Setup parameters for call to function osal_memcpy
   \   00013E   7427         MOV       A,#0x27
   \   000140   12....       LCALL     ?XSTACK_DISP0_8
   \   000143   12....       LCALL     ?Subroutine54 & 0xFFFF
   \                     ??CrossCallReturnLabel_68:
   \   000146   12....       LCALL     ?PUSH_XSTACK_I_THREE
   \   000149   AC..         MOV       R4,?V8
   \   00014B   AD..         MOV       R5,?V9
   \   00014D   12....       LCALL     ??Subroutine200_0 & 0xFFFF
   \                     ??CrossCallReturnLabel_383:
   \   000150   12....       LCALL     ?DEALLOC_XSTACK8
   1164          
   1165              status = AF_DataRequest( destAddr, epDesc, clusterID, msgLen, msgBuf,
   1166                                       &zcl_TransID, options, AF_DEFAULT_RADIUS );
   \   000153                ; Setup parameters for call to function AF_DataRequest
   \   000153   75..1E       MOV       ?V4,#0x1e
   \   000156   78..         MOV       R0,#?V4
   \   000158   12....       LCALL     ?PUSH_XSTACK_I_ONE
   \   00015B   75....       MOV       ?V4,#zcl_TransID & 0xff
   \   00015E   75....       MOV       ?V5,#(zcl_TransID >> 8) & 0xff
   \   000161   78..         MOV       R0,#?V4
   \   000163   12....       LCALL     ?PUSH_XSTACK_I_TWO
   \   000166   78..         MOV       R0,#?V2
   \   000168   12....       LCALL     ?PUSH_XSTACK_I_TWO
   \   00016B   8E..         MOV       ?V4,R6
   \   00016D   8F..         MOV       ?V5,R7
   \   00016F   78..         MOV       R0,#?V4
   \   000171   12....       LCALL     ?PUSH_XSTACK_I_TWO
   \   000174   78..         MOV       R0,#?V0
   \   000176   12....       LCALL     ?PUSH_XSTACK_I_TWO
   \   000179   A9..         MOV       R1,?V7
   \   00017B   AC..         MOV       R4,?V12
   \   00017D   AD..         MOV       R5,?V13
   \   00017F   AA..         MOV       R2,?V14
   \   000181   AB..         MOV       R3,?V15
   \   000183   12....       LCALL     `??AF_DataRequest::?relay`; Banked call to: AF_DataRequest
   \   000186   7409         MOV       A,#0x9
   \   000188   12....       LCALL     ?DEALLOC_XSTACK8
   \   00018B   E9           MOV       A,R1
   \   00018C   FE           MOV       R6,A
   1167              zcl_mem_free ( msgBuf );
   \   00018D                ; Setup parameters for call to function osal_mem_free
   \   00018D   AA..         MOV       R2,?V2
   \   00018F   AB..         MOV       R3,?V3
   \   000191   12....       LCALL     `??osal_mem_free::?relay`; Banked call to: osal_mem_free
   \   000194   8002         SJMP      ??zcl_SendCommand_13
   1168            }
   1169            else
   1170            {
   1171              status = ZMemError;
   \                     ??zcl_SendCommand_12:
   \   000196   7E10         MOV       R6,#0x10
   1172            }
   1173          
   1174            return ( status );
   \                     ??zcl_SendCommand_13:
   \   000198   EE           MOV       A,R6
   \   000199   F9           MOV       R1,A
   \                     ??zcl_SendCommand_1:
   \   00019A   7406         MOV       A,#0x6
   \   00019C   02....       LJMP      ?Subroutine5 & 0xFFFF
   1175          }

   \                                 In  segment BANKED_CODE, align 1, keep-with-next
   \                     ?Subroutine111:
   \   000000   12....       LCALL     ?Subroutine175 & 0xFFFF
   \                     ??CrossCallReturnLabel_290:
   \   000003   22           RET

   \                                 In  segment BANKED_CODE, align 1, keep-with-next
   \                     ?Subroutine175:
   \   000000   E0           MOVX      A,@DPTR
   \   000001   85..82       MOV       DPL,?XSP + 0
   \   000004   85..83       MOV       DPH,?XSP + 1
   \   000007   22           RET

   \                                 In  segment BANKED_CODE, align 1, keep-with-next
   \                     ?Subroutine38:
   \   000000   12....       LCALL     ?Subroutine146 & 0xFFFF
   \                     ??CrossCallReturnLabel_250:
   \   000003   22           RET

   \                                 In  segment BANKED_CODE, align 1, keep-with-next
   \                     ?Subroutine146:
   \   000000   F0           MOVX      @DPTR,A
   \   000001   85..82       MOV       DPL,?V12
   \   000004   85..83       MOV       DPH,?V13
   \   000007   A3           INC       DPTR
   \   000008   22           RET

   \                                 In  segment BANKED_CODE, align 1, keep-with-next
   \                     ??Subroutine195_0:
   \   000000   A3           INC       DPTR
   \   000001   A3           INC       DPTR
   \   000002                REQUIRE ??Subroutine196_0
   \   000002                ; // Fall through to label ??Subroutine196_0

   \                                 In  segment BANKED_CODE, align 1, keep-with-next
   \                     ??Subroutine197_0:
   \   000000   E8           MOV       A,R0
   \   000001                REQUIRE ??Subroutine198_0
   \   000001                ; // Fall through to label ??Subroutine198_0

   \                                 In  segment BANKED_CODE, align 1, keep-with-next
   \                     ??Subroutine198_0:
   \   000000   F0           MOVX      @DPTR,A
   \   000001   A3           INC       DPTR
   \   000002   E9           MOV       A,R1
   \   000003   F0           MOVX      @DPTR,A
   \   000004   22           RET

   \                                 In  segment BANKED_CODE, align 1, keep-with-next
   \                     ?Subroutine158:
   \   000000   E0           MOVX      A,@DPTR
   \   000001   F5..         MOV       ?V4,A
   \   000003   A3           INC       DPTR
   \   000004   E0           MOVX      A,@DPTR
   \   000005   F5..         MOV       ?V5,A
   \   000007   22           RET

   \                                 In  segment BANKED_CODE, align 1, keep-with-next
   \                     ?Subroutine54:
   \   000000   12....       LCALL     ?Subroutine158 & 0xFFFF
   \                     ??CrossCallReturnLabel_270:
   \   000003   75..00       MOV       ?V6,#0x0
   \   000006   78..         MOV       R0,#?V4
   \   000008   22           RET

   \                                 In  segment BANKED_CODE, align 1, keep-with-next
   \                     ??Subroutine200_0:
   \   000000   12....       LCALL     `??osal_memcpy::?relay`; Banked call to: osal_memcpy
   \   000003   7403         MOV       A,#0x3
   \   000005   22           RET

   \                                 In  segment BANKED_CODE, align 1, keep-with-next
   \                     ?Subroutine5:
   \   000000   12....       LCALL     ?DEALLOC_XSTACK8
   \   000003                REQUIRE ??Subroutine215_0
   \   000003                ; // Fall through to label ??Subroutine215_0

   \                                 In  segment BANKED_CODE, align 1, keep-with-next
   \                     ??Subroutine215_0:
   \   000000   7F10         MOV       R7,#0x10
   \   000002   02....       LJMP      ?BANKED_LEAVE_XDATA
   1176          
   1177          #ifdef ZCL_READ
   1178          /*********************************************************************
   1179           * @fn      zcl_SendRead
   1180           *
   1181           * @brief   Send a Read command
   1182           *
   1183           * @param   srcEP - Application's endpoint
   1184           * @param   dstAddr - destination address
   1185           * @param   clusterID - cluster ID
   1186           * @param   readCmd - read command to be sent
   1187           * @param   direction - direction of the command
   1188           * @param   seqNum - transaction sequence number
   1189           *
   1190           * @return  ZSuccess if OK
   1191           */

   \                                 In  segment BANKED_CODE, align 1, keep-with-next
   1192          ZStatus_t zcl_SendRead( uint8 srcEP, afAddrType_t *dstAddr,
   \                     zcl_SendRead:
   1193                                  uint16 clusterID, zclReadCmd_t *readCmd,
   1194                                  uint8 direction, uint8 disableDefaultRsp, uint8 seqNum)
   1195          {
   \   000000                REQUIRE ?V0
   \   000000                REQUIRE ?V1
   \   000000                REQUIRE ?V2
   \   000000                REQUIRE ?V3
   \   000000                REQUIRE ?V4
   \   000000                REQUIRE ?V5
   \   000000                REQUIRE ?V6
   \   000000                REQUIRE ?V7
   \   000000                REQUIRE ?V8
   \   000000                REQUIRE ?V9
   \   000000                REQUIRE ?V10
   \   000000                REQUIRE ?V11
   \   000000   74EC         MOV       A,#-0x14
   \   000002   12....       LCALL     ?BANKED_ENTER_XDATA
   \   000005                ; Saved register size: 20
   \   000005                ; Auto size: 0
   \   000005   89..         MOV       ?V2,R1
   \   000007   8A..         MOV       ?V8,R2
   \   000009   8B..         MOV       ?V9,R3
   \   00000B   EC           MOV       A,R4
   \   00000C   FE           MOV       R6,A
   \   00000D   ED           MOV       A,R5
   \   00000E   FF           MOV       R7,A
   \   00000F   7414         MOV       A,#0x14
   \   000011   12....       LCALL     ?XSTACK_DISP0_8
   \   000014   12....       LCALL     ?Subroutine76 & 0xFFFF
   1196            uint16 dataLen;
   1197            uint8 *buf;
   1198            uint8 *pBuf;
   1199            ZStatus_t status;
   1200          
   1201            dataLen = readCmd->numAttr * 2; // Attribute ID
   \                     ??CrossCallReturnLabel_120:
   \   000017   25E0         ADD       A,0xE0 /* A   */
   \   000019   F5..         MOV       ?V6,A
   \   00001B   E4           CLR       A
   \   00001C   33           RLC       A
   \   00001D   12....       LCALL     ?Subroutine115 & 0xFFFF
   1202          
   1203            buf = zcl_mem_alloc( dataLen );
   1204            if ( buf != NULL )
   \                     ??CrossCallReturnLabel_557:
   \   000020   7003         JNZ       $+5
   \   000022   02....       LJMP      ??zcl_SendRead_0 & 0xFFFF
   1205            {
   1206              uint8 i;
   1207          
   1208              // Load the buffer - serially
   1209              pBuf = buf;
   \   000025   A8..         MOV       R0,?V0
   \   000027   A9..         MOV       R1,?V1
   1210              for (i = 0; i < readCmd->numAttr; i++)
   \   000029   7C00         MOV       R4,#0x0
   \   00002B   801D         SJMP      ??zcl_SendRead_1
   1211              {
   1212                *pBuf++ = LO_UINT16( readCmd->attrID[i] );
   \                     ??zcl_SendRead_2:
   \   00002D   EC           MOV       A,R4
   \   00002E   25E0         ADD       A,0xE0 /* A   */
   \   000030   FA           MOV       R2,A
   \   000031   E4           CLR       A
   \   000032   33           RLC       A
   \   000033   FB           MOV       R3,A
   \   000034   12....       LCALL     ?Subroutine136 & 0xFFFF
   1213                *pBuf++ = HI_UINT16( readCmd->attrID[i] );
   1214              }
   \                     ??CrossCallReturnLabel_231:
   \   000037   AA82         MOV       R2,DPL
   \   000039   AB83         MOV       R3,DPH
   \   00003B   12....       LCALL     ?Subroutine96 & 0xFFFF
   \                     ??CrossCallReturnLabel_154:
   \   00003E   12....       LCALL     ?Subroutine23 & 0xFFFF
   \                     ??CrossCallReturnLabel_19:
   \   000041   F0           MOVX      @DPTR,A
   \   000042   E8           MOV       A,R0
   \   000043   2402         ADD       A,#0x2
   \   000045   F8           MOV       R0,A
   \   000046   5001         JNC       ??zcl_SendRead_3
   \   000048   09           INC       R1
   \                     ??zcl_SendRead_3:
   \   000049   0C           INC       R4
   \                     ??zcl_SendRead_1:
   \   00004A   85..82       MOV       DPL,?V4
   \   00004D   85..83       MOV       DPH,?V5
   \   000050   E0           MOVX      A,@DPTR
   \   000051   FA           MOV       R2,A
   \   000052   EC           MOV       A,R4
   \   000053   C3           CLR       C
   \   000054   9A           SUBB      A,R2
   \   000055   40D6         JC        ??zcl_SendRead_2
   1215          
   1216              status = zcl_SendCommand( srcEP, dstAddr, clusterID, ZCL_CMD_READ, FALSE,
   1217                                        direction, disableDefaultRsp, 0, seqNum, dataLen, buf );
   \   000057                ; Setup parameters for call to function zcl_SendCommand
   \   000057   78..         MOV       R0,#?V0
   \   000059   12....       LCALL     ?PUSH_XSTACK_I_TWO
   \   00005C   78..         MOV       R0,#?V6
   \   00005E   12....       LCALL     ?PUSH_XSTACK_I_TWO
   \   000061   741C         MOV       A,#0x1c
   \   000063   12....       LCALL     ?XSTACK_DISP0_8
   \   000066   12....       LCALL     ?Subroutine60 & 0xFFFF
   \                     ??CrossCallReturnLabel_80:
   \   000069   12....       LCALL     ?PUSH_XSTACK_I_ONE
   \   00006C   E4           CLR       A
   \   00006D   F5..         MOV       ?V4,A
   \   00006F   F5..         MOV       ?V5,A
   \   000071   78..         MOV       R0,#?V4
   \   000073   12....       LCALL     ?PUSH_XSTACK_I_TWO
   \   000076   741E         MOV       A,#0x1e
   \   000078   12....       LCALL     ?XSTACK_DISP0_8
   \   00007B   12....       LCALL     ?Subroutine60 & 0xFFFF
   \                     ??CrossCallReturnLabel_81:
   \   00007E   12....       LCALL     ?PUSH_XSTACK_I_ONE
   \   000081   741E         MOV       A,#0x1e
   \   000083   12....       LCALL     ?XSTACK_DISP0_8
   \   000086   12....       LCALL     ?Subroutine60 & 0xFFFF
   \                     ??CrossCallReturnLabel_82:
   \   000089   12....       LCALL     ?PUSH_XSTACK_I_ONE
   \   00008C   75..00       MOV       ?V3,#0x0
   \   00008F   78..         MOV       R0,#?V3
   \   000091   12....       LCALL     ?PUSH_XSTACK_I_ONE
   \   000094   78..         MOV       R0,#?V3
   \   000096   12....       LCALL     ?PUSH_XSTACK_I_ONE
   \   000099   12....       LCALL     ?Subroutine134 & 0xFFFF
   \                     ??CrossCallReturnLabel_323:
   \   00009C   12....       LCALL     ?DEALLOC_XSTACK8
   \   00009F   E9           MOV       A,R1
   \   0000A0   FE           MOV       R6,A
   1218              zcl_mem_free( buf );
   \   0000A1                ; Setup parameters for call to function osal_mem_free
   \   0000A1   AA..         MOV       R2,?V0
   \   0000A3   AB..         MOV       R3,?V1
   \   0000A5   12....       LCALL     `??osal_mem_free::?relay`; Banked call to: osal_mem_free
   \   0000A8   8002         SJMP      ??zcl_SendRead_4
   1219            }
   1220            else
   1221            {
   1222              status = ZMemError;
   \                     ??zcl_SendRead_0:
   \   0000AA   7E10         MOV       R6,#0x10
   1223            }
   1224          
   1225            return ( status );
   \                     ??zcl_SendRead_4:
   \   0000AC                REQUIRE ?Subroutine10
   \   0000AC                ; // Fall through to label ?Subroutine10
   1226          }

   \                                 In  segment BANKED_CODE, align 1, keep-with-next
   \                     ?Subroutine10:
   \   000000   EE           MOV       A,R6
   \   000001   F9           MOV       R1,A
   \   000002   02....       LJMP      ??Subroutine214_0 & 0xFFFF

   \                                 In  segment BANKED_CODE, align 1, keep-with-next
   \                     ?Subroutine136:
   \   000000   E5..         MOV       A,?V4
   \   000002   2A           ADD       A,R2
   \   000003   F582         MOV       DPL,A
   \   000005   E5..         MOV       A,?V5
   \   000007   3B           ADDC      A,R3
   \   000008   F583         MOV       DPH,A
   \   00000A   A3           INC       DPTR
   \   00000B   22           RET

   \                                 In  segment BANKED_CODE, align 1, keep-with-next
   \                     ?Subroutine76:
   \   000000   12....       LCALL     ?Subroutine156 & 0xFFFF
   \                     ??CrossCallReturnLabel_264:
   \   000003   E0           MOVX      A,@DPTR
   \   000004   22           RET

   \                                 In  segment BANKED_CODE, align 1, keep-with-next
   \                     ?Subroutine60:
   \   000000   E0           MOVX      A,@DPTR
   \   000001   F5..         MOV       ?V3,A
   \   000003   78..         MOV       R0,#?V3
   \   000005   22           RET

   \                                 In  segment BANKED_CODE, align 1, keep-with-next
   \                     ?Subroutine23:
   \   000000   12....       LCALL     ?Subroutine174 & 0xFFFF
   \                     ??CrossCallReturnLabel_345:
   \   000003   A3           INC       DPTR
   \   000004   12....       LCALL     ?Subroutine157 & 0xFFFF
   \                     ??CrossCallReturnLabel_267:
   \   000007   22           RET

   \                                 In  segment BANKED_CODE, align 1, keep-with-next
   \                     ?Subroutine157:
   \   000000   E0           MOVX      A,@DPTR
   \   000001   8882         MOV       DPL,R0
   \   000003   8983         MOV       DPH,R1
   \   000005   A3           INC       DPTR
   \   000006   22           RET

   \                                 In  segment BANKED_CODE, align 1, keep-with-next
   \                     ?Subroutine96:
   \   000000   E0           MOVX      A,@DPTR
   \   000001   8882         MOV       DPL,R0
   \   000003   8983         MOV       DPH,R1
   \   000005   22           RET

   \                                 In  segment BANKED_CODE, align 1, keep-with-next
   \                     ?Subroutine134:
   \   000000   EE           MOV       A,R6
   \   000001   FC           MOV       R4,A
   \   000002   EF           MOV       A,R7
   \   000003   FD           MOV       R5,A
   \   000004   AA..         MOV       R2,?V8
   \   000006   AB..         MOV       R3,?V9
   \   000008                REQUIRE ??Subroutine188_0
   \   000008                ; // Fall through to label ??Subroutine188_0

   \                                 In  segment BANKED_CODE, align 1, keep-with-next
   \                     ??Subroutine188_0:
   \   000000   A9..         MOV       R1,?V2
   \   000002                REQUIRE ??Subroutine189_0
   \   000002                ; // Fall through to label ??Subroutine189_0

   \                                 In  segment BANKED_CODE, align 1, keep-with-next
   \                     ??Subroutine189_0:
   \   000000   12....       LCALL     `??zcl_SendCommand::?relay`; Banked call to: zcl_SendCommand
   \   000003   740B         MOV       A,#0xb
   \   000005   22           RET

   \                                 In  segment BANKED_CODE, align 1, keep-with-next
   \                     ?Subroutine156:
   \   000000   E0           MOVX      A,@DPTR
   \   000001   F5..         MOV       ?V4,A
   \   000003   A3           INC       DPTR
   \   000004   E0           MOVX      A,@DPTR
   \   000005   F5..         MOV       ?V5,A
   \   000007   85..82       MOV       DPL,?V4
   \   00000A   F583         MOV       DPH,A
   \   00000C   22           RET

   \                                 In  segment BANKED_CODE, align 1, keep-with-next
   \                     ??Subroutine214_0:
   \   000000   7F0C         MOV       R7,#0xc
   \   000002   02....       LJMP      ?BANKED_LEAVE_XDATA

   \                                 In  segment BANKED_CODE, align 1, keep-with-next
   \                     ?Subroutine115:
   \   000000   F5..         MOV       ?V7,A
   \   000002                ; Setup parameters for call to function osal_mem_alloc
   \   000002                ; Setup parameters for call to function osal_mem_alloc
   \   000002                ; Setup parameters for call to function osal_mem_alloc
   \   000002                ; Setup parameters for call to function osal_mem_alloc
   \   000002   AA..         MOV       R2,?V6
   \   000004                REQUIRE ??Subroutine228_0
   \   000004                ; // Fall through to label ??Subroutine228_0

   \                                 In  segment BANKED_CODE, align 1, keep-with-next
   \                     ??Subroutine228_0:
   \   000000   FB           MOV       R3,A
   \   000001                REQUIRE ??Subroutine229_0
   \   000001                ; // Fall through to label ??Subroutine229_0

   \                                 In  segment BANKED_CODE, align 1, keep-with-next
   \                     ??Subroutine229_0:
   \   000000   12....       LCALL     `??osal_mem_alloc::?relay`; Banked call to: osal_mem_alloc
   \   000003   8A..         MOV       ?V0,R2
   \   000005   8B..         MOV       ?V1,R3
   \   000007   EA           MOV       A,R2
   \   000008   4B           ORL       A,R3
   \   000009   22           RET
   1227          
   1228          /*********************************************************************
   1229           * @fn      zcl_SendReadRsp
   1230           *
   1231           * @brief   Send a Read Response command.
   1232           *
   1233           * @param   srcEP - Application's endpoint
   1234           * @param   dstAddr - destination address
   1235           * @param   clusterID - cluster ID
   1236           * @param   readRspCmd - read response command to be sent
   1237           * @param   direction - direction of the command
   1238           * @param   seqNum - transaction sequence number
   1239           *
   1240           * @return  ZSuccess if OK
   1241           */

   \                                 In  segment BANKED_CODE, align 1, keep-with-next
   1242          ZStatus_t zcl_SendReadRsp( uint8 srcEP, afAddrType_t *dstAddr,
   \                     zcl_SendReadRsp:
   1243                                     uint16 clusterID, zclReadRspCmd_t *readRspCmd,
   1244                                     uint8 direction, uint8 disableDefaultRsp, uint8 seqNum )
   1245          {
   \   000000                REQUIRE ?V0
   \   000000                REQUIRE ?V1
   \   000000                REQUIRE ?V2
   \   000000                REQUIRE ?V3
   \   000000                REQUIRE ?V4
   \   000000                REQUIRE ?V5
   \   000000                REQUIRE ?V6
   \   000000                REQUIRE ?V7
   \   000000                REQUIRE ?V8
   \   000000                REQUIRE ?V9
   \   000000                REQUIRE ?V10
   \   000000                REQUIRE ?V11
   \   000000                REQUIRE ?V12
   \   000000                REQUIRE ?V13
   \   000000   74EA         MOV       A,#-0x16
   \   000002   12....       LCALL     ?BANKED_ENTER_XDATA
   \   000005                ; Saved register size: 22
   \   000005                ; Auto size: 2
   \   000005   74FE         MOV       A,#-0x2
   \   000007   12....       LCALL     ?ALLOC_XSTACK8
   \   00000A   89..         MOV       ?V3,R1
   \   00000C   8A..         MOV       ?V12,R2
   \   00000E   8B..         MOV       ?V13,R3
   \   000010   8C..         MOV       ?V6,R4
   \   000012   8D..         MOV       ?V7,R5
   1246            uint8 *buf;
   1247            uint16 len = 0;
   \   000014   7E00         MOV       R6,#0x0
   \   000016   7F00         MOV       R7,#0x0
   1248            ZStatus_t status;
   1249            uint8 i;
   1250          
   1251            // calculate the size of the command
   1252            for ( i = 0; i < readRspCmd->numAttr; i++ )
   \   000018   75..00       MOV       ?V2,#0x0
   \   00001B   7418         MOV       A,#0x18
   \   00001D   12....       LCALL     ?XSTACK_DISP0_8
   \   000020   12....       LCALL     ??Subroutine210_0 & 0xFFFF
   \                     ??CrossCallReturnLabel_465:
   \   000023   8011         SJMP      ??zcl_SendReadRsp_0
   1253            {
   1254              zclReadRspStatus_t *statusRec = &(readRspCmd->attrList[i]);
   1255          
   1256              len += 2 + 1; // Attribute ID + Status
   1257          
   1258              if ( statusRec->status == ZCL_STATUS_SUCCESS )
   1259              {
   1260                len++; // Attribute Data Type length
   1261          
   1262                // Attribute Data length
   1263                if ( statusRec->data != NULL )
   1264                {
   1265                  len += zclGetAttrDataLength( statusRec->dataType, statusRec->data );
   1266                }
   1267                else
   1268                {
   1269                  len += zclGetAttrDataLengthUsingCB( srcEP, clusterID, statusRec->attrID );
   \                     ??zcl_SendReadRsp_1:
   \   000025                ; Setup parameters for call to function zclGetAttrDataLengthUsingCB
   \   000025   12....       LCALL     ?Subroutine80 & 0xFFFF
   1270                }
   \                     ??CrossCallReturnLabel_128:
   \   000028   12....       LCALL     `??zclGetAttrDataLengthUsingCB::?relay`; Banked call to: zclGetAttrDataLengthUsingCB
   \                     ??zcl_SendReadRsp_2:
   \   00002B   8B..         MOV       ?V1,R3
   \   00002D   EE           MOV       A,R6
   \   00002E   2A           ADD       A,R2
   \   00002F   FE           MOV       R6,A
   \   000030   EF           MOV       A,R7
   \   000031   35..         ADDC      A,?V1
   \   000033   FF           MOV       R7,A
   \                     ??zcl_SendReadRsp_3:
   \   000034   05..         INC       ?V2
   \                     ??zcl_SendReadRsp_0:
   \   000036   12....       LCALL     ?Subroutine66 & 0xFFFF
   \                     ??CrossCallReturnLabel_531:
   \   000039   503A         JNC       ??zcl_SendReadRsp_4
   \   00003B   E5..         MOV       A,?V2
   \   00003D   75F006       MOV       B,#0x6
   \   000040   A4           MUL       AB
   \   000041   F8           MOV       R0,A
   \   000042   A9F0         MOV       R1,B
   \   000044   E5..         MOV       A,?V8
   \   000046   28           ADD       A,R0
   \   000047   F582         MOV       DPL,A
   \   000049   E5..         MOV       A,?V9
   \   00004B   12....       LCALL     ?Subroutine132 & 0xFFFF
   \                     ??CrossCallReturnLabel_227:
   \   00004E   EE           MOV       A,R6
   \   00004F   2403         ADD       A,#0x3
   \   000051   FE           MOV       R6,A
   \   000052   E4           CLR       A
   \   000053   3F           ADDC      A,R7
   \   000054   FF           MOV       R7,A
   \   000055   A3           INC       DPTR
   \   000056   A3           INC       DPTR
   \   000057   E0           MOVX      A,@DPTR
   \   000058   70DA         JNZ       ??zcl_SendReadRsp_3
   \   00005A   0E           INC       R6
   \   00005B   EE           MOV       A,R6
   \   00005C   7001         JNZ       ??zcl_SendReadRsp_5
   \   00005E   0F           INC       R7
   \                     ??zcl_SendReadRsp_5:
   \   00005F   8882         MOV       DPL,R0
   \   000061   8983         MOV       DPH,R1
   \   000063   A3           INC       DPTR
   \   000064   A3           INC       DPTR
   \   000065   A3           INC       DPTR
   \   000066   A3           INC       DPTR
   \   000067   12....       LCALL     ??Subroutine185_0 & 0xFFFF
   \                     ??CrossCallReturnLabel_315:
   \   00006A   8882         MOV       DPL,R0
   \   00006C   8983         MOV       DPH,R1
   \   00006E   60B5         JZ        ??zcl_SendReadRsp_1
   \   000070                ; Setup parameters for call to function zclGetAttrDataLength
   \   000070   12....       LCALL     ??Subroutine182_0 & 0xFFFF
   1271              }
   1272            }
   \                     ??CrossCallReturnLabel_302:
   \   000073   80B6         SJMP      ??zcl_SendReadRsp_2
   1273          
   1274            buf = zcl_mem_alloc( len );
   \                     ??zcl_SendReadRsp_4:
   \   000075                ; Setup parameters for call to function osal_mem_alloc
   \   000075   EE           MOV       A,R6
   \   000076   FA           MOV       R2,A
   \   000077   EF           MOV       A,R7
   \   000078   FB           MOV       R3,A
   \   000079   12....       LCALL     `??osal_mem_alloc::?relay`; Banked call to: osal_mem_alloc
   \   00007C   8A..         MOV       ?V0,R2
   \   00007E   8B..         MOV       ?V1,R3
   \   000080   8A..         MOV       ?V4,R2
   \   000082   8B..         MOV       ?V5,R3
   1275            if ( buf != NULL )
   \   000084   EA           MOV       A,R2
   \   000085   4B           ORL       A,R3
   \   000086   7003         JNZ       $+5
   \   000088   02....       LJMP      ??zcl_SendReadRsp_6 & 0xFFFF
   1276            {
   1277              // Load the buffer - serially
   1278              uint8 *pBuf = buf;
   1279          
   1280              for ( i = 0; i < readRspCmd->numAttr; i++ )
   \   00008B   75..00       MOV       ?V2,#0x0
   \   00008E   8036         SJMP      ??zcl_SendReadRsp_7
   1281              {
   1282                zclReadRspStatus_t *statusRec = &(readRspCmd->attrList[i]);
   1283          
   1284                *pBuf++ = LO_UINT16( statusRec->attrID );
   1285                *pBuf++ = HI_UINT16( statusRec->attrID );
   1286                *pBuf++ = statusRec->status;
   1287          
   1288                if ( statusRec->status == ZCL_STATUS_SUCCESS )
   1289                {
   1290                  *pBuf++ = statusRec->dataType;
   1291          
   1292                  if ( statusRec->data != NULL )
   1293                  {
   1294                    // Copy attribute data to the buffer to be sent out
   1295                    pBuf = zclSerializeData( statusRec->dataType, statusRec->data, pBuf );
   1296                  }
   1297                  else
   1298                  {
   1299                    uint16 dataLen;
   1300          
   1301                    // Read attribute data directly into the buffer to be sent out
   1302                    zclReadAttrDataUsingCB( srcEP, clusterID, statusRec->attrID, pBuf, &dataLen );
   \                     ??zcl_SendReadRsp_8:
   \   000090                ; Setup parameters for call to function zclReadAttrDataUsingCB
   \   000090   A8..         MOV       R0,?XSP + 0
   \   000092   A9..         MOV       R1,?XSP + 1
   \   000094   88..         MOV       ?V10,R0
   \   000096   89..         MOV       ?V11,R1
   \   000098   78..         MOV       R0,#?V10
   \   00009A   12....       LCALL     ?PUSH_XSTACK_I_TWO
   \   00009D   78..         MOV       R0,#?V0
   \   00009F   12....       LCALL     ?PUSH_XSTACK_I_TWO
   \   0000A2   8A82         MOV       DPL,R2
   \   0000A4   8B83         MOV       DPH,R3
   \   0000A6   12....       LCALL     ?Subroutine80 & 0xFFFF
   \                     ??CrossCallReturnLabel_129:
   \   0000A9   12....       LCALL     `??zclReadAttrDataUsingCB::?relay`; Banked call to: zclReadAttrDataUsingCB
   \   0000AC   7404         MOV       A,#0x4
   \   0000AE   12....       LCALL     ?DEALLOC_XSTACK8
   1303                    pBuf += dataLen;
   \   0000B1   85..82       MOV       DPL,?XSP + 0
   \   0000B4   85..83       MOV       DPH,?XSP + 1
   \   0000B7   12....       LCALL     ??Subroutine205_0 & 0xFFFF
   1304                  }
   \                     ??CrossCallReturnLabel_413:
   \   0000BA   E5..         MOV       A,?V0
   \   0000BC   28           ADD       A,R0
   \   0000BD   F5..         MOV       ?V0,A
   \   0000BF   E5..         MOV       A,?V1
   \   0000C1   39           ADDC      A,R1
   \   0000C2   F5..         MOV       ?V1,A
   \                     ??zcl_SendReadRsp_9:
   \   0000C4   05..         INC       ?V2
   \                     ??zcl_SendReadRsp_7:
   \   0000C6   12....       LCALL     ?Subroutine66 & 0xFFFF
   \                     ??CrossCallReturnLabel_532:
   \   0000C9   5078         JNC       ??zcl_SendReadRsp_10
   \   0000CB   E5..         MOV       A,?V2
   \   0000CD   75F006       MOV       B,#0x6
   \   0000D0   A4           MUL       AB
   \   0000D1   F8           MOV       R0,A
   \   0000D2   A9F0         MOV       R1,B
   \   0000D4   E5..         MOV       A,?V8
   \   0000D6   28           ADD       A,R0
   \   0000D7   F582         MOV       DPL,A
   \   0000D9   E5..         MOV       A,?V9
   \   0000DB   12....       LCALL     ?Subroutine133 & 0xFFFF
   \                     ??CrossCallReturnLabel_229:
   \   0000DE   12....       LCALL     ?Subroutine112 & 0xFFFF
   \                     ??CrossCallReturnLabel_201:
   \   0000E1   8A82         MOV       DPL,R2
   \   0000E3   8B83         MOV       DPH,R3
   \   0000E5   A3           INC       DPTR
   \   0000E6   12....       LCALL     ?Subroutine113 & 0xFFFF
   \                     ??CrossCallReturnLabel_203:
   \   0000E9   F0           MOVX      @DPTR,A
   \   0000EA   12....       LCALL     ?Subroutine123 & 0xFFFF
   \                     ??CrossCallReturnLabel_338:
   \   0000ED   12....       LCALL     ?Subroutine113 & 0xFFFF
   \                     ??CrossCallReturnLabel_204:
   \   0000F0   A3           INC       DPTR
   \   0000F1   F0           MOVX      @DPTR,A
   \   0000F2   E5..         MOV       A,?V0
   \   0000F4   2403         ADD       A,#0x3
   \   0000F6   F5..         MOV       ?V0,A
   \   0000F8   5002         JNC       ??zcl_SendReadRsp_11
   \   0000FA   05..         INC       ?V1
   \                     ??zcl_SendReadRsp_11:
   \   0000FC   8882         MOV       DPL,R0
   \   0000FE   8983         MOV       DPH,R1
   \   000100   E0           MOVX      A,@DPTR
   \   000101   70C1         JNZ       ??zcl_SendReadRsp_9
   \   000103   EA           MOV       A,R2
   \   000104   2403         ADD       A,#0x3
   \   000106   08           INC       R0
   \   000107   12....       LCALL     ??Subroutine191_0 & 0xFFFF
   \                     ??CrossCallReturnLabel_337:
   \   00010A   12....       LCALL     ?Subroutine112 & 0xFFFF
   \                     ??CrossCallReturnLabel_202:
   \   00010D   A3           INC       DPTR
   \   00010E   8582..       MOV       ?V0,DPL
   \   000111   8583..       MOV       ?V1,DPH
   \   000114   8A82         MOV       DPL,R2
   \   000116   8B83         MOV       DPH,R3
   \   000118   A3           INC       DPTR
   \   000119   A3           INC       DPTR
   \   00011A   A3           INC       DPTR
   \   00011B   A3           INC       DPTR
   \   00011C   12....       LCALL     ?Subroutine109 & 0xFFFF
   \                     ??CrossCallReturnLabel_194:
   \   00011F   8C82         MOV       DPL,R4
   \   000121   F583         MOV       DPH,A
   \   000123   E582         MOV       A,DPL
   \   000125   4583         ORL       A,DPH
   \   000127   7003         JNZ       $+5
   \   000129   02....       LJMP      ??zcl_SendReadRsp_8 & 0xFFFF
   \   00012C                ; Setup parameters for call to function zclSerializeData
   \   00012C   AC..         MOV       R4,?V0
   \   00012E   AD..         MOV       R5,?V1
   \   000130   AA82         MOV       R2,DPL
   \   000132   AB83         MOV       R3,DPH
   \   000134   8882         MOV       DPL,R0
   \   000136   8983         MOV       DPH,R1
   \   000138   E0           MOVX      A,@DPTR
   \   000139   F9           MOV       R1,A
   \   00013A   12....       LCALL     `??zclSerializeData::?relay`; Banked call to: zclSerializeData
   \   00013D   8A..         MOV       ?V0,R2
   \   00013F   8B..         MOV       ?V1,R3
   \   000141   8081         SJMP      ??zcl_SendReadRsp_9
   1305                }
   1306              } // for loop
   1307          
   1308              status = zcl_SendCommand( srcEP, dstAddr, clusterID, ZCL_CMD_READ_RSP, FALSE,
   1309                                        direction, disableDefaultRsp, 0, seqNum, len, buf );
   \                     ??zcl_SendReadRsp_10:
   \   000143                ; Setup parameters for call to function zcl_SendCommand
   \   000143   78..         MOV       R0,#?V4
   \   000145   12....       LCALL     ?PUSH_XSTACK_I_TWO
   \   000148   8E..         MOV       ?V0,R6
   \   00014A   8F..         MOV       ?V1,R7
   \   00014C   78..         MOV       R0,#?V0
   \   00014E   12....       LCALL     ?PUSH_XSTACK_I_TWO
   \   000151   7420         MOV       A,#0x20
   \   000153   12....       LCALL     ?XSTACK_DISP0_8
   \   000156   12....       LCALL     ?Subroutine63 & 0xFFFF
   \                     ??CrossCallReturnLabel_93:
   \   000159   12....       LCALL     ?PUSH_XSTACK_I_ONE
   \   00015C   E4           CLR       A
   \   00015D   F5..         MOV       ?V0,A
   \   00015F   F5..         MOV       ?V1,A
   \   000161   78..         MOV       R0,#?V0
   \   000163   12....       LCALL     ?PUSH_XSTACK_I_TWO
   \   000166   7422         MOV       A,#0x22
   \   000168   12....       LCALL     ?XSTACK_DISP0_8
   \   00016B   12....       LCALL     ?Subroutine63 & 0xFFFF
   \                     ??CrossCallReturnLabel_94:
   \   00016E   12....       LCALL     ?PUSH_XSTACK_I_ONE
   \   000171   7422         MOV       A,#0x22
   \   000173   12....       LCALL     ?XSTACK_DISP0_8
   \   000176   12....       LCALL     ?Subroutine63 & 0xFFFF
   \                     ??CrossCallReturnLabel_95:
   \   000179   12....       LCALL     ?PUSH_XSTACK_I_ONE
   \   00017C   75..00       MOV       ?V0,#0x0
   \   00017F   78..         MOV       R0,#?V0
   \   000181   12....       LCALL     ?PUSH_XSTACK_I_ONE
   \   000184   75..01       MOV       ?V0,#0x1
   \   000187   78..         MOV       R0,#?V0
   \   000189   12....       LCALL     ?PUSH_XSTACK_I_ONE
   \   00018C   AC..         MOV       R4,?V6
   \   00018E   AD..         MOV       R5,?V7
   \   000190   AA..         MOV       R2,?V12
   \   000192   AB..         MOV       R3,?V13
   \   000194   A9..         MOV       R1,?V3
   \   000196   12....       LCALL     ??Subroutine189_0 & 0xFFFF
   \                     ??CrossCallReturnLabel_326:
   \   000199   12....       LCALL     ?DEALLOC_XSTACK8
   \   00019C   E9           MOV       A,R1
   \   00019D   FE           MOV       R6,A
   1310              zcl_mem_free( buf );
   \   00019E                ; Setup parameters for call to function osal_mem_free
   \   00019E   AA..         MOV       R2,?V4
   \   0001A0   AB..         MOV       R3,?V5
   \   0001A2   12....       LCALL     `??osal_mem_free::?relay`; Banked call to: osal_mem_free
   \   0001A5   8002         SJMP      ??zcl_SendReadRsp_12
   1311            }
   1312            else
   1313            {
   1314              status = ZMemError;
   \                     ??zcl_SendReadRsp_6:
   \   0001A7   7E10         MOV       R6,#0x10
   1315            }
   1316          
   1317            return ( status );
   \                     ??zcl_SendReadRsp_12:
   \   0001A9   EE           MOV       A,R6
   \   0001AA   F9           MOV       R1,A
   \   0001AB   7402         MOV       A,#0x2
   \   0001AD   12....       LCALL     ?DEALLOC_XSTACK8
   \   0001B0   80..         SJMP      ??Subroutine186_0
   1318          }

   \                                 In  segment BANKED_CODE, align 1, keep-with-next
   \                     ?Subroutine113:
   \   000000   12....       LCALL     ?Subroutine167 & 0xFFFF
   \                     ??CrossCallReturnLabel_284:
   \   000003   22           RET

   \                                 In  segment BANKED_CODE, align 1, keep-with-next
   \                     ?Subroutine167:
   \   000000   E0           MOVX      A,@DPTR
   \   000001   85..82       MOV       DPL,?V0
   \   000004   85..83       MOV       DPH,?V1
   \   000007   A3           INC       DPTR
   \   000008   22           RET

   \                                 In  segment BANKED_CODE, align 1, keep-with-next
   \                     ?Subroutine112:
   \   000000   E0           MOVX      A,@DPTR
   \   000001   85..82       MOV       DPL,?V0
   \   000004   85..83       MOV       DPH,?V1
   \   000007   F0           MOVX      @DPTR,A
   \   000008   22           RET

   \                                 In  segment BANKED_CODE, align 1, keep-with-next
   \                     ?Subroutine80:
   \   000000   12....       LCALL     ??Subroutine223_0 & 0xFFFF
   \                     ??CrossCallReturnLabel_517:
   \   000003   AA..         MOV       R2,?V6
   \   000005   AB..         MOV       R3,?V7
   \   000007   A9..         MOV       R1,?V3
   \   000009   22           RET

   \                                 In  segment BANKED_CODE, align 1, keep-with-next
   \                     ??Subroutine182_0:
   \   000000   A3           INC       DPTR
   \   000001                REQUIRE ??Subroutine183_0
   \   000001                ; // Fall through to label ??Subroutine183_0

   \                                 In  segment BANKED_CODE, align 1, keep-with-next
   \                     ??Subroutine183_0:
   \   000000   A3           INC       DPTR
   \   000001   A3           INC       DPTR
   \   000002                REQUIRE ??Subroutine184_0
   \   000002                ; // Fall through to label ??Subroutine184_0

   \                                 In  segment BANKED_CODE, align 1, keep-with-next
   \                     ??Subroutine184_0:
   \   000000   E0           MOVX      A,@DPTR
   \   000001   F9           MOV       R1,A
   \   000002   12....       LCALL     `??zclGetAttrDataLength::?relay`; Banked call to: zclGetAttrDataLength
   \   000005   22           RET

   \                                 In  segment BANKED_CODE, align 1, keep-with-next
   \                     ??Subroutine186_0:
   \   000000   7F0E         MOV       R7,#0xe
   \   000002   02....       LJMP      ?BANKED_LEAVE_XDATA

   \                                 In  segment BANKED_CODE, align 1, keep-with-next
   \                     ?Subroutine132:
   \   000000   39           ADDC      A,R1
   \   000001   F583         MOV       DPH,A
   \   000003   A3           INC       DPTR
   \   000004   A882         MOV       R0,DPL
   \   000006   A983         MOV       R1,DPH
   \   000008   22           RET

   \                                 In  segment BANKED_CODE, align 1, keep-with-next
   \                     ?Subroutine63:
   \   000000   E0           MOVX      A,@DPTR
   \   000001   F5..         MOV       ?V0,A
   \   000003   78..         MOV       R0,#?V0
   \   000005   22           RET

   \                                 In  segment BANKED_CODE, align 1, keep-with-next
   \                     ?Subroutine123:
   \   000000   EA           MOV       A,R2
   \   000001   2402         ADD       A,#0x2
   \   000003   F8           MOV       R0,A
   \   000004                REQUIRE ??Subroutine191_0
   \   000004                ; // Fall through to label ??Subroutine191_0

   \                                 In  segment BANKED_CODE, align 1, keep-with-next
   \                     ??Subroutine191_0:
   \   000000   E4           CLR       A
   \   000001   3B           ADDC      A,R3
   \   000002   F9           MOV       R1,A
   \   000003   8882         MOV       DPL,R0
   \   000005   F583         MOV       DPH,A
   \   000007   22           RET

   \                                 In  segment BANKED_CODE, align 1, keep-with-next
   \                     ?Subroutine133:
   \   000000   39           ADDC      A,R1
   \   000001   F583         MOV       DPH,A
   \   000003   A3           INC       DPTR
   \   000004   AA82         MOV       R2,DPL
   \   000006   AB83         MOV       R3,DPH
   \   000008   22           RET

   \                                 In  segment BANKED_CODE, align 1, keep-with-next
   \                     ??Subroutine210_0:
   \   000000   E0           MOVX      A,@DPTR
   \   000001   F5..         MOV       ?V8,A
   \   000003   A3           INC       DPTR
   \   000004   E0           MOVX      A,@DPTR
   \   000005   F5..         MOV       ?V9,A
   \   000007   22           RET

   \                                 In  segment BANKED_CODE, align 1, keep-with-next
   \                     ?Subroutine66:
   \   000000   85..82       MOV       DPL,?V8
   \   000003   85..83       MOV       DPH,?V9
   \   000006                REQUIRE ??Subroutine225_0
   \   000006                ; // Fall through to label ??Subroutine225_0

   \                                 In  segment BANKED_CODE, align 1, keep-with-next
   \                     ??Subroutine225_0:
   \   000000   E0           MOVX      A,@DPTR
   \   000001   F8           MOV       R0,A
   \   000002   E5..         MOV       A,?V2
   \   000004   C3           CLR       C
   \   000005   98           SUBB      A,R0
   \   000006   22           RET
   1319          #endif // ZCL_READ
   1320          
   1321          #ifdef ZCL_WRITE
   1322          /*********************************************************************
   1323           * @fn      sendWriteRequest
   1324           *
   1325           * @brief   Send a Write command
   1326           *
   1327           * @param   dstAddr - destination address
   1328           * @param   clusterID - cluster ID
   1329           * @param   writeCmd - write command to be sent
   1330           * @param   cmd - ZCL_CMD_WRITE, ZCL_CMD_WRITE_UNDIVIDED or ZCL_CMD_WRITE_NO_RSP
   1331           * @param   direction - direction of the command
   1332           * @param   seqNum - transaction sequence number
   1333           *
   1334           * @return  ZSuccess if OK
   1335           */

   \                                 In  segment BANKED_CODE, align 1, keep-with-next
   1336          ZStatus_t zcl_SendWriteRequest( uint8 srcEP, afAddrType_t *dstAddr, uint16 clusterID,
   \                     zcl_SendWriteRequest:
   1337                                          zclWriteCmd_t *writeCmd, uint8 cmd, uint8 direction,
   1338                                          uint8 disableDefaultRsp, uint8 seqNum )
   1339          {
   \   000000                REQUIRE ?V0
   \   000000                REQUIRE ?V1
   \   000000                REQUIRE ?V2
   \   000000                REQUIRE ?V3
   \   000000                REQUIRE ?V4
   \   000000                REQUIRE ?V5
   \   000000                REQUIRE ?V6
   \   000000                REQUIRE ?V7
   \   000000                REQUIRE ?V8
   \   000000                REQUIRE ?V9
   \   000000                REQUIRE ?V10
   \   000000                REQUIRE ?V11
   \   000000                REQUIRE ?V12
   \   000000                REQUIRE ?V13
   \   000000   74EA         MOV       A,#-0x16
   \   000002   12....       LCALL     ?BANKED_ENTER_XDATA
   \   000005                ; Saved register size: 22
   \   000005                ; Auto size: 0
   \   000005   89..         MOV       ?V3,R1
   \   000007   8A..         MOV       ?V8,R2
   \   000009   8B..         MOV       ?V9,R3
   \   00000B   8C..         MOV       ?V6,R4
   \   00000D   8D..         MOV       ?V7,R5
   1340            uint8 *buf;
   1341            uint16 dataLen = 0;
   \   00000F   7E00         MOV       R6,#0x0
   \   000011   7F00         MOV       R7,#0x0
   1342            ZStatus_t status;
   1343            uint8 i;
   1344          
   1345            for ( i = 0; i < writeCmd->numAttr; i++ )
   \   000013   75..00       MOV       ?V2,#0x0
   \   000016   7416         MOV       A,#0x16
   \   000018   12....       LCALL     ?XSTACK_DISP0_8
   \   00001B   12....       LCALL     ?Subroutine99 & 0xFFFF
   \                     ??CrossCallReturnLabel_166:
   \   00001E   802E         SJMP      ??zcl_SendWriteRequest_0
   1346            {
   1347              zclWriteRec_t *statusRec = &(writeCmd->attrList[i]);
   \                     ??zcl_SendWriteRequest_1:
   \   000020   E5..         MOV       A,?V2
   \   000022   75F005       MOV       B,#0x5
   \   000025   A4           MUL       AB
   \   000026   F8           MOV       R0,A
   \   000027   A9F0         MOV       R1,B
   \   000029   E5..         MOV       A,?V4
   \   00002B   28           ADD       A,R0
   \   00002C   F582         MOV       DPL,A
   \   00002E   E5..         MOV       A,?V5
   \   000030   12....       LCALL     ?Subroutine132 & 0xFFFF
   1348          
   1349              dataLen += 2 + 1; // Attribute ID + Attribute Type
   1350          
   1351              // Attribute Data
   1352              dataLen += zclGetAttrDataLength( statusRec->dataType, statusRec->attrData );
   \                     ??CrossCallReturnLabel_228:
   \   000033                ; Setup parameters for call to function zclGetAttrDataLength
   \   000033   A3           INC       DPTR
   \   000034   A3           INC       DPTR
   \   000035   A3           INC       DPTR
   \   000036   12....       LCALL     ?Subroutine90 & 0xFFFF
   1353            }
   \                     ??CrossCallReturnLabel_147:
   \   000039   12....       LCALL     ??Subroutine183_0 & 0xFFFF
   \                     ??CrossCallReturnLabel_303:
   \   00003C   8B..         MOV       ?V1,R3
   \   00003E   EA           MOV       A,R2
   \   00003F   2403         ADD       A,#0x3
   \   000041   F8           MOV       R0,A
   \   000042   E4           CLR       A
   \   000043   35..         ADDC      A,?V1
   \   000045   F9           MOV       R1,A
   \   000046   EE           MOV       A,R6
   \   000047   28           ADD       A,R0
   \   000048   FE           MOV       R6,A
   \   000049   EF           MOV       A,R7
   \   00004A   39           ADDC      A,R1
   \   00004B   FF           MOV       R7,A
   \   00004C   05..         INC       ?V2
   \                     ??zcl_SendWriteRequest_0:
   \   00004E   85..82       MOV       DPL,?V4
   \   000051   85..83       MOV       DPH,?V5
   \   000054   12....       LCALL     ??Subroutine225_0 & 0xFFFF
   \                     ??CrossCallReturnLabel_528:
   \   000057   40C7         JC        ??zcl_SendWriteRequest_1
   1354          
   1355            buf = zcl_mem_alloc( dataLen );
   \   000059                ; Setup parameters for call to function osal_mem_alloc
   \   000059   EE           MOV       A,R6
   \   00005A   FA           MOV       R2,A
   \   00005B   EF           MOV       A,R7
   \   00005C   12....       LCALL     ??Subroutine228_0 & 0xFFFF
   1356            if ( buf != NULL )
   \                     ??CrossCallReturnLabel_561:
   \   00005F   7003         JNZ       $+5
   \   000061   02....       LJMP      ??zcl_SendWriteRequest_2 & 0xFFFF
   1357            {
   1358              // Load the buffer - serially
   1359              uint8 *pBuf = buf;
   \   000064   A8..         MOV       R0,?V0
   \   000066   A9..         MOV       R1,?V1
   1360              for ( i = 0; i < writeCmd->numAttr; i++ )
   \   000068   75..00       MOV       ?V2,#0x0
   \   00006B   8049         SJMP      ??zcl_SendWriteRequest_3
   1361              {
   1362                zclWriteRec_t *statusRec = &(writeCmd->attrList[i]);
   \                     ??zcl_SendWriteRequest_4:
   \   00006D   E5..         MOV       A,?V2
   \   00006F   75F005       MOV       B,#0x5
   \   000072   A4           MUL       AB
   \   000073   FA           MOV       R2,A
   \   000074   ABF0         MOV       R3,B
   \   000076   12....       LCALL     ?Subroutine136 & 0xFFFF
   \                     ??CrossCallReturnLabel_232:
   \   000079   8582..       MOV       ?V12,DPL
   \   00007C   8583..       MOV       ?V13,DPH
   1363          
   1364                *pBuf++ = LO_UINT16( statusRec->attrID );
   \   00007F   12....       LCALL     ?Subroutine20 & 0xFFFF
   1365                *pBuf++ = HI_UINT16( statusRec->attrID );
   1366                *pBuf++ = statusRec->dataType;
   \                     ??CrossCallReturnLabel_13:
   \   000082   E5..         MOV       A,?V12
   \   000084   12....       LCALL     ??Subroutine203_0 & 0xFFFF
   1367          
   1368                pBuf = zclSerializeData( statusRec->dataType, statusRec->attrData, pBuf );
   1369              }
   \                     ??CrossCallReturnLabel_400:
   \   000087   35..         ADDC      A,?V13
   \   000089   8A..         MOV       ?V10,R2
   \   00008B   F5..         MOV       ?V11,A
   \   00008D   8A82         MOV       DPL,R2
   \   00008F   F583         MOV       DPH,A
   \   000091   12....       LCALL     ?Subroutine81 & 0xFFFF
   \                     ??CrossCallReturnLabel_130:
   \   000094   FC           MOV       R4,A
   \   000095   E4           CLR       A
   \   000096   39           ADDC      A,R1
   \   000097   FD           MOV       R5,A
   \   000098   85..82       MOV       DPL,?V12
   \   00009B   85..83       MOV       DPH,?V13
   \   00009E   12....       LCALL     ??Subroutine207_0 & 0xFFFF
   \                     ??CrossCallReturnLabel_448:
   \   0000A1   85..82       MOV       DPL,?V10
   \   0000A4   85..83       MOV       DPH,?V11
   \   0000A7   E0           MOVX      A,@DPTR
   \   0000A8   F9           MOV       R1,A
   \   0000A9   12....       LCALL     `??zclSerializeData::?relay`; Banked call to: zclSerializeData
   \   0000AC   8A..         MOV       ?V10,R2
   \   0000AE   8B..         MOV       ?V11,R3
   \   0000B0   A8..         MOV       R0,?V10
   \   0000B2   A9..         MOV       R1,?V11
   \   0000B4   05..         INC       ?V2
   \                     ??zcl_SendWriteRequest_3:
   \   0000B6   85..82       MOV       DPL,?V4
   \   0000B9   85..83       MOV       DPH,?V5
   \   0000BC   E0           MOVX      A,@DPTR
   \   0000BD   FA           MOV       R2,A
   \   0000BE   E5..         MOV       A,?V2
   \   0000C0   C3           CLR       C
   \   0000C1   9A           SUBB      A,R2
   \   0000C2   40A9         JC        ??zcl_SendWriteRequest_4
   1370          
   1371              status = zcl_SendCommand( srcEP, dstAddr, clusterID, cmd, FALSE,
   1372                                        direction, disableDefaultRsp, 0, seqNum, dataLen, buf );
   \   0000C4                ; Setup parameters for call to function zcl_SendCommand
   \   0000C4   78..         MOV       R0,#?V0
   \   0000C6   12....       LCALL     ?PUSH_XSTACK_I_TWO
   \   0000C9   8E..         MOV       ?V4,R6
   \   0000CB   8F..         MOV       ?V5,R7
   \   0000CD   78..         MOV       R0,#?V4
   \   0000CF   12....       LCALL     ?PUSH_XSTACK_I_TWO
   \   0000D2   741F         MOV       A,#0x1f
   \   0000D4   12....       LCALL     ?XSTACK_DISP0_8
   \   0000D7   12....       LCALL     ??Subroutine221_0 & 0xFFFF
   \                     ??CrossCallReturnLabel_499:
   \   0000DA   12....       LCALL     ?PUSH_XSTACK_I_ONE
   \   0000DD   E4           CLR       A
   \   0000DE   F5..         MOV       ?V4,A
   \   0000E0   F5..         MOV       ?V5,A
   \   0000E2   78..         MOV       R0,#?V4
   \   0000E4   12....       LCALL     ?PUSH_XSTACK_I_TWO
   \   0000E7   7421         MOV       A,#0x21
   \   0000E9   12....       LCALL     ?XSTACK_DISP0_8
   \   0000EC   12....       LCALL     ??Subroutine221_0 & 0xFFFF
   \                     ??CrossCallReturnLabel_500:
   \   0000EF   12....       LCALL     ?PUSH_XSTACK_I_ONE
   \   0000F2   7421         MOV       A,#0x21
   \   0000F4   12....       LCALL     ?XSTACK_DISP0_8
   \   0000F7   12....       LCALL     ??Subroutine221_0 & 0xFFFF
   \                     ??CrossCallReturnLabel_501:
   \   0000FA   12....       LCALL     ?PUSH_XSTACK_I_ONE
   \   0000FD   75..00       MOV       ?V2,#0x0
   \   000100   78..         MOV       R0,#?V2
   \   000102   12....       LCALL     ?PUSH_XSTACK_I_ONE
   \   000105   7422         MOV       A,#0x22
   \   000107   12....       LCALL     ?XSTACK_DISP0_8
   \   00010A   12....       LCALL     ??Subroutine221_0 & 0xFFFF
   \                     ??CrossCallReturnLabel_502:
   \   00010D   12....       LCALL     ?PUSH_XSTACK_I_ONE
   \   000110   AC..         MOV       R4,?V6
   \   000112   AD..         MOV       R5,?V7
   \   000114   AA..         MOV       R2,?V8
   \   000116   AB..         MOV       R3,?V9
   \   000118   A9..         MOV       R1,?V3
   \   00011A   12....       LCALL     ??Subroutine189_0 & 0xFFFF
   \                     ??CrossCallReturnLabel_327:
   \   00011D   12....       LCALL     ?DEALLOC_XSTACK8
   \   000120   E9           MOV       A,R1
   \   000121   FE           MOV       R6,A
   1373              zcl_mem_free( buf );
   \   000122                ; Setup parameters for call to function osal_mem_free
   \   000122   AA..         MOV       R2,?V0
   \   000124   AB..         MOV       R3,?V1
   \   000126   12....       LCALL     `??osal_mem_free::?relay`; Banked call to: osal_mem_free
   \   000129   8002         SJMP      ??zcl_SendWriteRequest_5
   1374            }
   1375            else
   1376            {
   1377              status = ZMemError;
   \                     ??zcl_SendWriteRequest_2:
   \   00012B   7E10         MOV       R6,#0x10
   1378            }
   1379          
   1380            return ( status);
   \                     ??zcl_SendWriteRequest_5:
   \   00012D   EE           MOV       A,R6
   \   00012E   F9           MOV       R1,A
   \   00012F   02....       LJMP      ??Subroutine186_0 & 0xFFFF
   1381          }

   \                                 In  segment BANKED_CODE, align 1, keep-with-next
   \                     ?Subroutine81:
   \   000000   12....       LCALL     ?Subroutine157 & 0xFFFF
   \                     ??CrossCallReturnLabel_268:
   \   000003   A3           INC       DPTR
   \   000004   F0           MOVX      @DPTR,A
   \   000005                ; Setup parameters for call to function zclSerializeData
   \   000005   E8           MOV       A,R0
   \   000006   2403         ADD       A,#0x3
   \   000008   22           RET

   \                                 In  segment BANKED_CODE, align 1, keep-with-next
   \                     ?Subroutine20:
   \   000000   E0           MOVX      A,@DPTR
   \   000001   8882         MOV       DPL,R0
   \   000003   8983         MOV       DPH,R1
   \   000005   12....       LCALL     ?Subroutine146 & 0xFFFF
   \                     ??CrossCallReturnLabel_249:
   \   000008   12....       LCALL     ?Subroutine157 & 0xFFFF
   \                     ??CrossCallReturnLabel_266:
   \   00000B   F0           MOVX      @DPTR,A
   \   00000C   22           RET

   \                                 In  segment BANKED_CODE, align 1, keep-with-next
   \                     ?Subroutine99:
   \   000000   12....       LCALL     ?Subroutine158 & 0xFFFF
   \                     ??CrossCallReturnLabel_272:
   \   000003   22           RET

   \                                 In  segment BANKED_CODE, align 1, keep-with-next
   \                     ??Subroutine203_0:
   \   000000   2402         ADD       A,#0x2
   \   000002   FA           MOV       R2,A
   \   000003   E4           CLR       A
   \   000004   22           RET

   \                                 In  segment BANKED_CODE, align 1, keep-with-next
   \                     ??Subroutine207_0:
   \   000000   A3           INC       DPTR
   \   000001   A3           INC       DPTR
   \   000002   A3           INC       DPTR
   \   000003                REQUIRE ??Subroutine208_0
   \   000003                ; // Fall through to label ??Subroutine208_0

   \                                 In  segment BANKED_CODE, align 1, keep-with-next
   \                     ??Subroutine221_0:
   \   000000   E0           MOVX      A,@DPTR
   \   000001   F5..         MOV       ?V2,A
   \   000003   78..         MOV       R0,#?V2
   \   000005   22           RET
   1382          
   1383          /*********************************************************************
   1384           * @fn      zcl_SendWriteRsp
   1385           *
   1386           * @brief   Send a Write Response command
   1387           *
   1388           * @param   dstAddr - destination address
   1389           * @param   clusterID - cluster ID
   1390           * @param   wrtieRspCmd - write response command to be sent
   1391           * @param   direction - direction of the command
   1392           * @param   seqNum - transaction sequence number
   1393           *
   1394           * @return  ZSuccess if OK
   1395           */

   \                                 In  segment BANKED_CODE, align 1, keep-with-next
   1396          ZStatus_t zcl_SendWriteRsp( uint8 srcEP, afAddrType_t *dstAddr,
   \                     zcl_SendWriteRsp:
   1397                                      uint16 clusterID, zclWriteRspCmd_t *writeRspCmd,
   1398                                      uint8 direction, uint8 disableDefaultRsp, uint8 seqNum )
   1399          {
   \   000000                REQUIRE ?V0
   \   000000                REQUIRE ?V1
   \   000000                REQUIRE ?V2
   \   000000                REQUIRE ?V3
   \   000000                REQUIRE ?V4
   \   000000                REQUIRE ?V5
   \   000000                REQUIRE ?V6
   \   000000                REQUIRE ?V7
   \   000000                REQUIRE ?V8
   \   000000                REQUIRE ?V9
   \   000000                REQUIRE ?V10
   \   000000                REQUIRE ?V11
   \   000000   74EC         MOV       A,#-0x14
   \   000002   12....       LCALL     ?BANKED_ENTER_XDATA
   \   000005                ; Saved register size: 20
   \   000005                ; Auto size: 0
   \   000005   89..         MOV       ?V2,R1
   \   000007   8A..         MOV       ?V8,R2
   \   000009   8B..         MOV       ?V9,R3
   \   00000B   EC           MOV       A,R4
   \   00000C   FE           MOV       R6,A
   \   00000D   ED           MOV       A,R5
   \   00000E   FF           MOV       R7,A
   \   00000F   7414         MOV       A,#0x14
   \   000011   12....       LCALL     ?XSTACK_DISP0_8
   \   000014   12....       LCALL     ?Subroutine76 & 0xFFFF
   1400            uint16 dataLen;
   1401            uint8 *buf;
   1402            ZStatus_t status;
   1403          
   1404            dataLen = writeRspCmd->numAttr * ( 1 + 2 ); // status + attribute id
   \                     ??CrossCallReturnLabel_121:
   \   000017   75F003       MOV       B,#0x3
   \   00001A   A4           MUL       AB
   \   00001B   F5..         MOV       ?V6,A
   \   00001D   E5F0         MOV       A,B
   \   00001F   12....       LCALL     ?Subroutine115 & 0xFFFF
   1405          
   1406            buf = zcl_mem_alloc( dataLen );
   1407            if ( buf != NULL )
   \                     ??CrossCallReturnLabel_558:
   \   000022   7003         JNZ       $+5
   \   000024   02....       LJMP      ??zcl_SendWriteRsp_0 & 0xFFFF
   1408            {
   1409              // Load the buffer - serially
   1410              uint8 i;
   1411              uint8 *pBuf = buf;
   \   000027   A8..         MOV       R0,?V0
   \   000029   A9..         MOV       R1,?V1
   1412              for ( i = 0; i < writeRspCmd->numAttr; i++ )
   \   00002B   7C00         MOV       R4,#0x0
   \   00002D   8035         SJMP      ??zcl_SendWriteRsp_1
   1413              {
   1414                *pBuf++ = writeRspCmd->attrList[i].status;
   \                     ??zcl_SendWriteRsp_2:
   \   00002F   EC           MOV       A,R4
   \   000030   75F003       MOV       B,#0x3
   \   000033   A4           MUL       AB
   \   000034   FA           MOV       R2,A
   \   000035   ABF0         MOV       R3,B
   \   000037   E5..         MOV       A,?V4
   \   000039   2A           ADD       A,R2
   \   00003A   FA           MOV       R2,A
   \   00003B   E5..         MOV       A,?V5
   \   00003D   3B           ADDC      A,R3
   \   00003E   FB           MOV       R3,A
   \   00003F   8A82         MOV       DPL,R2
   \   000041   F583         MOV       DPH,A
   \   000043   A3           INC       DPTR
   \   000044   12....       LCALL     ?Subroutine96 & 0xFFFF
   \                     ??CrossCallReturnLabel_155:
   \   000047   F0           MOVX      @DPTR,A
   1415                *pBuf++ = LO_UINT16( writeRspCmd->attrList[i].attrID );
   \   000048   EA           MOV       A,R2
   \   000049   2402         ADD       A,#0x2
   \   00004B   FA           MOV       R2,A
   \   00004C   5001         JNC       ??zcl_SendWriteRsp_3
   \   00004E   0B           INC       R3
   \                     ??zcl_SendWriteRsp_3:
   \   00004F   F582         MOV       DPL,A
   \   000051   8B83         MOV       DPH,R3
   \   000053   12....       LCALL     ?Subroutine96 & 0xFFFF
   1416                *pBuf++ = HI_UINT16( writeRspCmd->attrList[i].attrID );
   1417              }
   \                     ??CrossCallReturnLabel_156:
   \   000056   A3           INC       DPTR
   \   000057   12....       LCALL     ?Subroutine23 & 0xFFFF
   \                     ??CrossCallReturnLabel_20:
   \   00005A   A3           INC       DPTR
   \   00005B   F0           MOVX      @DPTR,A
   \   00005C   E8           MOV       A,R0
   \   00005D   2403         ADD       A,#0x3
   \   00005F   F8           MOV       R0,A
   \   000060   5001         JNC       ??zcl_SendWriteRsp_4
   \   000062   09           INC       R1
   \                     ??zcl_SendWriteRsp_4:
   \   000063   0C           INC       R4
   \                     ??zcl_SendWriteRsp_1:
   \   000064   85..82       MOV       DPL,?V4
   \   000067   85..83       MOV       DPH,?V5
   \   00006A   E0           MOVX      A,@DPTR
   \   00006B   FA           MOV       R2,A
   \   00006C   EC           MOV       A,R4
   \   00006D   C3           CLR       C
   \   00006E   9A           SUBB      A,R2
   \   00006F   40BE         JC        ??zcl_SendWriteRsp_2
   1418          
   1419              // If there's only a single status record and its status field is set to
   1420              // SUCCESS then omit the attribute ID field.
   1421              if ( writeRspCmd->numAttr == 1 && writeRspCmd->attrList[0].status == ZCL_STATUS_SUCCESS )
   \   000071   7401         MOV       A,#0x1
   \   000073   6A           XRL       A,R2
   \   000074   700A         JNZ       ??zcl_SendWriteRsp_5
   \   000076   A3           INC       DPTR
   \   000077   E0           MOVX      A,@DPTR
   \   000078   7006         JNZ       ??zcl_SendWriteRsp_5
   1422              {
   1423                dataLen = 1;
   \   00007A   75..01       MOV       ?V6,#0x1
   \   00007D   75..00       MOV       ?V7,#0x0
   1424              }
   1425          
   1426              status = zcl_SendCommand( srcEP, dstAddr, clusterID, ZCL_CMD_WRITE_RSP, FALSE,
   1427                                        direction, disableDefaultRsp, 0, seqNum, dataLen, buf );
   \                     ??zcl_SendWriteRsp_5:
   \   000080                ; Setup parameters for call to function zcl_SendCommand
   \   000080   78..         MOV       R0,#?V0
   \   000082   12....       LCALL     ?PUSH_XSTACK_I_TWO
   \   000085   78..         MOV       R0,#?V6
   \   000087   12....       LCALL     ?PUSH_XSTACK_I_TWO
   \   00008A   741C         MOV       A,#0x1c
   \   00008C   12....       LCALL     ?XSTACK_DISP0_8
   \   00008F   12....       LCALL     ?Subroutine60 & 0xFFFF
   \                     ??CrossCallReturnLabel_83:
   \   000092   12....       LCALL     ?PUSH_XSTACK_I_ONE
   \   000095   E4           CLR       A
   \   000096   F5..         MOV       ?V4,A
   \   000098   F5..         MOV       ?V5,A
   \   00009A   78..         MOV       R0,#?V4
   \   00009C   12....       LCALL     ?PUSH_XSTACK_I_TWO
   \   00009F   741E         MOV       A,#0x1e
   \   0000A1   12....       LCALL     ?XSTACK_DISP0_8
   \   0000A4   12....       LCALL     ?Subroutine60 & 0xFFFF
   \                     ??CrossCallReturnLabel_84:
   \   0000A7   12....       LCALL     ?PUSH_XSTACK_I_ONE
   \   0000AA   741E         MOV       A,#0x1e
   \   0000AC   12....       LCALL     ?XSTACK_DISP0_8
   \   0000AF   12....       LCALL     ?Subroutine60 & 0xFFFF
   \                     ??CrossCallReturnLabel_85:
   \   0000B2   12....       LCALL     ?PUSH_XSTACK_I_ONE
   \   0000B5   75..00       MOV       ?V3,#0x0
   \   0000B8   78..         MOV       R0,#?V3
   \   0000BA   12....       LCALL     ?PUSH_XSTACK_I_ONE
   \   0000BD   75..04       MOV       ?V3,#0x4
   \   0000C0   78..         MOV       R0,#?V3
   \   0000C2   12....       LCALL     ?PUSH_XSTACK_I_ONE
   \   0000C5   12....       LCALL     ?Subroutine134 & 0xFFFF
   \                     ??CrossCallReturnLabel_324:
   \   0000C8   12....       LCALL     ?DEALLOC_XSTACK8
   \   0000CB   E9           MOV       A,R1
   \   0000CC   FE           MOV       R6,A
   1428              zcl_mem_free( buf );
   \   0000CD                ; Setup parameters for call to function osal_mem_free
   \   0000CD   AA..         MOV       R2,?V0
   \   0000CF   AB..         MOV       R3,?V1
   \   0000D1   12....       LCALL     `??osal_mem_free::?relay`; Banked call to: osal_mem_free
   \   0000D4   8002         SJMP      ??zcl_SendWriteRsp_6
   1429            }
   1430            else
   1431            {
   1432              status = ZMemError;
   \                     ??zcl_SendWriteRsp_0:
   \   0000D6   7E10         MOV       R6,#0x10
   1433            }
   1434          
   1435            return ( status );
   \                     ??zcl_SendWriteRsp_6:
   \   0000D8   02....       LJMP      ?Subroutine10 & 0xFFFF
   1436          }
   1437          #endif // ZCL_WRITE
   1438          
   1439          #ifdef ZCL_REPORT_CONFIGURING_DEVICE
   1440          /*********************************************************************
   1441           * @fn      zcl_SendConfigReportCmd
   1442           *
   1443           * @brief   Send a Configure Reporting command
   1444           *
   1445           * @param   dstAddr - destination address
   1446           * @param   clusterID - cluster ID
   1447           * @param   cfgReportCmd - configure reporting command to be sent
   1448           * @param   direction - direction of the command
   1449           * @param   seqNum - transaction sequence number
   1450           *
   1451           * @return  ZSuccess if OK
   1452           */
   1453          ZStatus_t zcl_SendConfigReportCmd( uint8 srcEP, afAddrType_t *dstAddr,
   1454                                    uint16 clusterID, zclCfgReportCmd_t *cfgReportCmd,
   1455                                    uint8 direction, uint8 disableDefaultRsp, uint8 seqNum )
   1456          {
   1457            uint8 *buf;
   1458            uint16 dataLen = 0;
   1459            ZStatus_t status;
   1460            uint8 i;
   1461          
   1462            // Find out the data length
   1463            for ( i = 0; i < cfgReportCmd->numAttr; i++ )
   1464            {
   1465              zclCfgReportRec_t *reportRec = &(cfgReportCmd->attrList[i]);
   1466          
   1467              dataLen += 1 + 2; // Direction + Attribute ID
   1468          
   1469              if ( reportRec->direction == ZCL_SEND_ATTR_REPORTS )
   1470              {
   1471                dataLen += 1 + 2 + 2; // Data Type + Min + Max Reporting Intervals
   1472          
   1473                // Find out the size of the Reportable Change field (for Analog data types)
   1474                if ( zclAnalogDataType( reportRec->dataType ) )
   1475                {
   1476                  dataLen += zclGetDataTypeLength( reportRec->dataType );
   1477                }
   1478              }
   1479              else
   1480              {
   1481                dataLen += 2; // Timeout Period
   1482              }
   1483            }
   1484          
   1485            buf = zcl_mem_alloc( dataLen );
   1486            if ( buf != NULL )
   1487            {
   1488              // Load the buffer - serially
   1489              uint8 *pBuf = buf;
   1490          
   1491              for ( i = 0; i < cfgReportCmd->numAttr; i++ )
   1492              {
   1493                zclCfgReportRec_t *reportRec = &(cfgReportCmd->attrList[i]);
   1494          
   1495                *pBuf++ = reportRec->direction;
   1496                *pBuf++ = LO_UINT16( reportRec->attrID );
   1497                *pBuf++ = HI_UINT16( reportRec->attrID );
   1498          
   1499                if ( reportRec->direction == ZCL_SEND_ATTR_REPORTS )
   1500                {
   1501                  *pBuf++ = reportRec->dataType;
   1502                  *pBuf++ = LO_UINT16( reportRec->minReportInt );
   1503                  *pBuf++ = HI_UINT16( reportRec->minReportInt );
   1504                  *pBuf++ = LO_UINT16( reportRec->maxReportInt );
   1505                  *pBuf++ = HI_UINT16( reportRec->maxReportInt );
   1506          
   1507                  if ( zclAnalogDataType( reportRec->dataType ) )
   1508                  {
   1509                    pBuf = zclSerializeData( reportRec->dataType, reportRec->reportableChange, pBuf );
   1510                  }
   1511                }
   1512                else
   1513                {
   1514                  *pBuf++ = LO_UINT16( reportRec->timeoutPeriod );
   1515                  *pBuf++ = HI_UINT16( reportRec->timeoutPeriod );
   1516                }
   1517              } // for loop
   1518          
   1519              status = zcl_SendCommand( srcEP, dstAddr, clusterID, ZCL_CMD_CONFIG_REPORT, FALSE,
   1520                                        direction, disableDefaultRsp, 0, seqNum, dataLen, buf );
   1521              zcl_mem_free( buf );
   1522            }
   1523            else
   1524            {
   1525              status = ZMemError;
   1526            }
   1527          
   1528            return ( status );
   1529          }
   1530          #endif
   1531          
   1532          #ifdef ZCL_REPORTING_DEVICE
   1533          /*********************************************************************
   1534           * @fn      zcl_SendConfigReportRspCmd
   1535           *
   1536           * @brief   Send a Configure Reporting Response command
   1537           *
   1538           * @param   dstAddr - destination address
   1539           * @param   clusterID - cluster ID
   1540           * @param   cfgReportRspCmd - configure reporting response command to be sent
   1541           * @param   direction - direction of the command
   1542           * @param   seqNum - transaction sequence number
   1543           *
   1544           * @return  ZSuccess if OK
   1545           */
   1546          ZStatus_t zcl_SendConfigReportRspCmd( uint8 srcEP, afAddrType_t *dstAddr,
   1547                              uint16 clusterID, zclCfgReportRspCmd_t *cfgReportRspCmd,
   1548                              uint8 direction, uint8 disableDefaultRsp, uint8 seqNum )
   1549          {
   1550            uint16 dataLen;
   1551            uint8 *buf;
   1552            ZStatus_t status;
   1553          
   1554            // Atrribute list (Status, Direction and Attribute ID)
   1555            dataLen = cfgReportRspCmd->numAttr * ( 1 + 1 + 2 );
   1556          
   1557            buf = zcl_mem_alloc( dataLen );
   1558            if ( buf != NULL )
   1559            {
   1560              // Load the buffer - serially
   1561              uint8 *pBuf = buf;
   1562              uint8 i;
   1563          
   1564              for ( i = 0; i < cfgReportRspCmd->numAttr; i++ )
   1565              {
   1566                *pBuf++ = cfgReportRspCmd->attrList[i].status;
   1567                *pBuf++ = cfgReportRspCmd->attrList[i].direction;
   1568                *pBuf++ = LO_UINT16( cfgReportRspCmd->attrList[i].attrID );
   1569                *pBuf++ = HI_UINT16( cfgReportRspCmd->attrList[i].attrID );
   1570              }
   1571          
   1572              // If there's only a single status record and its status field is set to
   1573              // SUCCESS then omit the attribute ID field.
   1574              if ( cfgReportRspCmd->numAttr == 1 && cfgReportRspCmd->attrList[0].status == ZCL_STATUS_SUCCESS )
   1575              {
   1576                dataLen = 1;
   1577              }
   1578          
   1579              status = zcl_SendCommand( srcEP, dstAddr, clusterID,
   1580                                        ZCL_CMD_CONFIG_REPORT_RSP, FALSE, direction,
   1581                                        disableDefaultRsp, 0, seqNum, dataLen, buf );
   1582              zcl_mem_free( buf );
   1583            }
   1584            else
   1585            {
   1586              status = ZMemError;
   1587            }
   1588          
   1589            return ( status );
   1590          }
   1591          #endif
   1592          
   1593          #ifdef ZCL_REPORT_CONFIGURING_DEVICE
   1594          /*********************************************************************
   1595           * @fn      zcl_SendReadReportCfgCmd
   1596           *
   1597           * @brief   Send a Read Reporting Configuration command
   1598           *
   1599           * @param   dstAddr - destination address
   1600           * @param   clusterID - cluster ID
   1601           * @param   readReportCfgCmd - read reporting configuration command to be sent
   1602           * @param   direction - direction of the command
   1603           * @param   seqNum - transaction sequence number
   1604           *
   1605           * @return  ZSuccess if OK
   1606           */
   1607          ZStatus_t zcl_SendReadReportCfgCmd( uint8 srcEP, afAddrType_t *dstAddr,
   1608                            uint16 clusterID, zclReadReportCfgCmd_t *readReportCfgCmd,
   1609                            uint8 direction, uint8 disableDefaultRsp, uint8 seqNum )
   1610          {
   1611            uint16 dataLen;
   1612            uint8 *buf;
   1613            ZStatus_t status;
   1614          
   1615            dataLen = readReportCfgCmd->numAttr * ( 1 + 2 ); // Direction + Atrribute ID
   1616          
   1617            buf = zcl_mem_alloc( dataLen );
   1618            if ( buf != NULL )
   1619            {
   1620              // Load the buffer - serially
   1621              uint8 *pBuf = buf;
   1622              uint8 i;
   1623          
   1624              for ( i = 0; i < readReportCfgCmd->numAttr; i++ )
   1625              {
   1626                *pBuf++ = readReportCfgCmd->attrList[i].direction;
   1627                *pBuf++ = LO_UINT16( readReportCfgCmd->attrList[i].attrID );
   1628                *pBuf++ = HI_UINT16( readReportCfgCmd->attrList[i].attrID );
   1629              }
   1630          
   1631              status = zcl_SendCommand( srcEP, dstAddr, clusterID, ZCL_CMD_READ_REPORT_CFG, FALSE,
   1632                                        direction, disableDefaultRsp, 0, seqNum, dataLen, buf );
   1633              zcl_mem_free( buf );
   1634            }
   1635            else
   1636            {
   1637              status = ZMemError;
   1638            }
   1639          
   1640            return ( status );
   1641          }
   1642          #endif
   1643          
   1644          #ifdef ZCL_REPORTING_DEVICE
   1645          /*********************************************************************
   1646           * @fn      zcl_SendReadReportCfgRspCmd
   1647           *
   1648           * @brief   Send a Read Reporting Configuration Response command
   1649           *
   1650           * @param   dstAddr - destination address
   1651           * @param   clusterID - cluster ID
   1652           * @param   readReportCfgRspCmd - read reporting configuration response command to be sent
   1653           * @param   direction - direction of the command
   1654           * @param   seqNum - transaction sequence number
   1655           *
   1656           * @return  ZSuccess if OK
   1657           */
   1658          ZStatus_t zcl_SendReadReportCfgRspCmd( uint8 srcEP, afAddrType_t *dstAddr,
   1659                       uint16 clusterID, zclReadReportCfgRspCmd_t *readReportCfgRspCmd,
   1660                       uint8 direction, uint8 disableDefaultRsp, uint8 seqNum )
   1661          {
   1662            uint8 *buf;
   1663            uint16 dataLen = 0;
   1664            ZStatus_t status;
   1665            uint8 i;
   1666          
   1667            // Find out the data length
   1668            for ( i = 0; i < readReportCfgRspCmd->numAttr; i++ )
   1669            {
   1670              zclReportCfgRspRec_t *reportRspRec = &(readReportCfgRspCmd->attrList[i]);
   1671          
   1672              dataLen += 1 + 1 + 2 ; // Status, Direction and Atrribute ID
   1673          
   1674              if ( reportRspRec->status == ZCL_STATUS_SUCCESS )
   1675              {
   1676                if ( reportRspRec->direction == ZCL_SEND_ATTR_REPORTS )
   1677                {
   1678                  dataLen += 1 + 2 + 2; // Data Type + Min + Max Reporting Intervals
   1679          
   1680                  // Find out the size of the Reportable Change field (for Analog data types)
   1681                  if ( zclAnalogDataType( reportRspRec->dataType ) )
   1682                  {
   1683                    dataLen += zclGetDataTypeLength( reportRspRec->dataType );
   1684                  }
   1685                }
   1686                else
   1687                {
   1688                  dataLen += 2; // Timeout Period
   1689                }
   1690              }
   1691            }
   1692          
   1693            buf = zcl_mem_alloc( dataLen );
   1694            if ( buf != NULL )
   1695            {
   1696              // Load the buffer - serially
   1697              uint8 *pBuf = buf;
   1698          
   1699              for ( i = 0; i < readReportCfgRspCmd->numAttr; i++ )
   1700              {
   1701                zclReportCfgRspRec_t *reportRspRec = &(readReportCfgRspCmd->attrList[i]);
   1702          
   1703                *pBuf++ = reportRspRec->status;
   1704                *pBuf++ = reportRspRec->direction;
   1705                *pBuf++ = LO_UINT16( reportRspRec->attrID );
   1706                *pBuf++ = HI_UINT16( reportRspRec->attrID );
   1707          
   1708                if ( reportRspRec->status == ZCL_STATUS_SUCCESS )
   1709                {
   1710                  if ( reportRspRec->direction == ZCL_SEND_ATTR_REPORTS )
   1711                  {
   1712                    *pBuf++ = reportRspRec->dataType;
   1713                    *pBuf++ = LO_UINT16( reportRspRec->minReportInt );
   1714                    *pBuf++ = HI_UINT16( reportRspRec->minReportInt );
   1715                    *pBuf++ = LO_UINT16( reportRspRec->maxReportInt );
   1716                    *pBuf++ = HI_UINT16( reportRspRec->maxReportInt );
   1717          
   1718                    if ( zclAnalogDataType( reportRspRec->dataType ) )
   1719                    {
   1720                      pBuf = zclSerializeData( reportRspRec->dataType,
   1721                                               reportRspRec->reportableChange, pBuf );
   1722                    }
   1723                  }
   1724                  else
   1725                  {
   1726                    *pBuf++ = LO_UINT16( reportRspRec->timeoutPeriod );
   1727                    *pBuf++ = HI_UINT16( reportRspRec->timeoutPeriod );
   1728                  }
   1729                }
   1730              }
   1731          
   1732              status = zcl_SendCommand( srcEP, dstAddr, clusterID,
   1733                                        ZCL_CMD_READ_REPORT_CFG_RSP, FALSE,
   1734                                        direction, disableDefaultRsp, 0, seqNum, dataLen, buf );
   1735              zcl_mem_free( buf );
   1736            }
   1737            else
   1738            {
   1739              status = ZMemError;
   1740            }
   1741          
   1742            return ( status );
   1743          }
   1744          
   1745          /*********************************************************************
   1746           * @fn      zcl_SendReportCmd
   1747           *
   1748           * @brief   Send a Report command
   1749           *
   1750           * @param   dstAddr - destination address
   1751           * @param   clusterID - cluster ID
   1752           * @param   reportCmd - report command to be sent
   1753           * @param   direction - direction of the command
   1754           * @param   seqNum - transaction sequence number
   1755           *
   1756           * @return  ZSuccess if OK
   1757           */
   1758          ZStatus_t zcl_SendReportCmd( uint8 srcEP, afAddrType_t *dstAddr,
   1759                                       uint16 clusterID, zclReportCmd_t *reportCmd,
   1760                                       uint8 direction, uint8 disableDefaultRsp, uint8 seqNum )
   1761          {
   1762            uint16 dataLen = 0;
   1763            uint8 *buf;
   1764            ZStatus_t status;
   1765            uint8 i;
   1766          
   1767            // calculate the size of the command
   1768            for ( i = 0; i < reportCmd->numAttr; i++ )
   1769            {
   1770              zclReport_t *reportRec = &(reportCmd->attrList[i]);
   1771          
   1772              dataLen += 2 + 1; // Attribute ID + data type
   1773          
   1774              // Attribute Data
   1775              dataLen += zclGetAttrDataLength( reportRec->dataType, reportRec->attrData );
   1776            }
   1777          
   1778            buf = zcl_mem_alloc( dataLen );
   1779            if ( buf != NULL )
   1780            {
   1781              // Load the buffer - serially
   1782              uint8 *pBuf = buf;
   1783          
   1784              for ( i = 0; i < reportCmd->numAttr; i++ )
   1785              {
   1786                zclReport_t *reportRec = &(reportCmd->attrList[i]);
   1787          
   1788                *pBuf++ = LO_UINT16( reportRec->attrID );
   1789                *pBuf++ = HI_UINT16( reportRec->attrID );
   1790                *pBuf++ = reportRec->dataType;
   1791          
   1792                pBuf = zclSerializeData( reportRec->dataType, reportRec->attrData, pBuf );
   1793              }
   1794          
   1795              status = zcl_SendCommand( srcEP, dstAddr, clusterID, ZCL_CMD_REPORT, FALSE,
   1796                                        direction, disableDefaultRsp, 0, seqNum, dataLen, buf );
   1797              zcl_mem_free( buf );
   1798            }
   1799            else
   1800            {
   1801              status = ZMemError;
   1802            }
   1803          
   1804            return ( status );
   1805          }
   1806          #endif
   1807          
   1808          /*********************************************************************
   1809           * @fn      zcl_SendDefaultRspCmd
   1810           *
   1811           * @brief   Send a Default Response command
   1812           *
   1813           *          Note: The manufacturer code field should be set if this
   1814           *          command is being sent in response to a manufacturer specific
   1815           *          command.
   1816           *
   1817           * @param   dstAddr - destination address
   1818           * @param   clusterID - cluster ID
   1819           * @param   defaultRspCmd - default response command to be sent
   1820           * @param   direction - direction of the command
   1821           * @param   manuCode - manufacturer code for proprietary extensions to a profile
   1822           * @param   seqNum - transaction sequence number
   1823           *
   1824           * @return  ZSuccess if OK
   1825           */

   \                                 In  segment BANKED_CODE, align 1, keep-with-next
   1826          ZStatus_t zcl_SendDefaultRspCmd( uint8 srcEP, afAddrType_t *dstAddr, uint16 clusterID,
   \                     zcl_SendDefaultRspCmd:
   1827                                           zclDefaultRspCmd_t *defaultRspCmd, uint8 direction,
   1828                                           uint8 disableDefaultRsp, uint16 manuCode, uint8 seqNum )
   1829          {
   \   000000                REQUIRE ?V0
   \   000000                REQUIRE ?V1
   \   000000   74F6         MOV       A,#-0xa
   \   000002   12....       LCALL     ?BANKED_ENTER_XDATA
   \   000005                ; Saved register size: 10
   \   000005                ; Auto size: 2
   \   000005   74FE         MOV       A,#-0x2
   \   000007   12....       LCALL     ?ALLOC_XSTACK8
   \   00000A   E9           MOV       A,R1
   \   00000B   FE           MOV       R6,A
   \   00000C   740C         MOV       A,#0xc
   \   00000E   12....       LCALL     ?XSTACK_DISP0_8
   \   000011   12....       LCALL     ?Subroutine18 & 0xFFFF
   1830            uint8 buf[2]; // Command ID and Status;
   1831          
   1832            // Load the buffer - serially
   1833            buf[0] = defaultRspCmd->commandID;
   1834            buf[1] = defaultRspCmd->statusCode;
   \                     ??CrossCallReturnLabel_318:
   \   000014   C0E0         PUSH      A
   \   000016   7401         MOV       A,#0x1
   \   000018   12....       LCALL     ?XSTACK_DISP0_8
   \   00001B   D0E0         POP       A
   \   00001D   F0           MOVX      @DPTR,A
   1835          
   1836            return ( zcl_SendCommand( srcEP, dstAddr, clusterID, ZCL_CMD_DEFAULT_RSP, FALSE,
   1837                                      direction, disableDefaultRsp, manuCode, seqNum, 2, buf ) );
   \   00001E                ; Setup parameters for call to function zcl_SendCommand
   \   00001E   A8..         MOV       R0,?XSP + 0
   \   000020   A9..         MOV       R1,?XSP + 1
   \   000022   88..         MOV       ?V0,R0
   \   000024   89..         MOV       ?V1,R1
   \   000026   78..         MOV       R0,#?V0
   \   000028   12....       LCALL     ?PUSH_XSTACK_I_TWO
   \   00002B   75..02       MOV       ?V0,#0x2
   \   00002E   75..00       MOV       ?V1,#0x0
   \   000031   78..         MOV       R0,#?V0
   \   000033   12....       LCALL     ?PUSH_XSTACK_I_TWO
   \   000036   7416         MOV       A,#0x16
   \   000038   12....       LCALL     ?XSTACK_DISP0_8
   \   00003B   12....       LCALL     ?Subroutine63 & 0xFFFF
   \                     ??CrossCallReturnLabel_96:
   \   00003E   12....       LCALL     ?PUSH_XSTACK_I_ONE
   \   000041   7415         MOV       A,#0x15
   \   000043   12....       LCALL     ?XSTACK_DISP0_8
   \   000046   12....       LCALL     ?PUSH_XSTACK8_X_TWO
   \   000049   7416         MOV       A,#0x16
   \   00004B   12....       LCALL     ?XSTACK_DISP0_8
   \   00004E   12....       LCALL     ?Subroutine63 & 0xFFFF
   \                     ??CrossCallReturnLabel_97:
   \   000051   12....       LCALL     ?PUSH_XSTACK_I_ONE
   \   000054   7416         MOV       A,#0x16
   \   000056   12....       LCALL     ?XSTACK_DISP0_8
   \   000059   12....       LCALL     ?Subroutine63 & 0xFFFF
   \                     ??CrossCallReturnLabel_98:
   \   00005C   12....       LCALL     ?PUSH_XSTACK_I_ONE
   \   00005F   75..00       MOV       ?V0,#0x0
   \   000062   78..         MOV       R0,#?V0
   \   000064   12....       LCALL     ?PUSH_XSTACK_I_ONE
   \   000067   75..0B       MOV       ?V0,#0xb
   \   00006A   78..         MOV       R0,#?V0
   \   00006C   12....       LCALL     ?PUSH_XSTACK_I_ONE
   \   00006F   EE           MOV       A,R6
   \   000070   F9           MOV       R1,A
   \   000071   12....       LCALL     ??Subroutine189_0 & 0xFFFF
   \                     ??CrossCallReturnLabel_328:
   \   000074   12....       LCALL     ?DEALLOC_XSTACK8
   \   000077   7402         MOV       A,#0x2
   \   000079   12....       LCALL     ?DEALLOC_XSTACK8
   \   00007C   02....       LJMP      ?Subroutine3 & 0xFFFF
   1838          }

   \                                 In  segment BANKED_CODE, align 1, keep-with-next
   \                     ?Subroutine18:
   \   000000   12....       LCALL     ?Subroutine163 & 0xFFFF
   \                     ??CrossCallReturnLabel_277:
   \   000003   12....       LCALL     ?Subroutine175 & 0xFFFF
   \                     ??CrossCallReturnLabel_289:
   \   000006                REQUIRE ??Subroutine187_0
   \   000006                ; // Fall through to label ??Subroutine187_0

   \                                 In  segment BANKED_CODE, align 1, keep-with-next
   \                     ??Subroutine187_0:
   \   000000   F0           MOVX      @DPTR,A
   \   000001   8882         MOV       DPL,R0
   \   000003   8983         MOV       DPH,R1
   \   000005   A3           INC       DPTR
   \   000006   E0           MOVX      A,@DPTR
   \   000007   22           RET
   1839          
   1840          #ifdef ZCL_DISCOVER
   1841          /*********************************************************************
   1842           * @fn      zcl_SendDiscoverCmdsCmd
   1843           *
   1844           * @brief   Send a Discover Commands command
   1845           *
   1846           * @param   dstAddr - destination address
   1847           * @param   clusterID - cluster ID
   1848           * @param   cmdType - requesting command ID
   1849           * @param   pDiscoverCmd - discover command to be sent
   1850           * @param   direction - direction of the command
   1851           * @param   seqNum - transaction sequence number
   1852           *
   1853           * @return  ZSuccess if OK
   1854           */

   \                                 In  segment BANKED_CODE, align 1, keep-with-next
   1855          ZStatus_t zcl_SendDiscoverCmdsCmd( uint8 srcEP, afAddrType_t *dstAddr, uint16 clusterID,
   \                     zcl_SendDiscoverCmdsCmd:
   1856                                            uint8 cmdType, zclDiscoverCmdsCmd_t *pDiscoverCmd,
   1857                                            uint8 direction, uint8 disableDefaultRsp, uint8 seqNum )
   1858          {
   \   000000                REQUIRE ?V0
   \   000000                REQUIRE ?V1
   \   000000                REQUIRE ?V2
   \   000000                REQUIRE ?V3
   \   000000   74F4         MOV       A,#-0xc
   \   000002   12....       LCALL     ?BANKED_ENTER_XDATA
   \   000005                ; Saved register size: 12
   \   000005                ; Auto size: 2
   \   000005   74FE         MOV       A,#-0x2
   \   000007   12....       LCALL     ?ALLOC_XSTACK8
   \   00000A   E9           MOV       A,R1
   \   00000B   FE           MOV       R6,A
   \   00000C   740F         MOV       A,#0xf
   \   00000E   12....       LCALL     ?XSTACK_DISP0_8
   \   000011   12....       LCALL     ?Subroutine18 & 0xFFFF
   1859            uint8 payload[2]; // size of startCmdID and maxCmdID
   1860            ZStatus_t status;
   1861          
   1862            payload[0] = pDiscoverCmd->startCmdID;
   1863            payload[1] = pDiscoverCmd->maxCmdID;
   \                     ??CrossCallReturnLabel_319:
   \   000014   C0E0         PUSH      A
   \   000016   7401         MOV       A,#0x1
   \   000018   12....       LCALL     ?XSTACK_DISP0_8
   \   00001B   D0E0         POP       A
   \   00001D   F0           MOVX      @DPTR,A
   \   00001E   7411         MOV       A,#0x11
   \   000020   12....       LCALL     ?XSTACK_DISP0_8
   \   000023   E0           MOVX      A,@DPTR
   \   000024   FF           MOV       R7,A
   \   000025   7412         MOV       A,#0x12
   \   000027   12....       LCALL     ?XSTACK_DISP0_8
   \   00002A   E0           MOVX      A,@DPTR
   \   00002B   F5..         MOV       ?V0,A
   \   00002D   7413         MOV       A,#0x13
   \   00002F   12....       LCALL     ?XSTACK_DISP0_8
   \   000032   E0           MOVX      A,@DPTR
   \   000033   F5..         MOV       ?V1,A
   1864          
   1865            // Send message for either commands received or generated
   1866            if ( cmdType == ZCL_CMD_DISCOVER_CMDS_RECEIVED )
   \   000035   740E         MOV       A,#0xe
   \   000037   12....       LCALL     ?XSTACK_DISP0_8
   \   00003A   E0           MOVX      A,@DPTR
   \   00003B   6411         XRL       A,#0x11
   \   00003D   A8..         MOV       R0,?XSP + 0
   \   00003F   A9..         MOV       R1,?XSP + 1
   \   000041   88..         MOV       ?V2,R0
   \   000043   89..         MOV       ?V3,R1
   \   000045   78..         MOV       R0,#?V2
   \   000047   7035         JNZ       ??zcl_SendDiscoverCmdsCmd_0
   1867            {
   1868              status = zcl_SendCommand( srcEP, dstAddr, clusterID, ZCL_CMD_DISCOVER_CMDS_RECEIVED, FALSE,
   1869                                          direction, disableDefaultRsp, 0, seqNum, sizeof(payload), payload );
   \   000049                ; Setup parameters for call to function zcl_SendCommand
   \   000049   12....       LCALL     ?PUSH_XSTACK_I_TWO
   \   00004C   75..02       MOV       ?V2,#0x2
   \   00004F   75..00       MOV       ?V3,#0x0
   \   000052   78..         MOV       R0,#?V2
   \   000054   12....       LCALL     ?PUSH_XSTACK_I_TWO
   \   000057   78..         MOV       R0,#?V1
   \   000059   12....       LCALL     ?PUSH_XSTACK_I_ONE
   \   00005C   E4           CLR       A
   \   00005D   F5..         MOV       ?V2,A
   \   00005F   78..         MOV       R0,#?V2
   \   000061   12....       LCALL     ?PUSH_XSTACK_I_TWO
   \   000064   78..         MOV       R0,#?V0
   \   000066   12....       LCALL     ?PUSH_XSTACK_I_ONE
   \   000069   EF           MOV       A,R7
   \   00006A   F5..         MOV       ?V0,A
   \   00006C   78..         MOV       R0,#?V0
   \   00006E   12....       LCALL     ?PUSH_XSTACK_I_ONE
   \   000071   75..00       MOV       ?V0,#0x0
   \   000074   78..         MOV       R0,#?V0
   \   000076   12....       LCALL     ?PUSH_XSTACK_I_ONE
   \   000079   75..11       MOV       ?V0,#0x11
   \   00007C   8033         SJMP      ??zcl_SendDiscoverCmdsCmd_1
   1870            }
   1871            else  // generated
   1872            {
   1873              status = zcl_SendCommand( srcEP, dstAddr, clusterID, ZCL_CMD_DISCOVER_CMDS_GEN, FALSE,
   1874                                          direction, disableDefaultRsp, 0, seqNum, sizeof(payload), payload );
   \                     ??zcl_SendDiscoverCmdsCmd_0:
   \   00007E                ; Setup parameters for call to function zcl_SendCommand
   \   00007E   12....       LCALL     ?PUSH_XSTACK_I_TWO
   \   000081   75..02       MOV       ?V2,#0x2
   \   000084   75..00       MOV       ?V3,#0x0
   \   000087   78..         MOV       R0,#?V2
   \   000089   12....       LCALL     ?PUSH_XSTACK_I_TWO
   \   00008C   78..         MOV       R0,#?V1
   \   00008E   12....       LCALL     ?PUSH_XSTACK_I_ONE
   \   000091   E4           CLR       A
   \   000092   F5..         MOV       ?V2,A
   \   000094   78..         MOV       R0,#?V2
   \   000096   12....       LCALL     ?PUSH_XSTACK_I_TWO
   \   000099   78..         MOV       R0,#?V0
   \   00009B   12....       LCALL     ?PUSH_XSTACK_I_ONE
   \   00009E   EF           MOV       A,R7
   \   00009F   F5..         MOV       ?V0,A
   \   0000A1   78..         MOV       R0,#?V0
   \   0000A3   12....       LCALL     ?PUSH_XSTACK_I_ONE
   \   0000A6   75..00       MOV       ?V0,#0x0
   \   0000A9   78..         MOV       R0,#?V0
   \   0000AB   12....       LCALL     ?PUSH_XSTACK_I_ONE
   \   0000AE   75..13       MOV       ?V0,#0x13
   \                     ??zcl_SendDiscoverCmdsCmd_1:
   \   0000B1   78..         MOV       R0,#?V0
   \   0000B3   12....       LCALL     ?PUSH_XSTACK_I_ONE
   \   0000B6   EE           MOV       A,R6
   \   0000B7   F9           MOV       R1,A
   1875            }
   \   0000B8   12....       LCALL     ??Subroutine189_0 & 0xFFFF
   \                     ??CrossCallReturnLabel_329:
   \   0000BB   12....       LCALL     ?DEALLOC_XSTACK8
   \   0000BE   E9           MOV       A,R1
   \   0000BF   F9           MOV       R1,A
   1876          
   1877            return ( status );
   \   0000C0   7402         MOV       A,#0x2
   \   0000C2   02....       LJMP      ?Subroutine1 & 0xFFFF
   1878          }
   1879          
   1880          /*********************************************************************
   1881           * @fn      zcl_SendDiscoverCmdsRspCmd
   1882           *
   1883           * @brief   Send a Discover Commands Response command
   1884           *
   1885           * @param   dstAddr - destination address
   1886           * @param   clusterID - cluster ID
   1887           * @param   pDiscoverRspCmd - response command to be sent
   1888           * @param   direction - direction of the command
   1889           * @param   seqNum - transaction sequence number
   1890           *
   1891           * @return  ZSuccess if OK
   1892           */

   \                                 In  segment BANKED_CODE, align 1, keep-with-next
   1893          ZStatus_t zcl_SendDiscoverCmdsRspCmd( uint8 srcEP, afAddrType_t *dstAddr,
   \                     zcl_SendDiscoverCmdsRspCmd:
   1894                                                uint16 clusterID, zclDiscoverCmdsCmdRsp_t *pDiscoverRspCmd,
   1895                                                uint8 direction, uint8 disableDefaultRsp, uint8 seqNum )
   1896          {
   \   000000                REQUIRE ?V0
   \   000000                REQUIRE ?V1
   \   000000                REQUIRE ?V2
   \   000000                REQUIRE ?V3
   \   000000                REQUIRE ?V4
   \   000000                REQUIRE ?V5
   \   000000                REQUIRE ?V6
   \   000000                REQUIRE ?V7
   \   000000                REQUIRE ?V8
   \   000000                REQUIRE ?V9
   \   000000                REQUIRE ?V10
   \   000000                REQUIRE ?V11
   \   000000                REQUIRE ?V12
   \   000000                REQUIRE ?V13
   \   000000   74EA         MOV       A,#-0x16
   \   000002   12....       LCALL     ?BANKED_ENTER_XDATA
   \   000005                ; Saved register size: 22
   \   000005                ; Auto size: 0
   \   000005   89..         MOV       ?V11,R1
   \   000007   8A..         MOV       ?V8,R2
   \   000009   8B..         MOV       ?V9,R3
   \   00000B   EC           MOV       A,R4
   \   00000C   FE           MOV       R6,A
   \   00000D   ED           MOV       A,R5
   \   00000E   FF           MOV       R7,A
   \   00000F   7416         MOV       A,#0x16
   \   000011   12....       LCALL     ?XSTACK_DISP0_8
   \   000014   12....       LCALL     ??Subroutine230_0 & 0xFFFF
   1897            uint8 payloadSize = ( 1 + pDiscoverRspCmd->numCmd );  // size of discovery complete field plus cmds
   \                     ??CrossCallReturnLabel_566:
   \   000017   E5..         MOV       A,?V2
   \   000019   2402         ADD       A,#0x2
   \   00001B   F5..         MOV       ?V4,A
   \   00001D   E4           CLR       A
   \   00001E   35..         ADDC      A,?V3
   \   000020   F5..         MOV       ?V5,A
   \   000022   85..82       MOV       DPL,?V4
   \   000025   F583         MOV       DPH,A
   \   000027   E0           MOVX      A,@DPTR
   \   000028   04           INC       A
   1898            uint8 *pCmdBuf;
   1899            uint8 i;
   1900            ZStatus_t status = ZSuccess;
   \   000029   75..00       MOV       ?V10,#0x0
   1901          
   1902            // allocate memory
   1903            pCmdBuf = zcl_mem_alloc( payloadSize );
   \   00002C   F5..         MOV       ?V6,A
   \   00002E   75..00       MOV       ?V7,#0x0
   \   000031                ; Setup parameters for call to function osal_mem_alloc
   \   000031   FA           MOV       R2,A
   \   000032   AB..         MOV       R3,?V7
   \   000034   12....       LCALL     ??Subroutine229_0 & 0xFFFF
   1904            if ( pCmdBuf != NULL )
   \                     ??CrossCallReturnLabel_565:
   \   000037   7003         JNZ       $+5
   \   000039   02....       LJMP      ??zcl_SendDiscoverCmdsRspCmd_0 & 0xFFFF
   1905            {
   1906              uint8 *pBuf = pCmdBuf;
   1907          
   1908              // Load the buffer - serially
   1909              *pBuf++ = pDiscoverRspCmd->discComplete;
   \   00003C   85..82       MOV       DPL,?V2
   \   00003F   85..83       MOV       DPH,?V3
   \   000042   12....       LCALL     ?Subroutine37 & 0xFFFF
   1910              for ( i = 0; i < pDiscoverRspCmd->numCmd; i++ )
   \                     ??CrossCallReturnLabel_47:
   \   000045   8020         SJMP      ??zcl_SendDiscoverCmdsRspCmd_1
   1911              {
   1912                *pBuf++ = pDiscoverRspCmd->pCmdID[i];
   \                     ??zcl_SendDiscoverCmdsRspCmd_2:
   \   000047   EA           MOV       A,R2
   \   000048   FC           MOV       R4,A
   \   000049   85..82       MOV       DPL,?V2
   \   00004C   85..83       MOV       DPH,?V3
   \   00004F   A3           INC       DPTR
   \   000050   A3           INC       DPTR
   \   000051   A3           INC       DPTR
   \   000052   E0           MOVX      A,@DPTR
   \   000053   2C           ADD       A,R4
   \   000054   FB           MOV       R3,A
   \   000055   A3           INC       DPTR
   \   000056   E0           MOVX      A,@DPTR
   \   000057   3400         ADDC      A,#0x0
   \   000059   8B82         MOV       DPL,R3
   \   00005B   F583         MOV       DPH,A
   \   00005D   12....       LCALL     ?Subroutine96 & 0xFFFF
   1913              }
   \                     ??CrossCallReturnLabel_157:
   \   000060   F0           MOVX      @DPTR,A
   \   000061   A3           INC       DPTR
   \   000062   A882         MOV       R0,DPL
   \   000064   A983         MOV       R1,DPH
   \   000066   0A           INC       R2
   \                     ??zcl_SendDiscoverCmdsRspCmd_1:
   \   000067   85..82       MOV       DPL,?V4
   \   00006A   85..83       MOV       DPH,?V5
   \   00006D   E0           MOVX      A,@DPTR
   \   00006E   FB           MOV       R3,A
   \   00006F   EA           MOV       A,R2
   \   000070   C3           CLR       C
   \   000071   9B           SUBB      A,R3
   \   000072   40D3         JC        ??zcl_SendDiscoverCmdsRspCmd_2
   1914          
   1915              // Send response message for either commands received or generated
   1916              if( pDiscoverRspCmd->cmdType == ZCL_CMD_DISCOVER_CMDS_RECEIVED )
   \   000074   85..82       MOV       DPL,?V2
   \   000077   85..83       MOV       DPH,?V3
   \   00007A   A3           INC       DPTR
   \   00007B   E0           MOVX      A,@DPTR
   \   00007C   F8           MOV       R0,A
   \   00007D   7418         MOV       A,#0x18
   \   00007F   12....       LCALL     ?XSTACK_DISP0_8
   \   000082   E0           MOVX      A,@DPTR
   \   000083   F9           MOV       R1,A
   \   000084   7419         MOV       A,#0x19
   \   000086   12....       LCALL     ?XSTACK_DISP0_8
   \   000089   E0           MOVX      A,@DPTR
   \   00008A   FA           MOV       R2,A
   \   00008B   741A         MOV       A,#0x1a
   \   00008D   12....       LCALL     ?XSTACK_DISP0_8
   \   000090   E0           MOVX      A,@DPTR
   \   000091   FB           MOV       R3,A
   \   000092   7411         MOV       A,#0x11
   \   000094   68           XRL       A,R0
   \   000095   7039         JNZ       ??zcl_SendDiscoverCmdsRspCmd_3
   1917              {
   1918                status = zcl_SendCommand( srcEP, dstAddr, clusterID, ZCL_CMD_DISCOVER_CMDS_RECEIVED_RSP, FALSE,
   1919                                          direction, disableDefaultRsp, 0, seqNum, payloadSize, pCmdBuf );
   \   000097                ; Setup parameters for call to function zcl_SendCommand
   \   000097   78..         MOV       R0,#?V0
   \   000099   12....       LCALL     ?PUSH_XSTACK_I_TWO
   \   00009C   78..         MOV       R0,#?V6
   \   00009E   12....       LCALL     ?PUSH_XSTACK_I_TWO
   \   0000A1   EB           MOV       A,R3
   \   0000A2   F5..         MOV       ?V2,A
   \   0000A4   78..         MOV       R0,#?V2
   \   0000A6   12....       LCALL     ?PUSH_XSTACK_I_ONE
   \   0000A9   E4           CLR       A
   \   0000AA   F5..         MOV       ?V2,A
   \   0000AC   F5..         MOV       ?V3,A
   \   0000AE   78..         MOV       R0,#?V2
   \   0000B0   12....       LCALL     ?PUSH_XSTACK_I_TWO
   \   0000B3   EA           MOV       A,R2
   \   0000B4   F5..         MOV       ?V2,A
   \   0000B6   78..         MOV       R0,#?V2
   \   0000B8   12....       LCALL     ?PUSH_XSTACK_I_ONE
   \   0000BB   E9           MOV       A,R1
   \   0000BC   F5..         MOV       ?V2,A
   \   0000BE   78..         MOV       R0,#?V2
   \   0000C0   12....       LCALL     ?PUSH_XSTACK_I_ONE
   \   0000C3   75..00       MOV       ?V2,#0x0
   \   0000C6   78..         MOV       R0,#?V2
   \   0000C8   12....       LCALL     ?PUSH_XSTACK_I_ONE
   \   0000CB   75..12       MOV       ?V2,#0x12
   \   0000CE   803C         SJMP      ??zcl_SendDiscoverCmdsRspCmd_4
   1920              }
   1921              else if ( pDiscoverRspCmd->cmdType == ZCL_CMD_DISCOVER_CMDS_GEN )
   \                     ??zcl_SendDiscoverCmdsRspCmd_3:
   \   0000D0   7413         MOV       A,#0x13
   \   0000D2   68           XRL       A,R0
   \   0000D3   704F         JNZ       ??zcl_SendDiscoverCmdsRspCmd_5
   1922              {
   1923                status = zcl_SendCommand( srcEP, dstAddr, clusterID, ZCL_CMD_DISCOVER_CMDS_GEN_RSP, FALSE,
   1924                                          direction, disableDefaultRsp, 0, seqNum, payloadSize, pCmdBuf );
   \   0000D5                ; Setup parameters for call to function zcl_SendCommand
   \   0000D5   78..         MOV       R0,#?V0
   \   0000D7   12....       LCALL     ?PUSH_XSTACK_I_TWO
   \   0000DA   78..         MOV       R0,#?V6
   \   0000DC   12....       LCALL     ?PUSH_XSTACK_I_TWO
   \   0000DF   EB           MOV       A,R3
   \   0000E0   F5..         MOV       ?V2,A
   \   0000E2   78..         MOV       R0,#?V2
   \   0000E4   12....       LCALL     ?PUSH_XSTACK_I_ONE
   \   0000E7   E4           CLR       A
   \   0000E8   F5..         MOV       ?V2,A
   \   0000EA   F5..         MOV       ?V3,A
   \   0000EC   78..         MOV       R0,#?V2
   \   0000EE   12....       LCALL     ?PUSH_XSTACK_I_TWO
   \   0000F1   EA           MOV       A,R2
   \   0000F2   F5..         MOV       ?V2,A
   \   0000F4   78..         MOV       R0,#?V2
   \   0000F6   12....       LCALL     ?PUSH_XSTACK_I_ONE
   \   0000F9   E9           MOV       A,R1
   \   0000FA   F5..         MOV       ?V2,A
   \   0000FC   78..         MOV       R0,#?V2
   \   0000FE   12....       LCALL     ?PUSH_XSTACK_I_ONE
   \   000101   75..00       MOV       ?V2,#0x0
   \   000104   78..         MOV       R0,#?V2
   \   000106   12....       LCALL     ?PUSH_XSTACK_I_ONE
   \   000109   75..14       MOV       ?V2,#0x14
   \                     ??zcl_SendDiscoverCmdsRspCmd_4:
   \   00010C   78..         MOV       R0,#?V2
   \   00010E   12....       LCALL     ?PUSH_XSTACK_I_ONE
   \   000111   EE           MOV       A,R6
   \   000112   FC           MOV       R4,A
   \   000113   EF           MOV       A,R7
   \   000114   FD           MOV       R5,A
   \   000115   AA..         MOV       R2,?V8
   \   000117   AB..         MOV       R3,?V9
   \   000119   A9..         MOV       R1,?V11
   1925              }
   \   00011B   12....       LCALL     ??Subroutine189_0 & 0xFFFF
   \                     ??CrossCallReturnLabel_330:
   \   00011E   12....       LCALL     ?DEALLOC_XSTACK8
   \   000121   E9           MOV       A,R1
   \   000122   F5..         MOV       ?V10,A
   1926          
   1927              zcl_mem_free( pCmdBuf );
   \                     ??zcl_SendDiscoverCmdsRspCmd_5:
   \   000124                ; Setup parameters for call to function osal_mem_free
   \   000124   AA..         MOV       R2,?V0
   \   000126   AB..         MOV       R3,?V1
   \   000128   12....       LCALL     `??osal_mem_free::?relay`; Banked call to: osal_mem_free
   \   00012B   8003         SJMP      ??zcl_SendDiscoverCmdsRspCmd_6
   1928            }
   1929            else
   1930            {
   1931              status = ZMemError;
   \                     ??zcl_SendDiscoverCmdsRspCmd_0:
   \   00012D   75..10       MOV       ?V10,#0x10
   1932            }
   1933          
   1934            return ( status );
   \                     ??zcl_SendDiscoverCmdsRspCmd_6:
   \   000130   A9..         MOV       R1,?V10
   \   000132   02....       LJMP      ??Subroutine186_0 & 0xFFFF
   1935          }

   \                                 In  segment BANKED_CODE, align 1, keep-with-next
   \                     ?Subroutine37:
   \   000000   12....       LCALL     ??Subroutine202_0 & 0xFFFF
   \                     ??CrossCallReturnLabel_394:
   \   000003   F0           MOVX      @DPTR,A
   \   000004   A3           INC       DPTR
   \   000005   A882         MOV       R0,DPL
   \   000007   A983         MOV       R1,DPH
   \   000009   7A00         MOV       R2,#0x0
   \   00000B   22           RET

   \                                 In  segment BANKED_CODE, align 1, keep-with-next
   \                     ??Subroutine202_0:
   \   000000   E0           MOVX      A,@DPTR
   \   000001   8A82         MOV       DPL,R2
   \   000003   8B83         MOV       DPH,R3
   \   000005   22           RET

   \                                 In  segment BANKED_CODE, align 1, keep-with-next
   \                     ??Subroutine230_0:
   \   000000   E0           MOVX      A,@DPTR
   \   000001   F5..         MOV       ?V2,A
   \   000003   A3           INC       DPTR
   \   000004   E0           MOVX      A,@DPTR
   \   000005   F5..         MOV       ?V3,A
   \   000007   22           RET
   1936          
   1937          /*********************************************************************
   1938           * @fn      zcl_SendDiscoverAttrsCmd
   1939           *
   1940           * @brief   Send a Discover Attributes command
   1941           *
   1942           * @param   dstAddr - destination address
   1943           * @param   clusterID - cluster ID
   1944           * @param   pDiscoverCmd - discover command to be sent
   1945           * @param   direction - direction of the command
   1946           * @param   seqNum - transaction sequence number
   1947           *
   1948           * @return  ZSuccess if OK
   1949           */

   \                                 In  segment BANKED_CODE, align 1, keep-with-next
   1950          ZStatus_t zcl_SendDiscoverAttrsCmd( uint8 srcEP, afAddrType_t *dstAddr,
   \                     zcl_SendDiscoverAttrsCmd:
   1951                                      uint16 clusterID, zclDiscoverAttrsCmd_t *pDiscoverCmd,
   1952                                      uint8 direction, uint8 disableDefaultRsp, uint8 seqNum )
   1953          {
   \   000000                REQUIRE ?V0
   \   000000                REQUIRE ?V1
   \   000000                REQUIRE ?V2
   \   000000                REQUIRE ?V3
   \   000000                REQUIRE ?V4
   \   000000                REQUIRE ?V5
   \   000000                REQUIRE ?V6
   \   000000                REQUIRE ?V7
   \   000000   74F0         MOV       A,#-0x10
   \   000002   12....       LCALL     ?BANKED_ENTER_XDATA
   \   000005                ; Saved register size: 16
   \   000005                ; Auto size: 0
   \   000005   89..         MOV       ?V2,R1
   \   000007   EA           MOV       A,R2
   \   000008   FE           MOV       R6,A
   \   000009   EB           MOV       A,R3
   \   00000A   FF           MOV       R7,A
   \   00000B   8C..         MOV       ?V0,R4
   \   00000D   8D..         MOV       ?V1,R5
   1954            uint8 dataLen = 2 + 1; // Start Attribute ID and Max Attribute IDs
   1955            uint8 *buf;
   1956            ZStatus_t status;
   1957          
   1958            buf = zcl_mem_alloc( dataLen );
   \   00000F                ; Setup parameters for call to function osal_mem_alloc
   \   00000F   7A03         MOV       R2,#0x3
   \   000011   7B00         MOV       R3,#0x0
   \   000013   12....       LCALL     `??osal_mem_alloc::?relay`; Banked call to: osal_mem_alloc
   \   000016   8A..         MOV       ?V4,R2
   \   000018   8B..         MOV       ?V5,R3
   1959            if ( buf != NULL )
   \   00001A   EA           MOV       A,R2
   \   00001B   4B           ORL       A,R3
   \   00001C   607F         JZ        ??zcl_SendDiscoverAttrsCmd_0
   \   00001E   7410         MOV       A,#0x10
   \   000020   12....       LCALL     ?XSTACK_DISP0_8
   \   000023   12....       LCALL     ?Subroutine87 & 0xFFFF
   1960            {
   1961              // Load the buffer - serially
   1962              uint8 *pBuf = buf;
   1963              *pBuf++ = LO_UINT16(pDiscoverCmd->startAttr);
   \                     ??CrossCallReturnLabel_142:
   \   000026   12....       LCALL     ?Subroutine102 & 0xFFFF
   \                     ??CrossCallReturnLabel_175:
   \   000029   12....       LCALL     ??Subroutine187_0 & 0xFFFF
   1964              *pBuf++ = HI_UINT16(pDiscoverCmd->startAttr);
   \                     ??CrossCallReturnLabel_321:
   \   00002C   8A82         MOV       DPL,R2
   \   00002E   8B83         MOV       DPH,R3
   \   000030   A3           INC       DPTR
   \   000031   12....       LCALL     ?Subroutine39 & 0xFFFF
   1965              *pBuf++ = pDiscoverCmd->maxAttrIDs;
   \                     ??CrossCallReturnLabel_51:
   \   000034   8A82         MOV       DPL,R2
   \   000036   8B83         MOV       DPH,R3
   \   000038   A3           INC       DPTR
   \   000039   A3           INC       DPTR
   \   00003A   F0           MOVX      @DPTR,A
   1966          
   1967              status = zcl_SendCommand( srcEP, dstAddr, clusterID, ZCL_CMD_DISCOVER_ATTRS, FALSE,
   1968                                        direction, disableDefaultRsp, 0, seqNum, dataLen, buf );
   \   00003B                ; Setup parameters for call to function zcl_SendCommand
   \   00003B   78..         MOV       R0,#?V4
   \   00003D   12....       LCALL     ?PUSH_XSTACK_I_TWO
   \   000040   75..03       MOV       ?V6,#0x3
   \   000043   75..00       MOV       ?V7,#0x0
   \   000046   78..         MOV       R0,#?V6
   \   000048   12....       LCALL     ?PUSH_XSTACK_I_TWO
   \   00004B   7418         MOV       A,#0x18
   \   00004D   12....       LCALL     ?XSTACK_DISP0_8
   \   000050   12....       LCALL     ?Subroutine60 & 0xFFFF
   \                     ??CrossCallReturnLabel_86:
   \   000053   12....       LCALL     ?PUSH_XSTACK_I_ONE
   \   000056   E4           CLR       A
   \   000057   F5..         MOV       ?V6,A
   \   000059   78..         MOV       R0,#?V6
   \   00005B   12....       LCALL     ?PUSH_XSTACK_I_TWO
   \   00005E   741A         MOV       A,#0x1a
   \   000060   12....       LCALL     ?XSTACK_DISP0_8
   \   000063   12....       LCALL     ?Subroutine60 & 0xFFFF
   \                     ??CrossCallReturnLabel_87:
   \   000066   12....       LCALL     ?PUSH_XSTACK_I_ONE
   \   000069   741A         MOV       A,#0x1a
   \   00006B   12....       LCALL     ?XSTACK_DISP0_8
   \   00006E   12....       LCALL     ?Subroutine60 & 0xFFFF
   \                     ??CrossCallReturnLabel_88:
   \   000071   12....       LCALL     ?PUSH_XSTACK_I_ONE
   \   000074   75..00       MOV       ?V3,#0x0
   \   000077   78..         MOV       R0,#?V3
   \   000079   12....       LCALL     ?PUSH_XSTACK_I_ONE
   \   00007C   75..0C       MOV       ?V3,#0xc
   \   00007F   78..         MOV       R0,#?V3
   \   000081   12....       LCALL     ?PUSH_XSTACK_I_ONE
   \   000084   AC..         MOV       R4,?V0
   \   000086   AD..         MOV       R5,?V1
   \   000088   EE           MOV       A,R6
   \   000089   FA           MOV       R2,A
   \   00008A   EF           MOV       A,R7
   \   00008B   FB           MOV       R3,A
   \   00008C   12....       LCALL     ??Subroutine188_0 & 0xFFFF
   \                     ??CrossCallReturnLabel_325:
   \   00008F   12....       LCALL     ?DEALLOC_XSTACK8
   \   000092   E9           MOV       A,R1
   \   000093   FE           MOV       R6,A
   1969              zcl_mem_free( buf );
   \   000094                ; Setup parameters for call to function osal_mem_free
   \   000094   AA..         MOV       R2,?V4
   \   000096   AB..         MOV       R3,?V5
   \   000098   12....       LCALL     `??osal_mem_free::?relay`; Banked call to: osal_mem_free
   \   00009B   8002         SJMP      ??zcl_SendDiscoverAttrsCmd_1
   1970            }
   1971            else
   1972            {
   1973              status = ZMemError;
   \                     ??zcl_SendDiscoverAttrsCmd_0:
   \   00009D   7E10         MOV       R6,#0x10
   1974            }
   1975          
   1976            return ( status );
   \                     ??zcl_SendDiscoverAttrsCmd_1:
   \   00009F   EE           MOV       A,R6
   \   0000A0   F9           MOV       R1,A
   \   0000A1   02....       LJMP      ??Subroutine194_0 & 0xFFFF
   1977          }

   \                                 In  segment BANKED_CODE, align 1, keep-with-next
   \                     ?Subroutine39:
   \   000000   F0           MOVX      @DPTR,A
   \   000001   8882         MOV       DPL,R0
   \   000003   8983         MOV       DPH,R1
   \   000005   A3           INC       DPTR
   \   000006   A3           INC       DPTR
   \   000007   E0           MOVX      A,@DPTR
   \   000008   22           RET

   \                                 In  segment BANKED_CODE, align 1, keep-with-next
   \                     ?Subroutine102:
   \   000000   12....       LCALL     ??Subroutine202_0 & 0xFFFF
   \                     ??CrossCallReturnLabel_397:
   \   000003   22           RET

   \                                 In  segment BANKED_CODE, align 1, keep-with-next
   \                     ??Subroutine194_0:
   \   000000   7F08         MOV       R7,#0x8
   \   000002   02....       LJMP      ?BANKED_LEAVE_XDATA
   1978          
   1979          /*********************************************************************
   1980           * @fn      zcl_SendDiscoverAttrsRspCmd
   1981           *
   1982           * @brief   Send a Discover Attributes Response command
   1983           *
   1984           * @param   dstAddr - destination address
   1985           * @param   clusterID - cluster ID
   1986           * @param   reportRspCmd - report response command to be sent
   1987           * @param   direction - direction of the command
   1988           * @param   seqNum - transaction sequence number
   1989           *
   1990           * @return  ZSuccess if OK
   1991           */

   \                                 In  segment BANKED_CODE, align 1, keep-with-next
   1992          ZStatus_t zcl_SendDiscoverAttrsRspCmd( uint8 srcEP, afAddrType_t *dstAddr,
   \                     zcl_SendDiscoverAttrsRspCmd:
   1993                                    uint16 clusterID, zclDiscoverAttrsRspCmd_t *pDiscoverRspCmd,
   1994                                    uint8 direction, uint8 disableDefaultRsp, uint8 seqNum )
   1995          {
   \   000000                REQUIRE ?V0
   \   000000                REQUIRE ?V1
   \   000000                REQUIRE ?V2
   \   000000                REQUIRE ?V3
   \   000000                REQUIRE ?V4
   \   000000                REQUIRE ?V5
   \   000000                REQUIRE ?V6
   \   000000                REQUIRE ?V7
   \   000000                REQUIRE ?V8
   \   000000                REQUIRE ?V10
   \   000000                REQUIRE ?V11
   \   000000                REQUIRE ?V12
   \   000000                REQUIRE ?V13
   \   000000                REQUIRE ?V14
   \   000000                REQUIRE ?V15
   \   000000   74E8         MOV       A,#-0x18
   \   000002   12....       LCALL     ?BANKED_ENTER_XDATA
   \   000005                ; Saved register size: 24
   \   000005                ; Auto size: 0
   \   000005   89..         MOV       ?V8,R1
   \   000007   8A..         MOV       ?V10,R2
   \   000009   8B..         MOV       ?V11,R3
   \   00000B   EC           MOV       A,R4
   \   00000C   FE           MOV       R6,A
   \   00000D   ED           MOV       A,R5
   \   00000E   FF           MOV       R7,A
   \   00000F   7418         MOV       A,#0x18
   \   000011   12....       LCALL     ?XSTACK_DISP0_8
   \   000014   12....       LCALL     ?Subroutine55 & 0xFFFF
   1996            uint16 dataLen = 1; // Discovery complete
   1997            uint8 *buf;
   1998            ZStatus_t status;
   1999          
   2000            // calculate the size of the command
   2001            dataLen += pDiscoverRspCmd->numAttr * (2 + 1); // Attribute ID and Data Type
   \                     ??CrossCallReturnLabel_71:
   \   000017   75F003       MOV       B,#0x3
   \   00001A   A4           MUL       AB
   \   00001B   A9F0         MOV       R1,B
   \   00001D   2401         ADD       A,#0x1
   \   00001F   F5..         MOV       ?V6,A
   \   000021   E4           CLR       A
   \   000022   39           ADDC      A,R1
   \   000023   12....       LCALL     ?Subroutine115 & 0xFFFF
   2002          
   2003            buf = zcl_mem_alloc( dataLen );
   2004            if ( buf != NULL )
   \                     ??CrossCallReturnLabel_559:
   \   000026   7003         JNZ       $+5
   \   000028   02....       LJMP      ??zcl_SendDiscoverAttrsRspCmd_0 & 0xFFFF
   2005            {
   2006              // Load the buffer - serially
   2007              uint8 i;
   2008              uint8 *pBuf = buf;
   2009          
   2010              *pBuf++ = pDiscoverRspCmd->discComplete;
   \   00002B   85..82       MOV       DPL,?V4
   \   00002E   85..83       MOV       DPH,?V5
   \   000031   12....       LCALL     ?Subroutine37 & 0xFFFF
   2011          
   2012              for ( i = 0; i < pDiscoverRspCmd->numAttr; i++ )
   \                     ??CrossCallReturnLabel_48:
   \   000034   8025         SJMP      ??zcl_SendDiscoverAttrsRspCmd_1
   2013              {
   2014                *pBuf++ = LO_UINT16(pDiscoverRspCmd->attrList[i].attrID);
   \                     ??zcl_SendDiscoverAttrsRspCmd_2:
   \   000036   EA           MOV       A,R2
   \   000037   75F003       MOV       B,#0x3
   \   00003A   A4           MUL       AB
   \   00003B   FC           MOV       R4,A
   \   00003C   ADF0         MOV       R5,B
   \   00003E   E5..         MOV       A,?V4
   \   000040   2C           ADD       A,R4
   \   000041   FC           MOV       R4,A
   \   000042   E5..         MOV       A,?V5
   \   000044   3D           ADDC      A,R5
   \   000045   12....       LCALL     ?Subroutine124 & 0xFFFF
   \                     ??CrossCallReturnLabel_215:
   \   000048   12....       LCALL     ?Subroutine20 & 0xFFFF
   2015                *pBuf++ = HI_UINT16(pDiscoverRspCmd->attrList[i].attrID);
   2016                *pBuf++ = pDiscoverRspCmd->attrList[i].dataType;
   \                     ??CrossCallReturnLabel_14:
   \   00004B   8C82         MOV       DPL,R4
   \   00004D   8D83         MOV       DPH,R5
   \   00004F   A3           INC       DPTR
   \   000050   A3           INC       DPTR
   \   000051   A3           INC       DPTR
   \   000052   A3           INC       DPTR
   \   000053   12....       LCALL     ?Subroutine81 & 0xFFFF
   2017              }
   \                     ??CrossCallReturnLabel_131:
   \   000056   F8           MOV       R0,A
   \   000057   5001         JNC       ??zcl_SendDiscoverAttrsRspCmd_3
   \   000059   09           INC       R1
   \                     ??zcl_SendDiscoverAttrsRspCmd_3:
   \   00005A   0A           INC       R2
   \                     ??zcl_SendDiscoverAttrsRspCmd_1:
   \   00005B   85..82       MOV       DPL,?V2
   \   00005E   85..83       MOV       DPH,?V3
   \   000061   E0           MOVX      A,@DPTR
   \   000062   FB           MOV       R3,A
   \   000063   EA           MOV       A,R2
   \   000064   C3           CLR       C
   \   000065   9B           SUBB      A,R3
   \   000066   40CE         JC        ??zcl_SendDiscoverAttrsRspCmd_2
   2018          
   2019              status = zcl_SendCommand( srcEP, dstAddr, clusterID, ZCL_CMD_DISCOVER_ATTRS_RSP, FALSE,
   2020                                        direction, disableDefaultRsp, 0, seqNum, dataLen, buf );
   \   000068                ; Setup parameters for call to function zcl_SendCommand
   \   000068   78..         MOV       R0,#?V0
   \   00006A   12....       LCALL     ?PUSH_XSTACK_I_TWO
   \   00006D   78..         MOV       R0,#?V6
   \   00006F   12....       LCALL     ?PUSH_XSTACK_I_TWO
   \   000072   7420         MOV       A,#0x20
   \   000074   12....       LCALL     ?XSTACK_DISP0_8
   \   000077   12....       LCALL     ??Subroutine221_0 & 0xFFFF
   \                     ??CrossCallReturnLabel_503:
   \   00007A   12....       LCALL     ?PUSH_XSTACK_I_ONE
   \   00007D   E4           CLR       A
   \   00007E   F5..         MOV       ?V2,A
   \   000080   F5..         MOV       ?V3,A
   \   000082   78..         MOV       R0,#?V2
   \   000084   12....       LCALL     ?PUSH_XSTACK_I_TWO
   \   000087   7422         MOV       A,#0x22
   \   000089   12....       LCALL     ?XSTACK_DISP0_8
   \   00008C   12....       LCALL     ??Subroutine221_0 & 0xFFFF
   \                     ??CrossCallReturnLabel_504:
   \   00008F   12....       LCALL     ?PUSH_XSTACK_I_ONE
   \   000092   7422         MOV       A,#0x22
   \   000094   12....       LCALL     ?XSTACK_DISP0_8
   \   000097   12....       LCALL     ??Subroutine221_0 & 0xFFFF
   \                     ??CrossCallReturnLabel_505:
   \   00009A   12....       LCALL     ?PUSH_XSTACK_I_ONE
   \   00009D   75..00       MOV       ?V2,#0x0
   \   0000A0   78..         MOV       R0,#?V2
   \   0000A2   12....       LCALL     ?PUSH_XSTACK_I_ONE
   \   0000A5   75..0D       MOV       ?V2,#0xd
   \   0000A8   78..         MOV       R0,#?V2
   \   0000AA   12....       LCALL     ?PUSH_XSTACK_I_ONE
   \   0000AD   EE           MOV       A,R6
   \   0000AE   FC           MOV       R4,A
   \   0000AF   EF           MOV       A,R7
   \   0000B0   FD           MOV       R5,A
   \   0000B1   AA..         MOV       R2,?V10
   \   0000B3   AB..         MOV       R3,?V11
   \   0000B5   A9..         MOV       R1,?V8
   \   0000B7   12....       LCALL     ??Subroutine189_0 & 0xFFFF
   \                     ??CrossCallReturnLabel_331:
   \   0000BA   12....       LCALL     ?DEALLOC_XSTACK8
   \   0000BD   E9           MOV       A,R1
   \   0000BE   FE           MOV       R6,A
   2021              zcl_mem_free( buf );
   \   0000BF                ; Setup parameters for call to function osal_mem_free
   \   0000BF   AA..         MOV       R2,?V0
   \   0000C1   AB..         MOV       R3,?V1
   \   0000C3   12....       LCALL     `??osal_mem_free::?relay`; Banked call to: osal_mem_free
   \   0000C6   8002         SJMP      ??zcl_SendDiscoverAttrsRspCmd_4
   2022            }
   2023            else
   2024            {
   2025              status = ZMemError;
   \                     ??zcl_SendDiscoverAttrsRspCmd_0:
   \   0000C8   7E10         MOV       R6,#0x10
   2026            }
   2027          
   2028            return ( status );
   \                     ??zcl_SendDiscoverAttrsRspCmd_4:
   \   0000CA                REQUIRE ?Subroutine11
   \   0000CA                ; // Fall through to label ?Subroutine11
   2029          }

   \                                 In  segment BANKED_CODE, align 1, keep-with-next
   \                     ?Subroutine11:
   \   000000   EE           MOV       A,R6
   \   000001   F9           MOV       R1,A
   \   000002   02....       LJMP      ??Subroutine215_0 & 0xFFFF

   \                                 In  segment BANKED_CODE, align 1, keep-with-next
   \                     ?Subroutine124:
   \   000000   FD           MOV       R5,A
   \   000001   EC           MOV       A,R4
   \   000002   2402         ADD       A,#0x2
   \   000004   F5..         MOV       ?V12,A
   \   000006   E4           CLR       A
   \   000007   3D           ADDC      A,R5
   \   000008   F5..         MOV       ?V13,A
   \   00000A   85..82       MOV       DPL,?V12
   \   00000D   F583         MOV       DPH,A
   \   00000F   22           RET

   \                                 In  segment BANKED_CODE, align 1, keep-with-next
   \                     ?Subroutine55:
   \   000000   12....       LCALL     ?Subroutine156 & 0xFFFF
   \                     ??CrossCallReturnLabel_265:
   \   000003   A3           INC       DPTR
   \   000004   8582..       MOV       ?V2,DPL
   \   000007   8583..       MOV       ?V3,DPH
   \   00000A   E0           MOVX      A,@DPTR
   \   00000B   22           RET
   2030          
   2031          /*********************************************************************
   2032           * @fn      zcl_SendDiscoverAttrsExt
   2033           *
   2034           * @brief   Send a Discover Attributes Extended command
   2035           *
   2036           * @param   dstAddr - destination address
   2037           * @param   clusterID - cluster ID
   2038           * @param   pDiscoverAttrsExt:
   2039           *            - startAttrID: the first attribute to be selected
   2040           *            - maxAttrIDs: maximum number of returned attributes
   2041           * @param   direction - direction of the command
   2042           * @param   seqNum - transaction sequence number
   2043           *
   2044           * @return  ZSuccess if OK
   2045           */

   \                                 In  segment BANKED_CODE, align 1, keep-with-next
   2046          ZStatus_t zcl_SendDiscoverAttrsExt( uint8 srcEP, afAddrType_t *dstAddr,
   \                     zcl_SendDiscoverAttrsExt:
   2047                                      uint16 clusterID, zclDiscoverAttrsCmd_t *pDiscoverAttrsExt,
   2048                                      uint8 direction, uint8 disableDefaultRsp, uint8 seqNum )
   2049          {
   \   000000                REQUIRE ?V0
   \   000000                REQUIRE ?V1
   \   000000                REQUIRE ?V2
   \   000000                REQUIRE ?V3
   \   000000   74F4         MOV       A,#-0xc
   \   000002   12....       LCALL     ?BANKED_ENTER_XDATA
   \   000005                ; Saved register size: 12
   \   000005                ; Auto size: 3
   \   000005   74FD         MOV       A,#-0x3
   \   000007   12....       LCALL     ?ALLOC_XSTACK8
   \   00000A   89..         MOV       ?V0,R1
   \   00000C   740F         MOV       A,#0xf
   \   00000E   12....       LCALL     ?XSTACK_DISP0_8
   \   000011   12....       LCALL     ?Subroutine18 & 0xFFFF
   2050            uint8 buf[3];  // Buffer size equal to Start Attribute ID and Max Attribute IDs
   2051            ZStatus_t status;
   2052          
   2053            // Load the buffer - serially
   2054            buf[0] = LO_UINT16(pDiscoverAttrsExt->startAttr);
   2055            buf[1] = HI_UINT16(pDiscoverAttrsExt->startAttr);
   \                     ??CrossCallReturnLabel_320:
   \   000014   C0E0         PUSH      A
   \   000016   7401         MOV       A,#0x1
   \   000018   12....       LCALL     ?XSTACK_DISP0_8
   \   00001B   D0E0         POP       A
   \   00001D   12....       LCALL     ?Subroutine39 & 0xFFFF
   2056            buf[2] = pDiscoverAttrsExt->maxAttrIDs;
   \                     ??CrossCallReturnLabel_52:
   \   000020   C0E0         PUSH      A
   \   000022   7402         MOV       A,#0x2
   \   000024   12....       LCALL     ?XSTACK_DISP0_8
   \   000027   D0E0         POP       A
   \   000029   F0           MOVX      @DPTR,A
   2057          
   2058            status = zcl_SendCommand( srcEP, dstAddr, clusterID, ZCL_CMD_DISCOVER_ATTRS_EXT, FALSE,
   2059                                      direction, disableDefaultRsp, 0, seqNum, sizeof( buf ), buf );
   2060          
   2061            return ( status );
   \   00002A                ; Setup parameters for call to function zcl_SendCommand
   \   00002A   A8..         MOV       R0,?XSP + 0
   \   00002C   A9..         MOV       R1,?XSP + 1
   \   00002E   88..         MOV       ?V2,R0
   \   000030   89..         MOV       ?V3,R1
   \   000032   78..         MOV       R0,#?V2
   \   000034   12....       LCALL     ?PUSH_XSTACK_I_TWO
   \   000037   75..03       MOV       ?V2,#0x3
   \   00003A   75..00       MOV       ?V3,#0x0
   \   00003D   78..         MOV       R0,#?V2
   \   00003F   12....       LCALL     ?PUSH_XSTACK_I_TWO
   \   000042   7417         MOV       A,#0x17
   \   000044   12....       LCALL     ?XSTACK_DISP0_8
   \   000047   E0           MOVX      A,@DPTR
   \   000048   F5..         MOV       ?V1,A
   \   00004A   78..         MOV       R0,#?V1
   \   00004C   12....       LCALL     ?PUSH_XSTACK_I_ONE
   \   00004F   E4           CLR       A
   \   000050   F5..         MOV       ?V2,A
   \   000052   78..         MOV       R0,#?V2
   \   000054   12....       LCALL     ?PUSH_XSTACK_I_TWO
   \   000057   7419         MOV       A,#0x19
   \   000059   12....       LCALL     ?XSTACK_DISP0_8
   \   00005C   E0           MOVX      A,@DPTR
   \   00005D   F5..         MOV       ?V1,A
   \   00005F   78..         MOV       R0,#?V1
   \   000061   12....       LCALL     ?PUSH_XSTACK_I_ONE
   \   000064   7419         MOV       A,#0x19
   \   000066   12....       LCALL     ?XSTACK_DISP0_8
   \   000069   E0           MOVX      A,@DPTR
   \   00006A   F5..         MOV       ?V1,A
   \   00006C   78..         MOV       R0,#?V1
   \   00006E   12....       LCALL     ?PUSH_XSTACK_I_ONE
   \   000071   75..00       MOV       ?V1,#0x0
   \   000074   78..         MOV       R0,#?V1
   \   000076   12....       LCALL     ?PUSH_XSTACK_I_ONE
   \   000079   75..15       MOV       ?V1,#0x15
   \   00007C   78..         MOV       R0,#?V1
   \   00007E   12....       LCALL     ?PUSH_XSTACK_I_ONE
   \   000081   A9..         MOV       R1,?V0
   \   000083   12....       LCALL     ??Subroutine189_0 & 0xFFFF
   \                     ??CrossCallReturnLabel_332:
   \   000086   12....       LCALL     ?DEALLOC_XSTACK8
   \   000089   7403         MOV       A,#0x3
   \   00008B   02....       LJMP      ?Subroutine1 & 0xFFFF
   2062          }
   2063          
   2064          /*********************************************************************
   2065           * @fn      zcl_SendDiscoverAttrsExtRsp
   2066           *
   2067           * @brief   Send a Discover Attributes Extended Response command
   2068           *
   2069           * @param   dstAddr - destination address
   2070           * @param   clusterID - cluster ID
   2071           * @param   pDiscoverRspCmd:
   2072           *            - discComplete: indicates whether all requested attributes returned
   2073           *            - attrID: attribute ID
   2074           *            - attrDataType: data type of the given attribute
   2075           *            - attrAccessControl: access control of the given attribute
   2076           * @param   direction - direction of the command
   2077           * @param   seqNum - transaction sequence number
   2078           *
   2079           * @return  ZSuccess if OK
   2080           */

   \                                 In  segment BANKED_CODE, align 1, keep-with-next
   2081          ZStatus_t zcl_SendDiscoverAttrsExtRsp( uint8 srcEP, afAddrType_t *dstAddr,
   \                     zcl_SendDiscoverAttrsExtRsp:
   2082                                                uint16 clusterID, zclDiscoverAttrsExtRsp_t *pDiscoverRspCmd,
   2083                                                uint8 direction, uint8 disableDefaultRsp, uint8 seqNum )
   2084          {
   \   000000                REQUIRE ?V0
   \   000000                REQUIRE ?V1
   \   000000                REQUIRE ?V2
   \   000000                REQUIRE ?V3
   \   000000                REQUIRE ?V4
   \   000000                REQUIRE ?V5
   \   000000                REQUIRE ?V6
   \   000000                REQUIRE ?V7
   \   000000                REQUIRE ?V8
   \   000000                REQUIRE ?V9
   \   000000                REQUIRE ?V10
   \   000000                REQUIRE ?V12
   \   000000                REQUIRE ?V13
   \   000000                REQUIRE ?V14
   \   000000                REQUIRE ?V15
   \   000000   74E8         MOV       A,#-0x18
   \   000002   12....       LCALL     ?BANKED_ENTER_XDATA
   \   000005                ; Saved register size: 24
   \   000005                ; Auto size: 0
   \   000005   89..         MOV       ?V10,R1
   \   000007   8A..         MOV       ?V8,R2
   \   000009   8B..         MOV       ?V9,R3
   \   00000B   EC           MOV       A,R4
   \   00000C   FE           MOV       R6,A
   \   00000D   ED           MOV       A,R5
   \   00000E   FF           MOV       R7,A
   \   00000F   7418         MOV       A,#0x18
   \   000011   12....       LCALL     ?XSTACK_DISP0_8
   \   000014   12....       LCALL     ?Subroutine55 & 0xFFFF
   2085            uint8 *buf;
   2086            uint8 i;
   2087            uint16 dataLen = 1; // Discovery complete
   2088            ZStatus_t status;
   2089          
   2090            // calculate the size of the command
   2091            dataLen += pDiscoverRspCmd->numAttr * (2 + 1 + 1); // Attribute ID, Data Type, and Access Control
   \                     ??CrossCallReturnLabel_72:
   \   000017   F5..         MOV       ?V0,A
   \   000019   75..00       MOV       ?V1,#0x0
   \   00001C   7402         MOV       A,#0x2
   \   00001E   78..         MOV       R0,#?V0
   \   000020   12....       LCALL     ?S_SHL
   \   000023   E5..         MOV       A,?V0
   \   000025   2401         ADD       A,#0x1
   \   000027   F5..         MOV       ?V6,A
   \   000029   E4           CLR       A
   \   00002A   35..         ADDC      A,?V1
   \   00002C   12....       LCALL     ?Subroutine115 & 0xFFFF
   2092          
   2093            buf = zcl_mem_alloc( dataLen );
   2094            if ( buf != NULL )
   \                     ??CrossCallReturnLabel_560:
   \   00002F   7003         JNZ       $+5
   \   000031   02....       LJMP      ??zcl_SendDiscoverAttrsExtRsp_0 & 0xFFFF
   2095            {
   2096              // Load the buffer - serially
   2097              uint8 *pBuf = buf;
   2098              *pBuf++ = pDiscoverRspCmd->discComplete;
   \   000034   85..82       MOV       DPL,?V4
   \   000037   85..83       MOV       DPH,?V5
   \   00003A   12....       LCALL     ?Subroutine79 & 0xFFFF
   \                     ??CrossCallReturnLabel_124:
   \   00003D   A3           INC       DPTR
   \   00003E   AA82         MOV       R2,DPL
   \   000040   AB83         MOV       R3,DPH
   2099              for ( i = 0; i < pDiscoverRspCmd->numAttr; i++ )
   \   000042   7900         MOV       R1,#0x0
   \   000044   803A         SJMP      ??zcl_SendDiscoverAttrsExtRsp_1
   2100              {
   2101                *pBuf++ = LO_UINT16(pDiscoverRspCmd->aExtAttrInfo[i].attrID);
   \                     ??zcl_SendDiscoverAttrsExtRsp_2:
   \   000046   E9           MOV       A,R1
   \   000047   F5..         MOV       ?V12,A
   \   000049   75..00       MOV       ?V13,#0x0
   \   00004C   7402         MOV       A,#0x2
   \   00004E   78..         MOV       R0,#?V12
   \   000050   12....       LCALL     ?S_SHL
   \   000053   E5..         MOV       A,?V4
   \   000055   25..         ADD       A,?V12
   \   000057   FC           MOV       R4,A
   \   000058   E5..         MOV       A,?V5
   \   00005A   35..         ADDC      A,?V13
   \   00005C   12....       LCALL     ?Subroutine124 & 0xFFFF
   2102                *pBuf++ = HI_UINT16(pDiscoverRspCmd->aExtAttrInfo[i].attrID);
   2103                *pBuf++ = pDiscoverRspCmd->aExtAttrInfo[i].attrDataType;
   2104                *pBuf++ = pDiscoverRspCmd->aExtAttrInfo[i].attrAccessControl;
   2105              }
   \                     ??CrossCallReturnLabel_216:
   \   00005F   12....       LCALL     ?Subroutine102 & 0xFFFF
   \                     ??CrossCallReturnLabel_176:
   \   000062   12....       LCALL     ?Subroutine38 & 0xFFFF
   \                     ??CrossCallReturnLabel_50:
   \   000065   12....       LCALL     ?Subroutine102 & 0xFFFF
   \                     ??CrossCallReturnLabel_177:
   \   000068   12....       LCALL     ?Subroutine33 & 0xFFFF
   \                     ??CrossCallReturnLabel_41:
   \   00006B   12....       LCALL     ?Subroutine101 & 0xFFFF
   \                     ??CrossCallReturnLabel_172:
   \   00006E   12....       LCALL     ?Subroutine33 & 0xFFFF
   \                     ??CrossCallReturnLabel_42:
   \   000071   A3           INC       DPTR
   \   000072   12....       LCALL     ?Subroutine101 & 0xFFFF
   \                     ??CrossCallReturnLabel_173:
   \   000075   A3           INC       DPTR
   \   000076   A3           INC       DPTR
   \   000077   F0           MOVX      @DPTR,A
   \   000078   EA           MOV       A,R2
   \   000079   2404         ADD       A,#0x4
   \   00007B   FA           MOV       R2,A
   \   00007C   5001         JNC       ??zcl_SendDiscoverAttrsExtRsp_3
   \   00007E   0B           INC       R3
   \                     ??zcl_SendDiscoverAttrsExtRsp_3:
   \   00007F   09           INC       R1
   \                     ??zcl_SendDiscoverAttrsExtRsp_1:
   \   000080   85..82       MOV       DPL,?V2
   \   000083   85..83       MOV       DPH,?V3
   \   000086   E0           MOVX      A,@DPTR
   \   000087   F8           MOV       R0,A
   \   000088   E9           MOV       A,R1
   \   000089   C3           CLR       C
   \   00008A   98           SUBB      A,R0
   \   00008B   40B9         JC        ??zcl_SendDiscoverAttrsExtRsp_2
   2106          
   2107              status = zcl_SendCommand( srcEP, dstAddr, clusterID, ZCL_CMD_DISCOVER_ATTRS_EXT_RSP, FALSE,
   2108                                        direction, disableDefaultRsp, 0, seqNum, dataLen, buf );
   \   00008D                ; Setup parameters for call to function zcl_SendCommand
   \   00008D   78..         MOV       R0,#?V0
   \   00008F   12....       LCALL     ?PUSH_XSTACK_I_TWO
   \   000092   78..         MOV       R0,#?V6
   \   000094   12....       LCALL     ?PUSH_XSTACK_I_TWO
   \   000097   7420         MOV       A,#0x20
   \   000099   12....       LCALL     ?XSTACK_DISP0_8
   \   00009C   12....       LCALL     ??Subroutine221_0 & 0xFFFF
   \                     ??CrossCallReturnLabel_506:
   \   00009F   12....       LCALL     ?PUSH_XSTACK_I_ONE
   \   0000A2   E4           CLR       A
   \   0000A3   F5..         MOV       ?V2,A
   \   0000A5   F5..         MOV       ?V3,A
   \   0000A7   78..         MOV       R0,#?V2
   \   0000A9   12....       LCALL     ?PUSH_XSTACK_I_TWO
   \   0000AC   7422         MOV       A,#0x22
   \   0000AE   12....       LCALL     ?XSTACK_DISP0_8
   \   0000B1   12....       LCALL     ??Subroutine221_0 & 0xFFFF
   \                     ??CrossCallReturnLabel_507:
   \   0000B4   12....       LCALL     ?PUSH_XSTACK_I_ONE
   \   0000B7   7422         MOV       A,#0x22
   \   0000B9   12....       LCALL     ?XSTACK_DISP0_8
   \   0000BC   12....       LCALL     ??Subroutine221_0 & 0xFFFF
   \                     ??CrossCallReturnLabel_508:
   \   0000BF   12....       LCALL     ?PUSH_XSTACK_I_ONE
   \   0000C2   75..00       MOV       ?V2,#0x0
   \   0000C5   78..         MOV       R0,#?V2
   \   0000C7   12....       LCALL     ?PUSH_XSTACK_I_ONE
   \   0000CA   75..16       MOV       ?V2,#0x16
   \   0000CD   78..         MOV       R0,#?V2
   \   0000CF   12....       LCALL     ?PUSH_XSTACK_I_ONE
   \   0000D2   EE           MOV       A,R6
   \   0000D3   FC           MOV       R4,A
   \   0000D4   EF           MOV       A,R7
   \   0000D5   FD           MOV       R5,A
   \   0000D6   AA..         MOV       R2,?V8
   \   0000D8   AB..         MOV       R3,?V9
   \   0000DA   A9..         MOV       R1,?V10
   \   0000DC   12....       LCALL     ??Subroutine189_0 & 0xFFFF
   \                     ??CrossCallReturnLabel_333:
   \   0000DF   12....       LCALL     ?DEALLOC_XSTACK8
   \   0000E2   E9           MOV       A,R1
   \   0000E3   FE           MOV       R6,A
   2109              zcl_mem_free( buf );
   \   0000E4                ; Setup parameters for call to function osal_mem_free
   \   0000E4   AA..         MOV       R2,?V0
   \   0000E6   AB..         MOV       R3,?V1
   \   0000E8   12....       LCALL     `??osal_mem_free::?relay`; Banked call to: osal_mem_free
   \   0000EB   8002         SJMP      ??zcl_SendDiscoverAttrsExtRsp_4
   2110            }
   2111            else
   2112            {
   2113              status = ZMemError;
   \                     ??zcl_SendDiscoverAttrsExtRsp_0:
   \   0000ED   7E10         MOV       R6,#0x10
   2114            }
   2115          
   2116            return ( status );
   \                     ??zcl_SendDiscoverAttrsExtRsp_4:
   \   0000EF   02....       LJMP      ?Subroutine11 & 0xFFFF
   2117          }

   \                                 In  segment BANKED_CODE, align 1, keep-with-next
   \                     ?Subroutine33:
   \   000000   A3           INC       DPTR
   \   000001   F0           MOVX      @DPTR,A
   \   000002   8C82         MOV       DPL,R4
   \   000004   8D83         MOV       DPH,R5
   \   000006   A3           INC       DPTR
   \   000007   A3           INC       DPTR
   \   000008   A3           INC       DPTR
   \   000009   A3           INC       DPTR
   \   00000A   22           RET

   \                                 In  segment BANKED_CODE, align 1, keep-with-next
   \                     ?Subroutine79:
   \   000000   12....       LCALL     ??Subroutine202_0 & 0xFFFF
   \                     ??CrossCallReturnLabel_395:
   \   000003   F0           MOVX      @DPTR,A
   \   000004   22           RET

   \                                 In  segment BANKED_CODE, align 1, keep-with-next
   \                     ?Subroutine101:
   \   000000   12....       LCALL     ??Subroutine202_0 & 0xFFFF
   \                     ??CrossCallReturnLabel_396:
   \   000003   A3           INC       DPTR
   \   000004   22           RET
   2118          #endif // ZCL_DISCOVER
   2119          
   2120          /*********************************************************************
   2121           * @fn      zcl_ProcessMessageMSG
   2122           *
   2123           * @brief   Data message processor callback.  This function processes
   2124           *          any incoming data - probably from other devices.  So, based
   2125           *          on cluster ID, perform the intended action.
   2126           *
   2127           * @param   pkt - incoming message
   2128           *
   2129           * @return  zclProcMsgStatus_t
   2130           */

   \                                 In  segment BANKED_CODE, align 1, keep-with-next
   2131          zclProcMsgStatus_t zcl_ProcessMessageMSG( afIncomingMSGPacket_t *pkt )
   \                     zcl_ProcessMessageMSG:
   2132          {
   \   000000                REQUIRE ?V0
   \   000000                REQUIRE ?V1
   \   000000                REQUIRE ?V2
   \   000000                REQUIRE ?V3
   \   000000                REQUIRE ?V4
   \   000000                REQUIRE ?V5
   \   000000                REQUIRE ?V6
   \   000000   74F1         MOV       A,#-0xf
   \   000002   12....       LCALL     ?BANKED_ENTER_XDATA
   \   000005                ; Saved register size: 15
   \   000005                ; Auto size: 21
   \   000005   74EB         MOV       A,#-0x15
   \   000007   12....       LCALL     ?ALLOC_XSTACK8
   \   00000A   EA           MOV       A,R2
   \   00000B   FE           MOV       R6,A
   \   00000C   EB           MOV       A,R3
   \   00000D   FF           MOV       R7,A
   2133            endPointDesc_t *epDesc;
   2134            zclIncoming_t inMsg;
   2135            zclLibPlugin_t *pInPlugin;
   2136            zclDefaultRspCmd_t defautlRspCmd;
   2137            uint8 options;
   2138            uint8 securityEnable;
   2139            uint8 interPanMsg;
   2140            ZStatus_t status = ZFailure;
   2141            uint8 defaultResponseSent = FALSE;
   \   00000E   C2..         CLR       ?VB.0
   2142          
   2143            if ( pkt->cmd.DataLength < ZCL_VALID_MIN_HEADER_LEN  )
   \   000010   EA           MOV       A,R2
   \   000011   2420         ADD       A,#0x20
   \   000013   F8           MOV       R0,A
   \   000014   E4           CLR       A
   \   000015   3F           ADDC      A,R7
   \   000016   88..         MOV       ?V0,R0
   \   000018   F5..         MOV       ?V1,A
   \   00001A   8882         MOV       DPL,R0
   \   00001C   F583         MOV       DPH,A
   \   00001E   C3           CLR       C
   \   00001F   E0           MOVX      A,@DPTR
   \   000020   9403         SUBB      A,#0x3
   \   000022   A3           INC       DPTR
   \   000023   E0           MOVX      A,@DPTR
   \   000024   9400         SUBB      A,#0x0
   \   000026   5005         JNC       ??zcl_ProcessMessageMSG_0
   2144            {
   2145              return ( ZCL_PROC_INVALID );   // Error, ignore the message
   \   000028   7901         MOV       R1,#0x1
   \   00002A   02....       LJMP      ??zcl_ProcessMessageMSG_1 & 0xFFFF
   2146            }
   2147          
   2148            // Initialize
   2149            rawAFMsg = (afIncomingMSGPacket_t *)pkt;
   \                     ??zcl_ProcessMessageMSG_0:
   \   00002D   90....       MOV       DPTR,#rawAFMsg
   \   000030   12....       LCALL     ??Subroutine234_0 & 0xFFFF
   2150            inMsg.msg = pkt;
   \                     ??CrossCallReturnLabel_586:
   \   000033   7402         MOV       A,#0x2
   \   000035   12....       LCALL     ?XSTACK_DISP0_8
   \   000038   12....       LCALL     ??Subroutine234_0 & 0xFFFF
   2151            inMsg.attrCmd = NULL;
   \                     ??CrossCallReturnLabel_587:
   \   00003B   740E         MOV       A,#0xe
   \   00003D   12....       LCALL     ?XSTACK_DISP0_8
   \   000040   E4           CLR       A
   \   000041   F0           MOVX      @DPTR,A
   \   000042   A3           INC       DPTR
   \   000043   F0           MOVX      @DPTR,A
   2152            inMsg.pData = NULL;
   \   000044   740A         MOV       A,#0xa
   \   000046   12....       LCALL     ?XSTACK_DISP0_8
   \   000049   E4           CLR       A
   \   00004A   F0           MOVX      @DPTR,A
   \   00004B   A3           INC       DPTR
   \   00004C   F0           MOVX      @DPTR,A
   2153            inMsg.pDataLen = 0;
   \   00004D   740C         MOV       A,#0xc
   \   00004F   12....       LCALL     ?XSTACK_DISP0_8
   \   000052   E4           CLR       A
   \   000053   F0           MOVX      @DPTR,A
   \   000054   A3           INC       DPTR
   \   000055   F0           MOVX      @DPTR,A
   2154          
   2155            inMsg.pData = zclParseHdr( &(inMsg.hdr), pkt->cmd.Data );
   \   000056   EA           MOV       A,R2
   \   000057   2422         ADD       A,#0x22
   \   000059   F8           MOV       R0,A
   \   00005A   E4           CLR       A
   \   00005B   3F           ADDC      A,R7
   \   00005C   88..         MOV       ?V2,R0
   \   00005E   F5..         MOV       ?V3,A
   \   000060                ; Setup parameters for call to function zclParseHdr
   \   000060   8882         MOV       DPL,R0
   \   000062   F583         MOV       DPH,A
   \   000064   12....       LCALL     ??Subroutine212_0 & 0xFFFF
   \                     ??CrossCallReturnLabel_471:
   \   000067   7404         MOV       A,#0x4
   \   000069   12....       LCALL     ?XSTACK_DISP0_8
   \   00006C   AA82         MOV       R2,DPL
   \   00006E   AB83         MOV       R3,DPH
   \   000070   12....       LCALL     `??zclParseHdr::?relay`; Banked call to: zclParseHdr
   \   000073   8A..         MOV       ?V4,R2
   \   000075   8B..         MOV       ?V5,R3
   \   000077   A8..         MOV       R0,?V4
   \   000079   A9..         MOV       R1,?V5
   \   00007B   740A         MOV       A,#0xa
   \   00007D   12....       LCALL     ?XSTACK_DISP0_8
   \   000080   EA           MOV       A,R2
   \   000081   F0           MOVX      @DPTR,A
   \   000082   A3           INC       DPTR
   \   000083   EB           MOV       A,R3
   \   000084   12....       LCALL     ?Subroutine29 & 0xFFFF
   2156            inMsg.pDataLen = pkt->cmd.DataLength;
   2157            inMsg.pDataLen -= (uint16)(inMsg.pData - pkt->cmd.Data);
   \                     ??CrossCallReturnLabel_33:
   \   000087   12....       LCALL     ??Subroutine208_0 & 0xFFFF
   \                     ??CrossCallReturnLabel_439:
   \   00008A   EA           MOV       A,R2
   \   00008B   C3           CLR       C
   \   00008C   98           SUBB      A,R0
   \   00008D   F8           MOV       R0,A
   \   00008E   EB           MOV       A,R3
   \   00008F   99           SUBB      A,R1
   \   000090   F9           MOV       R1,A
   \   000091   85..82       MOV       DPL,?V2
   \   000094   85..83       MOV       DPH,?V3
   \   000097   E0           MOVX      A,@DPTR
   \   000098   28           ADD       A,R0
   \   000099   F8           MOV       R0,A
   \   00009A   A3           INC       DPTR
   \   00009B   E0           MOVX      A,@DPTR
   \   00009C   39           ADDC      A,R1
   \   00009D   F9           MOV       R1,A
   \   00009E   740C         MOV       A,#0xc
   \   0000A0   12....       LCALL     ?XSTACK_DISP0_8
   \   0000A3   12....       LCALL     ??Subroutine197_0 & 0xFFFF
   2158          
   2159            // Temporary workaround to allow callback functions access to the
   2160            // transaction sequence number.  Callback functions will call
   2161            // zcl_getParsedTransSeqNum() to retrieve this number.
   2162            savedZCLTransSeqNum = inMsg.hdr.transSeqNum;
   \                     ??CrossCallReturnLabel_366:
   \   0000A6   7408         MOV       A,#0x8
   \   0000A8   12....       LCALL     ?XSTACK_DISP0_8
   \   0000AB   E0           MOVX      A,@DPTR
   \   0000AC   90....       MOV       DPTR,#savedZCLTransSeqNum
   \   0000AF   F0           MOVX      @DPTR,A
   2163          
   2164            // Find the wanted endpoint
   2165            epDesc = afFindEndPointDesc( pkt->endPoint );
   \   0000B0   EE           MOV       A,R6
   \   0000B1   2414         ADD       A,#0x14
   \   0000B3   F5..         MOV       ?V0,A
   \   0000B5   E4           CLR       A
   \   0000B6   3F           ADDC      A,R7
   \   0000B7   F5..         MOV       ?V1,A
   \   0000B9                ; Setup parameters for call to function afFindEndPointDesc
   \   0000B9   85..82       MOV       DPL,?V0
   \   0000BC   F583         MOV       DPH,A
   \   0000BE   E0           MOVX      A,@DPTR
   \   0000BF   F9           MOV       R1,A
   \   0000C0   12....       LCALL     `??afFindEndPointDesc::?relay`; Banked call to: afFindEndPointDesc
   \   0000C3   8A82         MOV       DPL,R2
   \   0000C5   8B83         MOV       DPH,R3
   2166            if ( epDesc == NULL )
   \   0000C7   E582         MOV       A,DPL
   \   0000C9   4583         ORL       A,DPH
   \   0000CB   700C         JNZ       ??zcl_ProcessMessageMSG_2
   2167            {
   2168              rawAFMsg = NULL;
   \   0000CD   90....       MOV       DPTR,#rawAFMsg
   \   0000D0   E4           CLR       A
   \   0000D1   F0           MOVX      @DPTR,A
   \   0000D2   A3           INC       DPTR
   \   0000D3   F0           MOVX      @DPTR,A
   2169              return ( ZCL_PROC_EP_NOT_FOUND );   // Error, ignore the message
   \   0000D4   7902         MOV       R1,#0x2
   \   0000D6   02....       LJMP      ??zcl_ProcessMessageMSG_1 & 0xFFFF
   2170            }
   2171          
   2172            if ( ( epDesc->simpleDesc == NULL ) ||
   2173                 ( zcl_DeviceOperational( pkt->endPoint, pkt->clusterId, inMsg.hdr.fc.type,
   2174                                          inMsg.hdr.commandID, epDesc->simpleDesc->AppProfId ) == FALSE ) )
   \                     ??zcl_ProcessMessageMSG_2:
   \   0000D9   12....       LCALL     ?Subroutine53 & 0xFFFF
   \                     ??CrossCallReturnLabel_335:
   \   0000DC   602B         JZ        ??zcl_ProcessMessageMSG_3
   \   0000DE   EE           MOV       A,R6
   \   0000DF   2404         ADD       A,#0x4
   \   0000E1   F5..         MOV       ?V2,A
   \   0000E3   E4           CLR       A
   \   0000E4   3F           ADDC      A,R7
   \   0000E5   F5..         MOV       ?V3,A
   \   0000E7                ; Setup parameters for call to function zcl_DeviceOperational
   \   0000E7   A3           INC       DPTR
   \   0000E8   12....       LCALL     ?PUSH_XSTACK8_X_TWO
   \   0000EB   740B         MOV       A,#0xb
   \   0000ED   12....       LCALL     ?XSTACK_DISP0_8
   \   0000F0   E0           MOVX      A,@DPTR
   \   0000F1   FD           MOV       R5,A
   \   0000F2   7406         MOV       A,#0x6
   \   0000F4   12....       LCALL     ?XSTACK_DISP0_8
   \   0000F7   E0           MOVX      A,@DPTR
   \   0000F8   5403         ANL       A,#0x3
   \   0000FA   FC           MOV       R4,A
   \   0000FB   12....       LCALL     ?Subroutine51 & 0xFFFF
   \                     ??CrossCallReturnLabel_65:
   \   0000FE   12....       LCALL     `??zcl_DeviceOperational::?relay`; Banked call to: zcl_DeviceOperational
   \   000101   7402         MOV       A,#0x2
   \   000103   12....       LCALL     ?DEALLOC_XSTACK8
   \   000106   E9           MOV       A,R1
   \   000107   700C         JNZ       ??zcl_ProcessMessageMSG_4
   2175            {
   2176              rawAFMsg = NULL;
   \                     ??zcl_ProcessMessageMSG_3:
   \   000109   90....       MOV       DPTR,#rawAFMsg
   \   00010C   E4           CLR       A
   \   00010D   F0           MOVX      @DPTR,A
   \   00010E   A3           INC       DPTR
   \   00010F   F0           MOVX      @DPTR,A
   2177              return ( ZCL_PROC_NOT_OPERATIONAL ); // Error, ignore the message
   \   000110   7903         MOV       R1,#0x3
   \   000112   02....       LJMP      ??zcl_ProcessMessageMSG_1 & 0xFFFF
   2178            }
   2179          
   2180          #if defined ( INTER_PAN )
   2181            if ( StubAPS_InterPan( pkt->srcAddr.panId, pkt->srcAddr.endPoint ) )
   2182            {
   2183              // No foundation command is supported thru Inter-PAN communication.
   2184              // But the Light Link cluster uses a different Frame Control format
   2185              // for it's Inter-PAN messages, where the messages could be confused
   2186              // with the foundation commands.
   2187              if ( zcl_ProfileCmd( inMsg.hdr.fc.type ) )
   2188              {
   2189                rawAFMsg = NULL;
   2190                return ( ZCL_PROC_INTERPAN_FOUNDATION_CMD );
   2191              }
   2192          
   2193              interPanMsg = TRUE;
   2194              options = AF_TX_OPTIONS_NONE;
   2195            }
   2196            else
   2197          #endif
   2198            {
   2199              interPanMsg = FALSE;
   2200              options = zclGetClusterOption( pkt->endPoint, pkt->clusterId );
   \                     ??zcl_ProcessMessageMSG_4:
   \   000115                ; Setup parameters for call to function zclGetClusterOption
   \   000115   12....       LCALL     ?Subroutine51 & 0xFFFF
   2201            }
   \                     ??CrossCallReturnLabel_66:
   \   000118   12....       LCALL     `??zclGetClusterOption::?relay`; Banked call to: zclGetClusterOption
   \   00011B   E9           MOV       A,R1
   \   00011C   F5..         MOV       ?V6,A
   2202          
   2203            // Find the appropriate plugin
   2204            pInPlugin = zclFindPlugin( pkt->clusterId, epDesc->simpleDesc->AppProfId );
   \   00011E   85..82       MOV       DPL,?V2
   \   000121   85..83       MOV       DPH,?V3
   \   000124   12....       LCALL     ??Subroutine208_0 & 0xFFFF
   \                     ??CrossCallReturnLabel_440:
   \   000127   EA           MOV       A,R2
   \   000128   FC           MOV       R4,A
   \   000129   EB           MOV       A,R3
   \   00012A   FD           MOV       R5,A
   \   00012B   90....       MOV       DPTR,#plugins
   \   00012E   8004         SJMP      ??zcl_ProcessMessageMSG_5
   \                     ??zcl_ProcessMessageMSG_6:
   \   000130   8882         MOV       DPL,R0
   \   000132   8983         MOV       DPH,R1
   \                     ??zcl_ProcessMessageMSG_5:
   \   000134   12....       LCALL     ??Subroutine196_0 & 0xFFFF
   \                     ??CrossCallReturnLabel_353:
   \   000137   7003         JNZ       $+5
   \   000139   02....       LJMP      ??zcl_ProcessMessageMSG_7 & 0xFFFF
   \   00013C   8882         MOV       DPL,R0
   \   00013E   8983         MOV       DPH,R1
   \   000140   A3           INC       DPTR
   \   000141   A3           INC       DPTR
   \   000142   12....       LCALL     ?Subroutine99 & 0xFFFF
   \                     ??CrossCallReturnLabel_167:
   \   000145   C3           CLR       C
   \   000146   EA           MOV       A,R2
   \   000147   95..         SUBB      A,?V4
   \   000149   EB           MOV       A,R3
   \   00014A   95..         SUBB      A,?V5
   \   00014C   40E2         JC        ??zcl_ProcessMessageMSG_6
   \   00014E   8882         MOV       DPL,R0
   \   000150   8983         MOV       DPH,R1
   \   000152   A3           INC       DPTR
   \   000153   A3           INC       DPTR
   \   000154   A3           INC       DPTR
   \   000155   A3           INC       DPTR
   \   000156   C3           CLR       C
   \   000157   E0           MOVX      A,@DPTR
   \   000158   9C           SUBB      A,R4
   \   000159   A3           INC       DPTR
   \   00015A   E0           MOVX      A,@DPTR
   \   00015B   9D           SUBB      A,R5
   \   00015C   40D2         JC        ??zcl_ProcessMessageMSG_6
   \   00015E   E8           MOV       A,R0
   \   00015F   FC           MOV       R4,A
   \   000160   E9           MOV       A,R1
   \   000161   FD           MOV       R5,A
   \   000162   7404         MOV       A,#0x4
   \   000164   12....       LCALL     ?XSTACK_DISP0_8
   \   000167   E0           MOVX      A,@DPTR
   \   000168   5407         ANL       A,#0x7
   \   00016A   700D         JNZ       ??zcl_ProcessMessageMSG_8
   \   00016C   7409         MOV       A,#0x9
   \   00016E   12....       LCALL     ?XSTACK_DISP0_8
   \   000171   E0           MOVX      A,@DPTR
   \   000172   640B         XRL       A,#0xb
   \   000174   7003         JNZ       $+5
   \   000176   02....       LJMP      ??zcl_ProcessMessageMSG_9 & 0xFFFF
   2205          
   2206            // Local and remote Security options must match except for Default Response command
   2207            if ( ( pInPlugin != NULL ) && !zcl_DefaultRspCmd( inMsg.hdr ) )
   2208            {
   2209              securityEnable = ( options & AF_EN_SECURITY ) ? TRUE : FALSE;
   \                     ??zcl_ProcessMessageMSG_8:
   \   000179   E5..         MOV       A,?V6
   \   00017B   A2E6         MOV       C,0xE0 /* A   */.6
   \   00017D   4003         JC        $+5
   \   00017F   02....       LJMP      ??zcl_ProcessMessageMSG_9 & 0xFFFF
   \   000182   EE           MOV       A,R6
   \   000183   2419         ADD       A,#0x19
   \   000185   F582         MOV       DPL,A
   \   000187   E4           CLR       A
   \   000188   3F           ADDC      A,R7
   \   000189   F583         MOV       DPH,A
   \   00018B   E0           MOVX      A,@DPTR
   \   00018C   6003         JZ        $+5
   \   00018E   02....       LJMP      ??zcl_ProcessMessageMSG_9 & 0xFFFF
   2210          
   2211              // Make sure that Clusters specifically defined to use security are received secure,
   2212              // any other cluster that wants to use APS security will be allowed
   2213              if ( ( securityEnable == TRUE ) && ( pkt->SecurityUse == FALSE ) )
   2214              {
   2215                if ( UNICAST_MSG( inMsg.msg ) )
   \   000191   7402         MOV       A,#0x2
   \   000193   12....       LCALL     ?XSTACK_DISP0_8
   \   000196   12....       LCALL     ?Subroutine70 & 0xFFFF
   \                     ??CrossCallReturnLabel_110:
   \   000199   707A         JNZ       ??zcl_ProcessMessageMSG_10
   \   00019B   7402         MOV       A,#0x2
   \   00019D   12....       LCALL     ?XSTACK_DISP0_8
   \   0001A0   12....       LCALL     ?Subroutine43 & 0xFFFF
   \                     ??CrossCallReturnLabel_361:
   \   0001A3   7070         JNZ       ??zcl_ProcessMessageMSG_10
   2216                {
   2217                  // Send a Default Response command back with no Application Link Key security
   2218                  zclSetSecurityOption( pkt->endPoint, pkt->clusterId, FALSE );
   \   0001A5                ; Setup parameters for call to function zclSetSecurityOption
   \   0001A5   7C00         MOV       R4,#0x0
   \   0001A7   85..82       MOV       DPL,?V0
   \   0001AA   85..83       MOV       DPH,?V1
   \   0001AD   E0           MOVX      A,@DPTR
   \   0001AE   F9           MOV       R1,A
   \   0001AF   12....       LCALL     `??zclSetSecurityOption::?relay`; Banked call to: zclSetSecurityOption
   2219          
   2220                  defautlRspCmd.statusCode = status;
   \   0001B2   7401         MOV       A,#0x1
   \   0001B4   12....       LCALL     ?XSTACK_DISP0_8
   \   0001B7   7401         MOV       A,#0x1
   \   0001B9   F0           MOVX      @DPTR,A
   2221                  defautlRspCmd.commandID = inMsg.hdr.commandID;
   \   0001BA   7409         MOV       A,#0x9
   \   0001BC   12....       LCALL     ?XSTACK_DISP0_8
   \   0001BF   12....       LCALL     ?Subroutine85 & 0xFFFF
   2222                  zcl_SendDefaultRspCmd( inMsg.msg->endPoint, &(inMsg.msg->srcAddr),
   2223                                         inMsg.msg->clusterId, &defautlRspCmd,
   2224                                         !inMsg.hdr.fc.direction, true,
   2225                                         inMsg.hdr.manuCode, inMsg.hdr.transSeqNum );
   \                     ??CrossCallReturnLabel_138:
   \   0001C2   12....       LCALL     ?XSTACK_DISP0_8
   \   0001C5   E0           MOVX      A,@DPTR
   \   0001C6   F5..         MOV       ?V4,A
   \   0001C8   78..         MOV       R0,#?V4
   \   0001CA   12....       LCALL     ?PUSH_XSTACK_I_ONE
   \   0001CD   7407         MOV       A,#0x7
   \   0001CF   12....       LCALL     ?XSTACK_DISP0_8
   \   0001D2   12....       LCALL     ?PUSH_XSTACK8_X_TWO
   \   0001D5   75..01       MOV       ?V4,#0x1
   \   0001D8   78..         MOV       R0,#?V4
   \   0001DA   12....       LCALL     ?PUSH_XSTACK_I_ONE
   \   0001DD   7408         MOV       A,#0x8
   \   0001DF   12....       LCALL     ?XSTACK_DISP0_8
   \   0001E2   12....       LCALL     ??Subroutine226_0 & 0xFFFF
   \                     ??CrossCallReturnLabel_533:
   \   0001E5   12....       LCALL     ?PUSH_XSTACK_I_ONE
   \   0001E8   7405         MOV       A,#0x5
   \   0001EA   12....       LCALL     ?XSTACK_DISP100_8
   \   0001ED   88..         MOV       ?V4,R0
   \   0001EF   89..         MOV       ?V5,R1
   \   0001F1   78..         MOV       R0,#?V4
   \   0001F3   12....       LCALL     ?PUSH_XSTACK_I_TWO
   \   0001F6   7409         MOV       A,#0x9
   \   0001F8   12....       LCALL     ?XSTACK_DISP0_8
   \   0001FB   12....       LCALL     ?Subroutine59 & 0xFFFF
   \                     ??CrossCallReturnLabel_78:
   \   0001FE   12....       LCALL     ?XSTACK_DISP0_8
   \   000201   12....       LCALL     ?Subroutine83 & 0xFFFF
   \                     ??CrossCallReturnLabel_134:
   \   000204   12....       LCALL     ?XSTACK_DISP0_8
   \   000207   12....       LCALL     ?Subroutine62 & 0xFFFF
   \                     ??CrossCallReturnLabel_91:
   \   00020A   12....       LCALL     ?DEALLOC_XSTACK8
   2226          
   2227                  zclSetSecurityOption( pkt->endPoint, pkt->clusterId, TRUE );
   \   00020D                ; Setup parameters for call to function zclSetSecurityOption
   \   00020D   7C01         MOV       R4,#0x1
   \   00020F   12....       LCALL     ?Subroutine51 & 0xFFFF
   2228                }
   \                     ??CrossCallReturnLabel_67:
   \   000212   12....       LCALL     `??zclSetSecurityOption::?relay`; Banked call to: zclSetSecurityOption
   2229          
   2230                rawAFMsg = NULL;
   \                     ??zcl_ProcessMessageMSG_10:
   \   000215   90....       MOV       DPTR,#rawAFMsg
   \   000218   E4           CLR       A
   \   000219   F0           MOVX      @DPTR,A
   \   00021A   A3           INC       DPTR
   \   00021B   F0           MOVX      @DPTR,A
   2231                return ( ZCL_PROC_NOT_SECURE );   // Error, ignore the message
   \   00021C   7905         MOV       R1,#0x5
   \   00021E   02....       LJMP      ??zcl_ProcessMessageMSG_1 & 0xFFFF
   2232              }
   2233            }
   \                     ??zcl_ProcessMessageMSG_7:
   \   000221   7C00         MOV       R4,#0x0
   \   000223   7D00         MOV       R5,#0x0
   2234          
   2235            // Is this a foundation type message
   2236            if ( !interPanMsg && zcl_ProfileCmd( inMsg.hdr.fc.type ) )
   \                     ??zcl_ProcessMessageMSG_9:
   \   000225   7404         MOV       A,#0x4
   \   000227   12....       LCALL     ?XSTACK_DISP0_8
   \   00022A   E0           MOVX      A,@DPTR
   \   00022B   F8           MOV       R0,A
   \   00022C   5403         ANL       A,#0x3
   \   00022E   6003         JZ        $+5
   \   000230   02....       LJMP      ??zcl_ProcessMessageMSG_11 & 0xFFFF
   2237            {
   2238              if ( inMsg.hdr.fc.manuSpecific )
   \   000233   E8           MOV       A,R0
   \   000234   5404         ANL       A,#0x4
   \   000236   6005         JZ        ??zcl_ProcessMessageMSG_12
   2239              {
   2240                // We don't support any manufacturer specific command
   2241                status = ZCL_STATUS_UNSUP_MANU_GENERAL_COMMAND;
   \   000238   7E84         MOV       R6,#-0x7c
   \   00023A   02....       LJMP      ??zcl_ProcessMessageMSG_13 & 0xFFFF
   2242              }
   2243              else if ( ( inMsg.hdr.commandID <= ZCL_CMD_MAX ) &&
   2244                        ( zclCmdTable[inMsg.hdr.commandID].pfnParseInProfile != NULL ) )
   \                     ??zcl_ProcessMessageMSG_12:
   \   00023D   7409         MOV       A,#0x9
   \   00023F   12....       LCALL     ?XSTACK_DISP0_8
   \   000242   E0           MOVX      A,@DPTR
   \   000243   F8           MOV       R0,A
   \   000244   C3           CLR       C
   \   000245   9417         SUBB      A,#0x17
   \   000247   4003         JC        $+5
   \   000249   02....       LJMP      ??zcl_ProcessMessageMSG_14 & 0xFFFF
   \   00024C   E8           MOV       A,R0
   \   00024D   F5..         MOV       ?V2,A
   \   00024F   75..00       MOV       ?V3,#0x0
   \   000252   7402         MOV       A,#0x2
   \   000254   78..         MOV       R0,#?V2
   \   000256   12....       LCALL     ?S_SHL
   \   000259   74..         MOV       A,#zclCmdTable & 0xff
   \   00025B   25..         ADD       A,?V2
   \   00025D   F582         MOV       DPL,A
   \   00025F   74..         MOV       A,#(zclCmdTable >> 8) & 0xff
   \   000261   35..         ADDC      A,?V3
   \   000263   F583         MOV       DPH,A
   \   000265   E4           CLR       A
   \   000266   93           MOVC      A,@A+DPTR
   \   000267   F8           MOV       R0,A
   \   000268   7401         MOV       A,#0x1
   \   00026A   93           MOVC      A,@A+DPTR
   \   00026B   F9           MOV       R1,A
   \   00026C   E8           MOV       A,R0
   \   00026D   49           ORL       A,R1
   \   00026E   7003         JNZ       $+5
   \   000270   02....       LJMP      ??zcl_ProcessMessageMSG_14 & 0xFFFF
   2245              {
   2246                zclParseCmd_t parseCmd;
   2247          
   2248                parseCmd.endpoint = pkt->endPoint;
   \   000273   85..82       MOV       DPL,?V0
   \   000276   85..83       MOV       DPH,?V1
   \   000279   E0           MOVX      A,@DPTR
   \   00027A   C0E0         PUSH      A
   \   00027C   7410         MOV       A,#0x10
   \   00027E   12....       LCALL     ?XSTACK_DISP0_8
   \   000281   D0E0         POP       A
   \   000283   F0           MOVX      @DPTR,A
   2249                parseCmd.dataLen = inMsg.pDataLen;
   \   000284   740C         MOV       A,#0xc
   \   000286   12....       LCALL     ?XSTACK_DISP0_8
   \   000289   12....       LCALL     ??Subroutine208_0 & 0xFFFF
   \                     ??CrossCallReturnLabel_441:
   \   00028C   7411         MOV       A,#0x11
   \   00028E   12....       LCALL     ?XSTACK_DISP0_8
   \   000291   12....       LCALL     ??Subroutine234_0 & 0xFFFF
   2250                parseCmd.pData = inMsg.pData;
   \                     ??CrossCallReturnLabel_588:
   \   000294   740A         MOV       A,#0xa
   \   000296   12....       LCALL     ?XSTACK_DISP0_8
   \   000299   12....       LCALL     ??Subroutine208_0 & 0xFFFF
   \                     ??CrossCallReturnLabel_442:
   \   00029C   7413         MOV       A,#0x13
   \   00029E   12....       LCALL     ?XSTACK_DISP0_8
   \   0002A1   12....       LCALL     ??Subroutine234_0 & 0xFFFF
   2251          
   2252                // Parse the command, remember that the return value is a pointer to allocated memory
   2253                inMsg.attrCmd = zclParseCmd( inMsg.hdr.commandID, &parseCmd );
   \                     ??CrossCallReturnLabel_589:
   \   0002A4                ; Setup parameters for indirect call
   \   0002A4   7410         MOV       A,#0x10
   \   0002A6   12....       LCALL     ?XSTACK_DISP101_8
   \   0002A9   8882         MOV       DPL,R0
   \   0002AB   8983         MOV       DPH,R1
   \   0002AD   12....       LCALL     ?CALL_IND
   \   0002B0   8B..         MOV       ?V1,R3
   \   0002B2   A9..         MOV       R1,?V1
   \   0002B4   740E         MOV       A,#0xe
   \   0002B6   12....       LCALL     ?XSTACK_DISP0_8
   \   0002B9   12....       LCALL     ??Subroutine234_0 & 0xFFFF
   2254                if ( (inMsg.attrCmd != NULL) && (zclCmdTable[inMsg.hdr.commandID].pfnProcessInProfile != NULL) )
   \                     ??CrossCallReturnLabel_590:
   \   0002BC   EA           MOV       A,R2
   \   0002BD   49           ORL       A,R1
   \   0002BE   6048         JZ        ??CrossCallReturnLabel_148
   \   0002C0   7409         MOV       A,#0x9
   \   0002C2   12....       LCALL     ?XSTACK_DISP0_8
   \   0002C5   E0           MOVX      A,@DPTR
   \   0002C6   F5..         MOV       ?V0,A
   \   0002C8   75..00       MOV       ?V1,#0x0
   \   0002CB   7402         MOV       A,#0x2
   \   0002CD   78..         MOV       R0,#?V0
   \   0002CF   12....       LCALL     ?S_SHL
   \   0002D2   74..         MOV       A,#(zclCmdTable + 2) & 0xff
   \   0002D4   25..         ADD       A,?V0
   \   0002D6   F582         MOV       DPL,A
   \   0002D8   74..         MOV       A,#((zclCmdTable + 2) >> 8) & 0xff
   \   0002DA   35..         ADDC      A,?V1
   \   0002DC   F583         MOV       DPH,A
   \   0002DE   E4           CLR       A
   \   0002DF   93           MOVC      A,@A+DPTR
   \   0002E0   F8           MOV       R0,A
   \   0002E1   7401         MOV       A,#0x1
   \   0002E3   93           MOVC      A,@A+DPTR
   \   0002E4   8882         MOV       DPL,R0
   \   0002E6   F583         MOV       DPH,A
   \   0002E8   E582         MOV       A,DPL
   \   0002EA   4583         ORL       A,DPH
   \   0002EC   6012         JZ        ??zcl_ProcessMessageMSG_15
   2255                {
   2256                  // Process the command
   2257                  if ( zclProcessCmd( inMsg.hdr.commandID, &inMsg ) == FALSE )
   \   0002EE                ; Setup parameters for indirect call
   \   0002EE   7402         MOV       A,#0x2
   \   0002F0   12....       LCALL     ?XSTACK_DISP101_8
   \   0002F3   12....       LCALL     ?CALL_IND
   2258                  {
   2259                    // Couldn't find attribute in the table.
   2260                  }
   2261                }
   2262          
   2263                // Free the buffer
   2264                if ( inMsg.attrCmd )
   \   0002F6   740E         MOV       A,#0xe
   \   0002F8   12....       LCALL     ?XSTACK_DISP0_8
   \   0002FB   12....       LCALL     ??Subroutine196_0 & 0xFFFF
   \                     ??CrossCallReturnLabel_354:
   \   0002FE   6008         JZ        ??CrossCallReturnLabel_148
   2265                {
   2266                  zcl_mem_free( inMsg.attrCmd );
   \                     ??zcl_ProcessMessageMSG_15:
   \   000300                ; Setup parameters for call to function osal_mem_free
   \   000300   740E         MOV       A,#0xe
   \   000302   12....       LCALL     ?XSTACK_DISP0_8
   \   000305   12....       LCALL     ?Subroutine91 & 0xFFFF
   2267                }
   2268          
   2269                if ( CMD_HAS_RSP( inMsg.hdr.commandID ) )
   \                     ??CrossCallReturnLabel_148:
   \   000308   7409         MOV       A,#0x9
   \   00030A   12....       LCALL     ?XSTACK_DISP0_8
   \   00030D   E0           MOVX      A,@DPTR
   \   00030E   F8           MOV       R0,A
   \   00030F   6058         JZ        ??zcl_ProcessMessageMSG_16
   \   000311   7402         MOV       A,#0x2
   \   000313   68           XRL       A,R0
   \   000314   6053         JZ        ??zcl_ProcessMessageMSG_16
   \   000316   7403         MOV       A,#0x3
   \   000318   68           XRL       A,R0
   \   000319   604E         JZ        ??zcl_ProcessMessageMSG_16
   \   00031B   7405         MOV       A,#0x5
   \   00031D   68           XRL       A,R0
   \   00031E   6049         JZ        ??zcl_ProcessMessageMSG_16
   \   000320   7406         MOV       A,#0x6
   \   000322   68           XRL       A,R0
   \   000323   6044         JZ        ??zcl_ProcessMessageMSG_16
   \   000325   7408         MOV       A,#0x8
   \   000327   68           XRL       A,R0
   \   000328   603F         JZ        ??zcl_ProcessMessageMSG_16
   \   00032A   740C         MOV       A,#0xc
   \   00032C   68           XRL       A,R0
   \   00032D   603A         JZ        ??zcl_ProcessMessageMSG_16
   \   00032F   7411         MOV       A,#0x11
   \   000331   68           XRL       A,R0
   \   000332   6035         JZ        ??zcl_ProcessMessageMSG_16
   \   000334   7413         MOV       A,#0x13
   \   000336   68           XRL       A,R0
   \   000337   6030         JZ        ??zcl_ProcessMessageMSG_16
   \   000339   7415         MOV       A,#0x15
   \   00033B   68           XRL       A,R0
   \   00033C   602B         JZ        ??zcl_ProcessMessageMSG_16
   \   00033E   740B         MOV       A,#0xb
   \   000340   68           XRL       A,R0
   \   000341   6026         JZ        ??zcl_ProcessMessageMSG_16
   2270                {
   2271                  rawAFMsg = NULL;
   2272                  return ( ZCL_PROC_SUCCESS ); // We're done
   2273                }
   2274          
   2275                status = ZSuccess;
   \   000343   7E00         MOV       R6,#0x0
   \   000345   8042         SJMP      ??zcl_ProcessMessageMSG_13
   2276              }
   2277              else
   2278              {
   2279                // Unsupported message
   2280                status = ZCL_STATUS_UNSUP_GENERAL_COMMAND;
   \                     ??zcl_ProcessMessageMSG_14:
   \   000347   7E82         MOV       R6,#-0x7e
   \   000349   803E         SJMP      ??zcl_ProcessMessageMSG_13
   2281              }
   2282            }
   2283            else  // Not a foundation type message, so it must be specific to the cluster ID.
   2284            {
   2285              if ( pInPlugin && pInPlugin->pfnIncomingHdlr )
   \                     ??zcl_ProcessMessageMSG_11:
   \   00034B   EC           MOV       A,R4
   \   00034C   4D           ORL       A,R5
   \   00034D   602A         JZ        ??zcl_ProcessMessageMSG_17
   \   00034F   8C82         MOV       DPL,R4
   \   000351   8D83         MOV       DPH,R5
   \   000353   A3           INC       DPTR
   \   000354   A3           INC       DPTR
   \   000355   12....       LCALL     ?Subroutine53 & 0xFFFF
   \                     ??CrossCallReturnLabel_336:
   \   000358   601F         JZ        ??zcl_ProcessMessageMSG_17
   2286              {
   2287                // The return value of the plugin function will be
   2288                //  ZSuccess - Supported and need default response
   2289                //  ZFailure - Unsupported
   2290                //  ZCL_STATUS_CMD_HAS_RSP - Supported and do not need default rsp
   2291                //  ZCL_STATUS_INVALID_FIELD - Supported, but the incoming msg is wrong formatted
   2292                //  ZCL_STATUS_INVALID_VALUE - Supported, but the request not achievable by the h/w
   2293                //  ZCL_STATUS_SOFTWARE_FAILURE - Supported but ZStack memory allocation fails
   2294                status = pInPlugin->pfnIncomingHdlr( &inMsg );
   \   00035A                ; Setup parameters for indirect call
   \   00035A   7402         MOV       A,#0x2
   \   00035C   12....       LCALL     ?XSTACK_DISP101_8
   \   00035F   12....       LCALL     ?CALL_IND
   \   000362   E9           MOV       A,R1
   \   000363   FE           MOV       R6,A
   2295                if ( status == ZCL_STATUS_CMD_HAS_RSP || ( interPanMsg && status == ZSuccess ) )
   \   000364   74FF         MOV       A,#-0x1
   \   000366   6E           XRL       A,R6
   \   000367   700B         JNZ       ??zcl_ProcessMessageMSG_18
   2296                {
   2297                  rawAFMsg = NULL;
   \                     ??zcl_ProcessMessageMSG_16:
   \   000369   90....       MOV       DPTR,#rawAFMsg
   \   00036C   E4           CLR       A
   \   00036D   F0           MOVX      @DPTR,A
   \   00036E   A3           INC       DPTR
   \   00036F   F0           MOVX      @DPTR,A
   2298                  return ( ZCL_PROC_SUCCESS ); // We're done
   \   000370   F9           MOV       R1,A
   \   000371   02....       LJMP      ??zcl_ProcessMessageMSG_1 & 0xFFFF
   2299                }
   2300              }
   2301          
   2302              if ( status == ZFailure )
   \                     ??zcl_ProcessMessageMSG_18:
   \   000374   7401         MOV       A,#0x1
   \   000376   6E           XRL       A,R6
   \   000377   7010         JNZ       ??zcl_ProcessMessageMSG_13
   2303              {
   2304                // Unsupported message
   2305                if ( inMsg.hdr.fc.manuSpecific )
   \                     ??zcl_ProcessMessageMSG_17:
   \   000379   7404         MOV       A,#0x4
   \   00037B   12....       LCALL     ?XSTACK_DISP0_8
   \   00037E   E0           MOVX      A,@DPTR
   \   00037F   5404         ANL       A,#0x4
   \   000381   6004         JZ        ??zcl_ProcessMessageMSG_19
   2306                {
   2307                  status = ZCL_STATUS_UNSUP_MANU_CLUSTER_COMMAND;
   \   000383   7E83         MOV       R6,#-0x7d
   \   000385   8002         SJMP      ??zcl_ProcessMessageMSG_13
   2308                }
   2309                else
   2310                {
   2311                  status = ZCL_STATUS_UNSUP_CLUSTER_COMMAND;
   \                     ??zcl_ProcessMessageMSG_19:
   \   000387   7E81         MOV       R6,#-0x7f
   2312                }
   2313              }
   2314            }
   2315          
   2316            if ( UNICAST_MSG( inMsg.msg ) && inMsg.hdr.fc.disableDefaultRsp == 0 )
   \                     ??zcl_ProcessMessageMSG_13:
   \   000389   7402         MOV       A,#0x2
   \   00038B   12....       LCALL     ?XSTACK_DISP0_8
   \   00038E   12....       LCALL     ?Subroutine70 & 0xFFFF
   \                     ??CrossCallReturnLabel_111:
   \   000391   706B         JNZ       ??zcl_ProcessMessageMSG_20
   \   000393   7402         MOV       A,#0x2
   \   000395   12....       LCALL     ?XSTACK_DISP0_8
   \   000398   12....       LCALL     ?Subroutine43 & 0xFFFF
   \                     ??CrossCallReturnLabel_362:
   \   00039B   7061         JNZ       ??zcl_ProcessMessageMSG_20
   \   00039D   7404         MOV       A,#0x4
   \   00039F   12....       LCALL     ?XSTACK_DISP0_8
   \   0003A2   E0           MOVX      A,@DPTR
   \   0003A3   FA           MOV       R2,A
   \   0003A4   5410         ANL       A,#0x10
   \   0003A6   7056         JNZ       ??zcl_ProcessMessageMSG_20
   2317            {
   2318              // Send a Default Response command back
   2319              defautlRspCmd.statusCode = status;
   \   0003A8   7401         MOV       A,#0x1
   \   0003AA   12....       LCALL     ?XSTACK_DISP0_8
   \   0003AD   EE           MOV       A,R6
   \   0003AE   F0           MOVX      @DPTR,A
   2320              defautlRspCmd.commandID = inMsg.hdr.commandID;
   \   0003AF   7409         MOV       A,#0x9
   \   0003B1   12....       LCALL     ?XSTACK_DISP0_8
   \   0003B4   12....       LCALL     ?Subroutine85 & 0xFFFF
   2321              zcl_SendDefaultRspCmd( inMsg.msg->endPoint, &(inMsg.msg->srcAddr),
   2322                                     inMsg.msg->clusterId, &defautlRspCmd,
   2323                                     !inMsg.hdr.fc.direction, true,
   2324                                     inMsg.hdr.manuCode, inMsg.hdr.transSeqNum );
   \                     ??CrossCallReturnLabel_139:
   \   0003B7   12....       LCALL     ?XSTACK_DISP0_8
   \   0003BA   12....       LCALL     ?Subroutine63 & 0xFFFF
   \                     ??CrossCallReturnLabel_99:
   \   0003BD   12....       LCALL     ?PUSH_XSTACK_I_ONE
   \   0003C0   7407         MOV       A,#0x7
   \   0003C2   12....       LCALL     ?XSTACK_DISP0_8
   \   0003C5   12....       LCALL     ?PUSH_XSTACK8_X_TWO
   \   0003C8   75..01       MOV       ?V0,#0x1
   \   0003CB   78..         MOV       R0,#?V0
   \   0003CD   12....       LCALL     ?PUSH_XSTACK_I_ONE
   \   0003D0   EA           MOV       A,R2
   \   0003D1   12....       LCALL     ?Subroutine131 & 0xFFFF
   \                     ??CrossCallReturnLabel_225:
   \   0003D4   12....       LCALL     ?PUSH_XSTACK_I_ONE
   \   0003D7   7405         MOV       A,#0x5
   \   0003D9   12....       LCALL     ?XSTACK_DISP100_8
   \   0003DC   88..         MOV       ?V0,R0
   \   0003DE   89..         MOV       ?V1,R1
   \   0003E0   78..         MOV       R0,#?V0
   \   0003E2   12....       LCALL     ?PUSH_XSTACK_I_TWO
   \   0003E5   7409         MOV       A,#0x9
   \   0003E7   12....       LCALL     ?XSTACK_DISP0_8
   \   0003EA   12....       LCALL     ?Subroutine59 & 0xFFFF
   \                     ??CrossCallReturnLabel_79:
   \   0003ED   12....       LCALL     ?XSTACK_DISP0_8
   \   0003F0   12....       LCALL     ?Subroutine83 & 0xFFFF
   \                     ??CrossCallReturnLabel_135:
   \   0003F3   12....       LCALL     ?XSTACK_DISP0_8
   \   0003F6   12....       LCALL     ?Subroutine62 & 0xFFFF
   \                     ??CrossCallReturnLabel_92:
   \   0003F9   12....       LCALL     ?DEALLOC_XSTACK8
   2325              defaultResponseSent = TRUE;
   \   0003FC   D2..         SETB      ?VB.0
   2326            }
   2327          
   2328            rawAFMsg = NULL;
   \                     ??zcl_ProcessMessageMSG_20:
   \   0003FE   90....       MOV       DPTR,#rawAFMsg
   \   000401   E4           CLR       A
   \   000402   F0           MOVX      @DPTR,A
   \   000403   A3           INC       DPTR
   \   000404   F0           MOVX      @DPTR,A
   2329            if ( status == ZSuccess )
   \   000405   EE           MOV       A,R6
   \   000406   7004         JNZ       ??zcl_ProcessMessageMSG_21
   2330            {
   2331              return ( ZCL_PROC_SUCCESS );
   \   000408   7900         MOV       R1,#0x0
   \   00040A   8019         SJMP      ??zcl_ProcessMessageMSG_1
   2332            }
   2333            else if ( status == ZCL_STATUS_UNSUP_MANU_GENERAL_COMMAND )
   \                     ??zcl_ProcessMessageMSG_21:
   \   00040C   7484         MOV       A,#-0x7c
   \   00040E   6E           XRL       A,R6
   \   00040F   A2..         MOV       C,?VB.0
   \   000411   700A         JNZ       ??zcl_ProcessMessageMSG_22
   2334            {
   2335              if ( defaultResponseSent )
   \   000413   5004         JNC       ??zcl_ProcessMessageMSG_23
   2336              {
   2337                return ( ZCL_PROC_MANUFACTURER_SPECIFIC_DR );
   \   000415   7907         MOV       R1,#0x7
   \   000417   800C         SJMP      ??zcl_ProcessMessageMSG_1
   2338              }
   2339              else
   2340              {
   2341                return ( ZCL_PROC_MANUFACTURER_SPECIFIC );
   \                     ??zcl_ProcessMessageMSG_23:
   \   000419   7906         MOV       R1,#0x6
   \   00041B   8008         SJMP      ??zcl_ProcessMessageMSG_1
   2342              }
   2343            }
   2344            else
   2345            {
   2346              if ( defaultResponseSent )
   \                     ??zcl_ProcessMessageMSG_22:
   \   00041D   5004         JNC       ??zcl_ProcessMessageMSG_24
   2347              {
   2348                return ( ZCL_PROC_NOT_HANDLED_DR );
   \   00041F   7909         MOV       R1,#0x9
   \   000421   8002         SJMP      ??zcl_ProcessMessageMSG_1
   2349              }
   2350              else
   2351              {
   2352                return ( ZCL_PROC_NOT_HANDLED );
   \                     ??zcl_ProcessMessageMSG_24:
   \   000423   7908         MOV       R1,#0x8
   \                     ??zcl_ProcessMessageMSG_1:
   \   000425   7415         MOV       A,#0x15
   \   000427   12....       LCALL     ?DEALLOC_XSTACK8
   2353              }
   2354            }
   \   00042A   02....       LJMP      ?Subroutine9 & 0xFFFF
   2355          }

   \                                 In  segment BANKED_CODE, align 1, keep-with-next
   \                     ?Subroutine85:
   \   000000   12....       LCALL     ?Subroutine166 & 0xFFFF
   \                     ??CrossCallReturnLabel_281:
   \   000003                ; Setup parameters for call to function zcl_SendDefaultRspCmd
   \   000003                ; Setup parameters for call to function zcl_SendDefaultRspCmd
   \   000003   7408         MOV       A,#0x8
   \   000005   22           RET

   \                                 In  segment BANKED_CODE, align 1, keep-with-next
   \                     ?Subroutine83:
   \   000000   E0           MOVX      A,@DPTR
   \   000001   2406         ADD       A,#0x6
   \   000003   FA           MOV       R2,A
   \   000004   A3           INC       DPTR
   \   000005   E0           MOVX      A,@DPTR
   \   000006   3400         ADDC      A,#0x0
   \   000008   FB           MOV       R3,A
   \   000009   7409         MOV       A,#0x9
   \   00000B   22           RET

   \                                 In  segment BANKED_CODE, align 1, keep-with-next
   \                     ?Subroutine70:
   \   000000   12....       LCALL     ?Subroutine176 & 0xFFFF
   \                     ??CrossCallReturnLabel_430:
   \   000003   C8           XCH       A,R0
   \   000004   2415         ADD       A,#0x15
   \   000006   F582         MOV       DPL,A
   \   000008   E4           CLR       A
   \   000009   38           ADDC      A,R0
   \   00000A   F583         MOV       DPH,A
   \   00000C   E0           MOVX      A,@DPTR
   \   00000D   22           RET

   \                                 In  segment BANKED_CODE, align 1, keep-with-next
   \                     ?Subroutine62:
   \   000000   12....       LCALL     ?Subroutine159 & 0xFFFF
   \                     ??CrossCallReturnLabel_273:
   \   000003   F9           MOV       R1,A
   \   000004   12....       LCALL     `??zcl_SendDefaultRspCmd::?relay`; Banked call to: zcl_SendDefaultRspCmd
   \   000007   7407         MOV       A,#0x7
   \   000009   22           RET

   \                                 In  segment BANKED_CODE, align 1, keep-with-next
   \                     ?Subroutine59:
   \   000000   12....       LCALL     ?Subroutine150 & 0xFFFF
   \                     ??CrossCallReturnLabel_262:
   \   000003   12....       LCALL     ?Subroutine151 & 0xFFFF
   \                     ??CrossCallReturnLabel_521:
   \   000006   7409         MOV       A,#0x9
   \   000008   22           RET

   \                                 In  segment BANKED_CODE, align 1, keep-with-next
   \                     ?Subroutine53:
   \   000000   A3           INC       DPTR
   \   000001   A3           INC       DPTR
   \   000002   A3           INC       DPTR
   \   000003   A3           INC       DPTR
   \   000004                REQUIRE ??Subroutine190_0
   \   000004                ; // Fall through to label ??Subroutine190_0

   \                                 In  segment BANKED_CODE, align 1, keep-with-next
   \                     ??Subroutine190_0:
   \   000000   12....       LCALL     ?Subroutine176 & 0xFFFF
   \                     ??CrossCallReturnLabel_435:
   \   000003   8882         MOV       DPL,R0
   \   000005   F583         MOV       DPH,A
   \   000007   E582         MOV       A,DPL
   \   000009   4583         ORL       A,DPH
   \   00000B   22           RET

   \                                 In  segment BANKED_CODE, align 1, keep-with-next
   \                     ?Subroutine51:
   \   000000   85..82       MOV       DPL,?V2
   \   000003   85..83       MOV       DPH,?V3
   \   000006   12....       LCALL     ??Subroutine232_0 & 0xFFFF
   \                     ??CrossCallReturnLabel_578:
   \   000009   85..82       MOV       DPL,?V0
   \   00000C   85..83       MOV       DPH,?V1
   \   00000F   E0           MOVX      A,@DPTR
   \   000010   F9           MOV       R1,A
   \   000011   22           RET

   \                                 In  segment BANKED_CODE, align 1, keep-with-next
   \                     ?Subroutine43:
   \   000000   12....       LCALL     ?Subroutine150 & 0xFFFF
   \                     ??CrossCallReturnLabel_261:
   \   000003                REQUIRE ??Subroutine195_0
   \   000003                ; // Fall through to label ??Subroutine195_0

   \                                 In  segment BANKED_CODE, align 1, keep-with-next
   \                     ?Subroutine9:
   \   000000   7F07         MOV       R7,#0x7
   \   000002   02....       LJMP      ?BANKED_LEAVE_XDATA

   \                                 In  segment BANKED_CODE, align 1, keep-with-next
   \                     ?Subroutine131:
   \   000000   13           RRC       A
   \   000001   13           RRC       A
   \   000002   13           RRC       A
   \   000003   541F         ANL       A,#0x1f
   \   000005   6401         XRL       A,#0x1
   \   000007   5401         ANL       A,#0x1
   \   000009   F5..         MOV       ?V0,A
   \   00000B   78..         MOV       R0,#?V0
   \   00000D   22           RET

   \                                 In  segment BANKED_CODE, align 1, keep-with-next
   \                     ?Subroutine150:
   \   000000   12....       LCALL     ?Subroutine176 & 0xFFFF
   \                     ??CrossCallReturnLabel_432:
   \   000003   F583         MOV       DPH,A
   \   000005   8882         MOV       DPL,R0
   \   000007   22           RET

   \                                 In  segment BANKED_CODE, align 1, keep-with-next
   \                     ?Subroutine151:
   \   000000   A3           INC       DPTR
   \   000001   A3           INC       DPTR
   \   000002   A3           INC       DPTR
   \   000003   A3           INC       DPTR
   \   000004                REQUIRE ??Subroutine223_0
   \   000004                ; // Fall through to label ??Subroutine223_0

   \                                 In  segment BANKED_CODE, align 1, keep-with-next
   \                     ?Subroutine29:
   \   000000   F0           MOVX      @DPTR,A
   \   000001   85..82       MOV       DPL,?V0
   \   000004   85..83       MOV       DPH,?V1
   \   000007   22           RET

   \                                 In  segment BANKED_CODE, align 1, keep-with-next
   \                     ??Subroutine226_0:
   \   000000   12....       LCALL     ?Subroutine160 & 0xFFFF
   \                     ??CrossCallReturnLabel_537:
   \   000003   F5..         MOV       ?V4,A
   \   000005   78..         MOV       R0,#?V4
   \   000007   22           RET

   \                                 In  segment BANKED_CODE, align 1, keep-with-next
   \                     ?Subroutine160:
   \   000000   12....       LCALL     ?Subroutine177 & 0xFFFF
   \                     ??CrossCallReturnLabel_551:
   \   000003   6401         XRL       A,#0x1
   \   000005   5401         ANL       A,#0x1
   \   000007   22           RET

   \                                 In  segment BANKED_CODE, align 1, keep-with-next
   \                     ?Subroutine177:
   \   000000   E0           MOVX      A,@DPTR
   \   000001   13           RRC       A
   \   000002   13           RRC       A
   \   000003   13           RRC       A
   \   000004   541F         ANL       A,#0x1f
   \   000006   22           RET

   \                                 In  segment BANKED_CODE, align 1, keep-with-next
   \                     ?Subroutine166:
   \   000000   12....       LCALL     ?Subroutine175 & 0xFFFF
   \                     ??CrossCallReturnLabel_291:
   \   000003   F0           MOVX      @DPTR,A
   \   000004   22           RET

   \                                 In  segment BANKED_CODE, align 1, keep-with-next
   \                     ?Subroutine91:
   \   000000   12....       LCALL     ??Subroutine232_0 & 0xFFFF
   \                     ??CrossCallReturnLabel_579:
   \   000003   12....       LCALL     `??osal_mem_free::?relay`; Banked call to: osal_mem_free
   \   000006   22           RET
   2356          
   2357          /*********************************************************************
   2358           * PRIVATE FUNCTIONS
   2359           *********************************************************************/
   2360          
   2361          /*********************************************************************
   2362           * @fn      zclParseHdr
   2363           *
   2364           * @brief   Parse header of the ZCL format
   2365           *
   2366           * @param   hdr - place to put the frame control information
   2367           * @param   pData - incoming buffer to parse
   2368           *
   2369           * @return  pointer past the header
   2370           */

   \                                 In  segment BANKED_CODE, align 1, keep-with-next
   2371          uint8 *zclParseHdr( zclFrameHdr_t *hdr, uint8 *pData )
   \                     zclParseHdr:
   2372          {
   \   000000                REQUIRE ?V0
   \   000000                REQUIRE ?V1
   \   000000                REQUIRE ?V2
   \   000000                REQUIRE ?V3
   \   000000   74F4         MOV       A,#-0xc
   \   000002   12....       LCALL     ?BANKED_ENTER_XDATA
   \   000005                ; Saved register size: 12
   \   000005                ; Auto size: 0
   \   000005   8A..         MOV       ?V0,R2
   \   000007   8B..         MOV       ?V1,R3
   \   000009   EC           MOV       A,R4
   \   00000A   FE           MOV       R6,A
   \   00000B   ED           MOV       A,R5
   \   00000C   FF           MOV       R7,A
   2373            // Clear the header
   2374            zcl_memset( (uint8 *)hdr, 0, sizeof ( zclFrameHdr_t ) );
   \   00000D                ; Setup parameters for call to function osal_memset
   \   00000D   7C06         MOV       R4,#0x6
   \   00000F   7D00         MOV       R5,#0x0
   \   000011   7900         MOV       R1,#0x0
   \   000013   12....       LCALL     `??osal_memset::?relay`; Banked call to: osal_memset
   2375          
   2376            // Parse the Frame Control
   2377            hdr->fc.type = zcl_FCType( *pData );
   \   000016   85..82       MOV       DPL,?V0
   \   000019   85..83       MOV       DPH,?V1
   \   00001C   E0           MOVX      A,@DPTR
   \   00001D   54FC         ANL       A,#0xfc
   \   00001F   F8           MOV       R0,A
   \   000020   A3           INC       DPTR
   \   000021   E0           MOVX      A,@DPTR
   \   000022   F9           MOV       R1,A
   \   000023   8E82         MOV       DPL,R6
   \   000025   8F83         MOV       DPH,R7
   \   000027   E0           MOVX      A,@DPTR
   \   000028   5403         ANL       A,#0x3
   \   00002A   FA           MOV       R2,A
   \   00002B   E8           MOV       A,R0
   \   00002C   4A           ORL       A,R2
   \   00002D   85..82       MOV       DPL,?V0
   \   000030   85..83       MOV       DPH,?V1
   \   000033   F0           MOVX      @DPTR,A
   \   000034   A3           INC       DPTR
   \   000035   E9           MOV       A,R1
   \   000036   12....       LCALL     ?Subroutine26 & 0xFFFF
   2378            hdr->fc.manuSpecific = zcl_FCManuSpecific( *pData ) ? 1 : 0;
   \                     ??CrossCallReturnLabel_27:
   \   000039   A2E2         MOV       C,0xE0 /* A   */.2
   \   00003B   5004         JNC       ??zclParseHdr_0
   \   00003D   D2F0         SETB      B.0
   \   00003F   8002         SJMP      ??zclParseHdr_1
   \                     ??zclParseHdr_0:
   \   000041   C2F0         CLR       B.0
   \                     ??zclParseHdr_1:
   \   000043   85..82       MOV       DPL,?V0
   \   000046   85..83       MOV       DPH,?V1
   \   000049   E0           MOVX      A,@DPTR
   \   00004A   54FB         ANL       A,#0xfb
   \   00004C   F0           MOVX      @DPTR,A
   \   00004D   A2F0         MOV       C,B.0
   \   00004F   E4           CLR       A
   \   000050   33           RLC       A
   \   000051   F5..         MOV       ?V2,A
   \   000053   75..00       MOV       ?V3,#0x0
   \   000056   7402         MOV       A,#0x2
   \   000058   78..         MOV       R0,#?V2
   \   00005A   12....       LCALL     ?S_SHL
   \   00005D   E0           MOVX      A,@DPTR
   \   00005E   45..         ORL       A,?V2
   \   000060   12....       LCALL     ?Subroutine26 & 0xFFFF
   2379            if ( zcl_FCDirection( *pData ) )
   \                     ??CrossCallReturnLabel_28:
   \   000063   A2E3         MOV       C,0xE0 /* A   */.3
   \   000065   85..82       MOV       DPL,?V0
   \   000068   85..83       MOV       DPH,?V1
   \   00006B   E0           MOVX      A,@DPTR
   \   00006C   5004         JNC       ??zclParseHdr_2
   2380            {
   2381              hdr->fc.direction = ZCL_FRAME_SERVER_CLIENT_DIR;
   \   00006E   4408         ORL       A,#0x8
   \   000070   8002         SJMP      ??zclParseHdr_3
   2382            }
   2383            else
   2384            {
   2385              hdr->fc.direction = ZCL_FRAME_CLIENT_SERVER_DIR;
   \                     ??zclParseHdr_2:
   \   000072   54F7         ANL       A,#0xf7
   2386            }
   \                     ??zclParseHdr_3:
   \   000074   12....       LCALL     ?Subroutine26 & 0xFFFF
   2387          
   2388            hdr->fc.disableDefaultRsp = zcl_FCDisableDefaultRsp( *pData ) ? 1 : 0;
   \                     ??CrossCallReturnLabel_29:
   \   000077   A2E4         MOV       C,0xE0 /* A   */.4
   \   000079   5004         JNC       ??zclParseHdr_4
   \   00007B   D2F0         SETB      B.0
   \   00007D   8002         SJMP      ??zclParseHdr_5
   \                     ??zclParseHdr_4:
   \   00007F   C2F0         CLR       B.0
   \                     ??zclParseHdr_5:
   \   000081   85..82       MOV       DPL,?V0
   \   000084   85..83       MOV       DPH,?V1
   \   000087   E0           MOVX      A,@DPTR
   \   000088   54EF         ANL       A,#0xef
   \   00008A   F0           MOVX      @DPTR,A
   \   00008B   A2F0         MOV       C,B.0
   \   00008D   E4           CLR       A
   \   00008E   33           RLC       A
   \   00008F   F5..         MOV       ?V2,A
   \   000091   7404         MOV       A,#0x4
   \   000093   78..         MOV       R0,#?V2
   \   000095   12....       LCALL     ?S_SHL
   \   000098   E0           MOVX      A,@DPTR
   \   000099   45..         ORL       A,?V2
   \   00009B   12....       LCALL     ??Subroutine199_0 & 0xFFFF
   2389            pData++;  // move past the frame control field
   2390          
   2391            // parse the manfacturer code
   2392            if ( hdr->fc.manuSpecific )
   \                     ??CrossCallReturnLabel_375:
   \   00009E   85..82       MOV       DPL,?V0
   \   0000A1   85..83       MOV       DPH,?V1
   \   0000A4   E0           MOVX      A,@DPTR
   \   0000A5   5404         ANL       A,#0x4
   \   0000A7   601C         JZ        ??zclParseHdr_6
   2393            {
   2394              hdr->manuCode = BUILD_UINT16( pData[0], pData[1] );
   \   0000A9   8E82         MOV       DPL,R6
   \   0000AB   8F83         MOV       DPH,R7
   \   0000AD   E0           MOVX      A,@DPTR
   \   0000AE   FA           MOV       R2,A
   \   0000AF   A3           INC       DPTR
   \   0000B0   E0           MOVX      A,@DPTR
   \   0000B1   F9           MOV       R1,A
   \   0000B2   EA           MOV       A,R2
   \   0000B3   85..82       MOV       DPL,?V0
   \   0000B6   85..83       MOV       DPH,?V1
   \   0000B9   A3           INC       DPTR
   \   0000BA   A3           INC       DPTR
   \   0000BB   12....       LCALL     ??Subroutine198_0 & 0xFFFF
   2395              pData += 2;
   \                     ??CrossCallReturnLabel_363:
   \   0000BE   EE           MOV       A,R6
   \   0000BF   2402         ADD       A,#0x2
   \   0000C1   FE           MOV       R6,A
   \   0000C2   5001         JNC       ??zclParseHdr_6
   \   0000C4   0F           INC       R7
   2396            }
   2397          
   2398            // parse the Transaction Sequence Number
   2399            hdr->transSeqNum = *pData++;
   \                     ??zclParseHdr_6:
   \   0000C5   8E82         MOV       DPL,R6
   \   0000C7   8F83         MOV       DPH,R7
   \   0000C9   12....       LCALL     ?Subroutine82 & 0xFFFF
   \                     ??CrossCallReturnLabel_132:
   \   0000CC   12....       LCALL     ?Subroutine32 & 0xFFFF
   2400          
   2401            // parse the Cluster's command ID
   2402            hdr->commandID = *pData++;
   \                     ??CrossCallReturnLabel_39:
   \   0000CF   12....       LCALL     ?Subroutine82 & 0xFFFF
   \                     ??CrossCallReturnLabel_133:
   \   0000D2   A3           INC       DPTR
   \   0000D3   F0           MOVX      @DPTR,A
   2403          
   2404            // Should point to the frame payload
   2405            return ( pData );
   \   0000D4   EE           MOV       A,R6
   \   0000D5   12....       LCALL     ??Subroutine203_0 & 0xFFFF
   \                     ??CrossCallReturnLabel_401:
   \   0000D8   3F           ADDC      A,R7
   \   0000D9   FB           MOV       R3,A
   \   0000DA   02....       LJMP      ??Subroutine180_0 & 0xFFFF
   2406          }

   \                                 In  segment BANKED_CODE, align 1, keep-with-next
   \                     ?Subroutine82:
   \   000000   12....       LCALL     ?Subroutine167 & 0xFFFF
   \                     ??CrossCallReturnLabel_283:
   \   000003   A3           INC       DPTR
   \   000004   A3           INC       DPTR
   \   000005   A3           INC       DPTR
   \   000006   22           RET

   \                                 In  segment BANKED_CODE, align 1, keep-with-next
   \                     ??Subroutine199_0:
   \   000000   12....       LCALL     ?Subroutine145 & 0xFFFF
   \                     ??CrossCallReturnLabel_379:
   \   000003   22           RET

   \                                 In  segment BANKED_CODE, align 1, keep-with-next
   \                     ?Subroutine145:
   \   000000   F0           MOVX      @DPTR,A
   \   000001   8E82         MOV       DPL,R6
   \   000003   8F83         MOV       DPH,R7
   \   000005   A3           INC       DPTR
   \   000006   AE82         MOV       R6,DPL
   \   000008   AF83         MOV       R7,DPH
   \   00000A   22           RET

   \                                 In  segment BANKED_CODE, align 1, keep-with-next
   \                     ?Subroutine26:
   \   000000   12....       LCALL     ?Subroutine148 & 0xFFFF
   \                     ??CrossCallReturnLabel_257:
   \   000003   E0           MOVX      A,@DPTR
   \   000004   22           RET
   2407          
   2408          /*********************************************************************
   2409           * @fn      zclBuildHdr
   2410           *
   2411           * @brief   Build header of the ZCL format
   2412           *
   2413           * @param   hdr - outgoing header information
   2414           * @param   pData - outgoing header space
   2415           *
   2416           * @return  pointer past the header
   2417           */

   \                                 In  segment BANKED_CODE, align 1, keep-with-next
   2418          static uint8 *zclBuildHdr( zclFrameHdr_t *hdr, uint8 *pData )
   \                     zclBuildHdr:
   2419          {
   \   000000   74F7         MOV       A,#-0x9
   \   000002   12....       LCALL     ?BANKED_ENTER_XDATA
   \   000005                ; Saved register size: 9
   \   000005                ; Auto size: 0
   2420            // Build the Frame Control byte
   2421            *pData = hdr->fc.type;
   \   000005   8A82         MOV       DPL,R2
   \   000007   8B83         MOV       DPH,R3
   \   000009   E0           MOVX      A,@DPTR
   \   00000A   5403         ANL       A,#0x3
   \   00000C   8C82         MOV       DPL,R4
   \   00000E   8D83         MOV       DPH,R5
   \   000010   12....       LCALL     ??Subroutine192_0 & 0xFFFF
   2422            *pData |= hdr->fc.manuSpecific << 2;
   \                     ??CrossCallReturnLabel_342:
   \   000013   5404         ANL       A,#0x4
   \   000015   12....       LCALL     ?Subroutine31 & 0xFFFF
   2423            *pData |= hdr->fc.direction << 3;
   \                     ??CrossCallReturnLabel_340:
   \   000018   5408         ANL       A,#0x8
   \   00001A   12....       LCALL     ?Subroutine31 & 0xFFFF
   2424            *pData |= hdr->fc.disableDefaultRsp << 4;
   \                     ??CrossCallReturnLabel_341:
   \   00001D   5410         ANL       A,#0x10
   \   00001F   F8           MOV       R0,A
   \   000020   8C82         MOV       DPL,R4
   \   000022   8D83         MOV       DPH,R5
   \   000024   E0           MOVX      A,@DPTR
   \   000025   48           ORL       A,R0
   \   000026   F0           MOVX      @DPTR,A
   2425            pData++;  // move past the frame control field
   \   000027   A3           INC       DPTR
   \   000028   AC82         MOV       R4,DPL
   \   00002A   AD83         MOV       R5,DPH
   2426          
   2427            // Add the manfacturer code
   2428            if ( hdr->fc.manuSpecific )
   \   00002C   8A82         MOV       DPL,R2
   \   00002E   8B83         MOV       DPH,R3
   \   000030   E0           MOVX      A,@DPTR
   \   000031   5404         ANL       A,#0x4
   \   000033   6016         JZ        ??zclBuildHdr_0
   2429            {
   2430              *pData++ = LO_UINT16( hdr->manuCode );
   \   000035   12....       LCALL     ?Subroutine123 & 0xFFFF
   2431              *pData++ = HI_UINT16( hdr->manuCode );
   2432            }
   \                     ??CrossCallReturnLabel_339:
   \   000038   12....       LCALL     ?Subroutine97 & 0xFFFF
   \                     ??CrossCallReturnLabel_160:
   \   00003B   12....       LCALL     ??Subroutine187_0 & 0xFFFF
   \                     ??CrossCallReturnLabel_322:
   \   00003E   8C82         MOV       DPL,R4
   \   000040   8D83         MOV       DPH,R5
   \   000042   A3           INC       DPTR
   \   000043   F0           MOVX      @DPTR,A
   \   000044   EC           MOV       A,R4
   \   000045   2402         ADD       A,#0x2
   \   000047   FC           MOV       R4,A
   \   000048   5001         JNC       ??zclBuildHdr_0
   \   00004A   0D           INC       R5
   2433          
   2434            // Add the Transaction Sequence Number
   2435            *pData++ = hdr->transSeqNum;
   \                     ??zclBuildHdr_0:
   \   00004B   8A82         MOV       DPL,R2
   \   00004D   8B83         MOV       DPH,R3
   \   00004F   A3           INC       DPTR
   \   000050   A3           INC       DPTR
   \   000051   A3           INC       DPTR
   \   000052   A3           INC       DPTR
   \   000053   12....       LCALL     ?Subroutine97 & 0xFFFF
   \                     ??CrossCallReturnLabel_161:
   \   000056   12....       LCALL     ?Subroutine30 & 0xFFFF
   2436          
   2437            // Add the Cluster's command ID
   2438            *pData++ = hdr->commandID;
   \                     ??CrossCallReturnLabel_37:
   \   000059   12....       LCALL     ?Subroutine97 & 0xFFFF
   \                     ??CrossCallReturnLabel_162:
   \   00005C   A3           INC       DPTR
   \   00005D   F0           MOVX      @DPTR,A
   2439          
   2440            // Should point to the frame payload
   2441            return ( pData );
   \   00005E   EC           MOV       A,R4
   \   00005F   12....       LCALL     ??Subroutine203_0 & 0xFFFF
   \                     ??CrossCallReturnLabel_402:
   \   000062   3D           ADDC      A,R5
   \   000063   FB           MOV       R3,A
   \   000064   80..         SJMP      ??Subroutine193_0
   2442          }

   \                                 In  segment BANKED_CODE, align 1, keep-with-next
   \                     ?Subroutine31:
   \   000000   F8           MOV       R0,A
   \   000001   8C82         MOV       DPL,R4
   \   000003   8D83         MOV       DPH,R5
   \   000005   E0           MOVX      A,@DPTR
   \   000006   48           ORL       A,R0
   \   000007                REQUIRE ??Subroutine192_0
   \   000007                ; // Fall through to label ??Subroutine192_0

   \                                 In  segment BANKED_CODE, align 1, keep-with-next
   \                     ??Subroutine192_0:
   \   000000   12....       LCALL     ?Subroutine174 & 0xFFFF
   \                     ??CrossCallReturnLabel_346:
   \   000003   E0           MOVX      A,@DPTR
   \   000004   22           RET

   \                                 In  segment BANKED_CODE, align 1, keep-with-next
   \                     ?Subroutine97:
   \   000000   E0           MOVX      A,@DPTR
   \   000001   8C82         MOV       DPL,R4
   \   000003   8D83         MOV       DPH,R5
   \   000005   22           RET
   2443          
   2444          /*********************************************************************
   2445           * @fn      zclCalcHdrSize
   2446           *
   2447           * @brief   Calculate the number of bytes needed for an outgoing
   2448           *          ZCL header.
   2449           *
   2450           * @param   hdr - outgoing header information
   2451           *
   2452           * @return  returns the number of bytes needed
   2453           */
   2454          static uint8 zclCalcHdrSize( zclFrameHdr_t *hdr )
   2455          {
   2456            uint8 needed = (1 + 1 + 1); // frame control + transaction seq num + cmd ID
   2457          
   2458            // Add the manfacturer code
   2459            if ( hdr->fc.manuSpecific )
   2460            {
   2461              needed += 2;
   2462            }
   2463          
   2464            return ( needed );
   2465          }
   2466          
   2467          /*********************************************************************
   2468           * @fn      zclFindPlugin
   2469           *
   2470           * @brief   Find the right plugin for a cluster ID
   2471           *
   2472           * @param   clusterID - cluster ID to look for
   2473           * @param   profileID - profile ID
   2474           *
   2475           * @return  pointer to plugin, NULL if not found
   2476           */
   2477          static zclLibPlugin_t *zclFindPlugin( uint16 clusterID, uint16 profileID )
   2478          {
   2479            zclLibPlugin_t *pLoop = plugins;
   2480          
   2481            (void)profileID;  // Intentionally unreferenced parameter
   2482          
   2483            while ( pLoop != NULL )
   2484            {
   2485              if ( ( clusterID >= pLoop->startClusterID ) && ( clusterID <= pLoop->endClusterID ) )
   2486              {
   2487                return ( pLoop );
   2488              }
   2489          
   2490              pLoop = pLoop->next;
   2491            }
   2492          
   2493            return ( (zclLibPlugin_t *)NULL );
   2494          }
   2495          
   2496          #ifdef ZCL_DISCOVER
   2497          /*********************************************************************
   2498           * @fn      zclFindCmdRecsList
   2499           *
   2500           * @brief   Find the right command record list for an endpoint
   2501           *
   2502           * @param   endpoint - endpoint to look for
   2503           *
   2504           * @return  pointer to record list, NULL if not found
   2505           */

   \                                 In  segment BANKED_CODE, align 1, keep-with-next
   2506          static zclCmdRecsList_t *zclFindCmdRecsList( uint8 endpoint )
   \                     zclFindCmdRecsList:
   2507          {
   \   000000   C082         PUSH      DPL
   \   000002   C083         PUSH      DPH
   \   000004                ; Saved register size: 2
   \   000004                ; Auto size: 0
   2508            zclCmdRecsList_t *pLoop = gpCmdList;
   \   000004   90....       MOV       DPTR,#gpCmdList
   \   000007   8004         SJMP      ??zclFindCmdRecsList_0
   2509          
   2510            while ( pLoop != NULL )
   2511            {
   2512              if ( pLoop->endpoint == endpoint )
   2513              {
   2514                return ( pLoop );
   2515              }
   2516          
   2517              pLoop = pLoop->pNext;
   \                     ??zclFindCmdRecsList_1:
   \   000009   8A82         MOV       DPL,R2
   \   00000B   8B83         MOV       DPH,R3
   \                     ??zclFindCmdRecsList_0:
   \   00000D   12....       LCALL     ??Subroutine185_0 & 0xFFFF
   \                     ??CrossCallReturnLabel_309:
   \   000010   600C         JZ        ??zclFindCmdRecsList_2
   \   000012   8A82         MOV       DPL,R2
   \   000014   8B83         MOV       DPH,R3
   \   000016   A3           INC       DPTR
   \   000017   A3           INC       DPTR
   \   000018   E0           MOVX      A,@DPTR
   \   000019   69           XRL       A,R1
   \   00001A   70ED         JNZ       ??zclFindCmdRecsList_1
   \   00001C   8004         SJMP      ??zclFindCmdRecsList_3
   2518            }
   2519          
   2520            return ( NULL );
   \                     ??zclFindCmdRecsList_2:
   \   00001E   7A00         MOV       R2,#0x0
   \   000020   7B00         MOV       R3,#0x0
   \                     ??zclFindCmdRecsList_3:
   \   000022   02....       LJMP      ?Subroutine0 & 0xFFFF
   2521          }
   2522          
   2523          /*********************************************************************
   2524           * @fn      zclFindCmdRec
   2525           *
   2526           * @brief   Find the command record that matchs the parameters
   2527           *
   2528           * @param   endpoint - Application's endpoint
   2529           * @param   clusterID - cluster ID
   2530           * @param   attrId - attribute looking for
   2531           * @param   pAttr - attribute record to be returned
   2532           *
   2533           * @return  TRUE if record found. FALSE, otherwise.
   2534           */

   \                                 In  segment BANKED_CODE, align 1, keep-with-next
   2535          uint8 zclFindCmdRec( uint8 endpoint, uint16 clusterID, uint8 cmdID, zclCommandRec_t *pCmd )
   \                     zclFindCmdRec:
   2536          {
   \   000000                REQUIRE ?V0
   \   000000                REQUIRE ?V1
   \   000000                REQUIRE ?V2
   \   000000                REQUIRE ?V3
   \   000000                REQUIRE ?V4
   \   000000                REQUIRE ?V5
   \   000000   74F2         MOV       A,#-0xe
   \   000002   12....       LCALL     ?BANKED_ENTER_XDATA
   \   000005                ; Saved register size: 14
   \   000005                ; Auto size: 0
   \   000005   EA           MOV       A,R2
   \   000006   FE           MOV       R6,A
   \   000007   EB           MOV       A,R3
   \   000008   FF           MOV       R7,A
   \   000009   8C..         MOV       ?V1,R4
   2537            uint8 i;
   2538            zclCmdRecsList_t *pRec = zclFindCmdRecsList( endpoint );
   \   00000B                ; Setup parameters for call to function zclFindCmdRecsList
   \   00000B   12....       LCALL     `??zclFindCmdRecsList::?relay`; Banked call to: zclFindCmdRecsList
   \   00000E   8A..         MOV       ?V2,R2
   \   000010   8B..         MOV       ?V3,R3
   2539          
   2540            if ( pRec != NULL )
   \   000012   EA           MOV       A,R2
   \   000013   4B           ORL       A,R3
   \   000014   6051         JZ        ??zclFindCmdRec_0
   2541            {
   2542              for ( i = 0; i < pRec->numCommands; i++ )
   \   000016   7C00         MOV       R4,#0x0
   \   000018   8001         SJMP      ??zclFindCmdRec_1
   \                     ??zclFindCmdRec_2:
   \   00001A   0C           INC       R4
   \                     ??zclFindCmdRec_1:
   \   00001B   85..82       MOV       DPL,?V2
   \   00001E   85..83       MOV       DPH,?V3
   \   000021   A3           INC       DPTR
   \   000022   A3           INC       DPTR
   \   000023   A3           INC       DPTR
   \   000024   E0           MOVX      A,@DPTR
   \   000025   F8           MOV       R0,A
   \   000026   EC           MOV       A,R4
   \   000027   C3           CLR       C
   \   000028   98           SUBB      A,R0
   \   000029   503C         JNC       ??zclFindCmdRec_0
   2543              {
   2544                if ( pRec->pCmdRecs[i].clusterID == clusterID && pRec->pCmdRecs[i].cmdID == cmdID )
   \   00002B   EC           MOV       A,R4
   \   00002C   F5..         MOV       ?V4,A
   \   00002E   75..00       MOV       ?V5,#0x0
   \   000031   7402         MOV       A,#0x2
   \   000033   78..         MOV       R0,#?V4
   \   000035   12....       LCALL     ?S_SHL
   \   000038   85..82       MOV       DPL,?V2
   \   00003B   85..83       MOV       DPH,?V3
   \   00003E   12....       LCALL     ?Subroutine103 & 0xFFFF
   \                     ??CrossCallReturnLabel_179:
   \   000041   8882         MOV       DPL,R0
   \   000043   F583         MOV       DPH,A
   \   000045   12....       LCALL     ?Subroutine140 & 0xFFFF
   \                     ??CrossCallReturnLabel_239:
   \   000048   7002         JNZ       ??zclFindCmdRec_3
   \   00004A   EF           MOV       A,R7
   \   00004B   6B           XRL       A,R3
   \                     ??zclFindCmdRec_3:
   \   00004C   70CC         JNZ       ??zclFindCmdRec_2
   \   00004E   A3           INC       DPTR
   \   00004F   A3           INC       DPTR
   \   000050   E4           CLR       A
   \   000051   93           MOVC      A,@A+DPTR
   \   000052   65..         XRL       A,?V1
   \   000054   70C4         JNZ       ??zclFindCmdRec_2
   2545                {
   2546                  *pCmd = pRec->pCmdRecs[i];
   \   000056   740E         MOV       A,#0xe
   \   000058   12....       LCALL     ?XSTACK_DISP0_8
   \   00005B   12....       LCALL     ?Subroutine93 & 0xFFFF
   \                     ??CrossCallReturnLabel_150:
   \   00005E   7404         MOV       A,#0x4
   \   000060   12....       LCALL     ?MOVE_LONG8_XDATA_CODE
   2547          
   2548                  return ( TRUE ); // EMBEDDED RETURN
   \   000063   7901         MOV       R1,#0x1
   \   000065   8002         SJMP      ??zclFindCmdRec_4
   2549                }
   2550              }
   2551            }
   2552          
   2553            return ( FALSE );
   \                     ??zclFindCmdRec_0:
   \   000067   7900         MOV       R1,#0x0
   \                     ??zclFindCmdRec_4:
   \   000069   02....       LJMP      ?Subroutine4 & 0xFFFF
   2554          }

   \                                 In  segment BANKED_CODE, align 1, keep-with-next
   \                     ?Subroutine140:
   \   000000   E4           CLR       A
   \   000001   93           MOVC      A,@A+DPTR
   \   000002   FA           MOV       R2,A
   \   000003   7401         MOV       A,#0x1
   \   000005   93           MOVC      A,@A+DPTR
   \   000006   FB           MOV       R3,A
   \   000007   EE           MOV       A,R6
   \   000008   6A           XRL       A,R2
   \   000009   22           RET

   \                                 In  segment BANKED_CODE, align 1, keep-with-next
   \                     ?Subroutine93:
   \   000000   12....       LCALL     ??Subroutine223_0 & 0xFFFF
   \                     ??CrossCallReturnLabel_518:
   \   000003   8983         MOV       DPH,R1
   \   000005   8882         MOV       DPL,R0
   \   000007   22           RET

   \                                 In  segment BANKED_CODE, align 1, keep-with-next
   \                     ?Subroutine103:
   \   000000   A3           INC       DPTR
   \   000001   A3           INC       DPTR
   \   000002   A3           INC       DPTR
   \   000003   A3           INC       DPTR
   \   000004   E0           MOVX      A,@DPTR
   \   000005   25..         ADD       A,?V4
   \   000007   F8           MOV       R0,A
   \   000008   A3           INC       DPTR
   \   000009   E0           MOVX      A,@DPTR
   \   00000A   35..         ADDC      A,?V5
   \   00000C   F9           MOV       R1,A
   \   00000D   22           RET
   2555          #endif // ZCL_DISCOVER
   2556          
   2557          /*********************************************************************
   2558           * @fn      zclFindAttrRecsList
   2559           *
   2560           * @brief   Find the right attribute record list for an endpoint
   2561           *
   2562           * @param   clusterID - endpointto look for
   2563           *
   2564           * @return  pointer to record list, NULL if not found
   2565           */

   \                                 In  segment BANKED_CODE, align 1, keep-with-next
   2566          zclAttrRecsList *zclFindAttrRecsList( uint8 endpoint )
   \                     zclFindAttrRecsList:
   2567          {
   \   000000   C082         PUSH      DPL
   \   000002   C083         PUSH      DPH
   \   000004                ; Saved register size: 2
   \   000004                ; Auto size: 0
   2568            zclAttrRecsList *pLoop = attrList;
   \   000004   90....       MOV       DPTR,#attrList
   \   000007   8004         SJMP      ??zclFindAttrRecsList_0
   2569          
   2570            while ( pLoop != NULL )
   2571            {
   2572              if ( pLoop->endpoint == endpoint )
   2573              {
   2574                return ( pLoop );
   2575              }
   2576          
   2577              pLoop = pLoop->next;
   \                     ??zclFindAttrRecsList_1:
   \   000009   8A82         MOV       DPL,R2
   \   00000B   8B83         MOV       DPH,R3
   \                     ??zclFindAttrRecsList_0:
   \   00000D   12....       LCALL     ??Subroutine185_0 & 0xFFFF
   \                     ??CrossCallReturnLabel_310:
   \   000010   600C         JZ        ??zclFindAttrRecsList_2
   \   000012   8A82         MOV       DPL,R2
   \   000014   8B83         MOV       DPH,R3
   \   000016   A3           INC       DPTR
   \   000017   A3           INC       DPTR
   \   000018   E0           MOVX      A,@DPTR
   \   000019   69           XRL       A,R1
   \   00001A   70ED         JNZ       ??zclFindAttrRecsList_1
   \   00001C   8004         SJMP      ??zclFindAttrRecsList_3
   2578            }
   2579          
   2580            return ( NULL );
   \                     ??zclFindAttrRecsList_2:
   \   00001E   7A00         MOV       R2,#0x0
   \   000020   7B00         MOV       R3,#0x0
   \                     ??zclFindAttrRecsList_3:
   \   000022   02....       LJMP      ?Subroutine0 & 0xFFFF
   2581          }
   2582          
   2583          /*********************************************************************
   2584           * @fn      zclFindAttrRec
   2585           *
   2586           * @brief   Find the attribute record that matchs the parameters
   2587           *
   2588           * @param   endpoint - Application's endpoint
   2589           * @param   clusterID - cluster ID
   2590           * @param   attrId - attribute looking for
   2591           * @param   pAttr - attribute record to be returned
   2592           *
   2593           * @return  TRUE if record found. FALSE, otherwise.
   2594           */

   \                                 In  segment BANKED_CODE, align 1, keep-with-next
   2595          uint8 zclFindAttrRec( uint8 endpoint, uint16 clusterID, uint16 attrId, zclAttrRec_t *pAttr )
   \                     zclFindAttrRec:
   2596          {
   \   000000                REQUIRE ?V0
   \   000000                REQUIRE ?V1
   \   000000                REQUIRE ?V2
   \   000000                REQUIRE ?V4
   \   000000                REQUIRE ?V5
   \   000000                REQUIRE ?V6
   \   000000                REQUIRE ?V7
   \   000000   74F0         MOV       A,#-0x10
   \   000002   12....       LCALL     ?BANKED_ENTER_XDATA
   \   000005                ; Saved register size: 16
   \   000005                ; Auto size: 0
   \   000005   8A..         MOV       ?V0,R2
   \   000007   8B..         MOV       ?V1,R3
   \   000009   EC           MOV       A,R4
   \   00000A   FE           MOV       R6,A
   \   00000B   ED           MOV       A,R5
   \   00000C   FF           MOV       R7,A
   2597            uint8 x;
   2598            zclAttrRecsList *pRec = zclFindAttrRecsList( endpoint );
   \   00000D                ; Setup parameters for call to function zclFindAttrRecsList
   \   00000D   12....       LCALL     `??zclFindAttrRecsList::?relay`; Banked call to: zclFindAttrRecsList
   \   000010   8A..         MOV       ?V4,R2
   \   000012   8B..         MOV       ?V5,R3
   2599          
   2600            if ( pRec != NULL )
   \   000014   EA           MOV       A,R2
   \   000015   4B           ORL       A,R3
   \   000016   6064         JZ        ??zclFindAttrRec_0
   2601            {
   2602              for ( x = 0; x < pRec->numAttributes; x++ )
   \   000018   7C00         MOV       R4,#0x0
   \   00001A   8001         SJMP      ??zclFindAttrRec_1
   \                     ??zclFindAttrRec_2:
   \   00001C   0C           INC       R4
   \                     ??zclFindAttrRec_1:
   \   00001D   85..82       MOV       DPL,?V4
   \   000020   85..83       MOV       DPH,?V5
   \   000023   A3           INC       DPTR
   \   000024   A3           INC       DPTR
   \   000025   A3           INC       DPTR
   \   000026   A3           INC       DPTR
   \   000027   A3           INC       DPTR
   \   000028   A3           INC       DPTR
   \   000029   A3           INC       DPTR
   \   00002A   E0           MOVX      A,@DPTR
   \   00002B   F8           MOV       R0,A
   \   00002C   EC           MOV       A,R4
   \   00002D   C3           CLR       C
   \   00002E   98           SUBB      A,R0
   \   00002F   504B         JNC       ??zclFindAttrRec_0
   2603              {
   2604                if ( pRec->attrs[x].clusterID == clusterID && pRec->attrs[x].attr.attrId == attrId )
   \   000031   EC           MOV       A,R4
   \   000032   F5..         MOV       ?V6,A
   \   000034   75..00       MOV       ?V7,#0x0
   \   000037   7403         MOV       A,#0x3
   \   000039   78..         MOV       R0,#?V6
   \   00003B   12....       LCALL     ?S_SHL
   \   00003E   85..82       MOV       DPL,?V4
   \   000041   85..83       MOV       DPH,?V5
   \   000044   A3           INC       DPTR
   \   000045   A3           INC       DPTR
   \   000046   A3           INC       DPTR
   \   000047   A3           INC       DPTR
   \   000048   12....       LCALL     ?Subroutine104 & 0xFFFF
   \                     ??CrossCallReturnLabel_181:
   \   00004B   8882         MOV       DPL,R0
   \   00004D   F583         MOV       DPH,A
   \   00004F   E4           CLR       A
   \   000050   93           MOVC      A,@A+DPTR
   \   000051   FA           MOV       R2,A
   \   000052   7401         MOV       A,#0x1
   \   000054   93           MOVC      A,@A+DPTR
   \   000055   FB           MOV       R3,A
   \   000056   E5..         MOV       A,?V0
   \   000058   6A           XRL       A,R2
   \   000059   7003         JNZ       ??zclFindAttrRec_3
   \   00005B   E5..         MOV       A,?V1
   \   00005D   6B           XRL       A,R3
   \                     ??zclFindAttrRec_3:
   \   00005E   70BC         JNZ       ??zclFindAttrRec_2
   \   000060   A3           INC       DPTR
   \   000061   A3           INC       DPTR
   \   000062   12....       LCALL     ?Subroutine140 & 0xFFFF
   \                     ??CrossCallReturnLabel_240:
   \   000065   7002         JNZ       ??zclFindAttrRec_4
   \   000067   EF           MOV       A,R7
   \   000068   6B           XRL       A,R3
   \                     ??zclFindAttrRec_4:
   \   000069   70B1         JNZ       ??zclFindAttrRec_2
   2605                {
   2606                  *pAttr = pRec->attrs[x];
   \   00006B   7410         MOV       A,#0x10
   \   00006D   12....       LCALL     ?XSTACK_DISP0_8
   \   000070   12....       LCALL     ?Subroutine93 & 0xFFFF
   \                     ??CrossCallReturnLabel_151:
   \   000073   7408         MOV       A,#0x8
   \   000075   12....       LCALL     ?MOVE_LONG8_XDATA_CODE
   2607          
   2608                  return ( TRUE ); // EMBEDDED RETURN
   \   000078   7901         MOV       R1,#0x1
   \   00007A   8002         SJMP      ??zclFindAttrRec_5
   2609                }
   2610              }
   2611            }
   2612          
   2613            return ( FALSE );
   \                     ??zclFindAttrRec_0:
   \   00007C   7900         MOV       R1,#0x0
   \                     ??zclFindAttrRec_5:
   \   00007E   80..         SJMP      ??Subroutine194_0
   2614          }

   \                                 In  segment BANKED_CODE, align 1, keep-with-next
   \                     ?Subroutine104:
   \   000000   A3           INC       DPTR
   \   000001   A3           INC       DPTR
   \   000002   A3           INC       DPTR
   \   000003   A3           INC       DPTR
   \   000004   E0           MOVX      A,@DPTR
   \   000005   25..         ADD       A,?V6
   \   000007   F8           MOV       R0,A
   \   000008   A3           INC       DPTR
   \   000009   E0           MOVX      A,@DPTR
   \   00000A   35..         ADDC      A,?V7
   \   00000C   F9           MOV       R1,A
   \   00000D   22           RET
   2615          
   2616          #if defined ( ZCL_STANDALONE )
   2617          /*********************************************************************
   2618           * @fn      zclSetAttrRecList
   2619           *
   2620           * @brief   Set attribute record list for end point
   2621           *
   2622           * @param   endpoint - endpoint the attribute list belongs to
   2623           * @param   numAttr - number of attributes in list
   2624           * @param   attrList - array of attribute records.
   2625           *                     NOTE: THE ATTRIBUTE IDs (FOR A CLUSTER) MUST BE
   2626           *                     IN ASCENDING ORDER. OTHERWISE, THE DISCOVERY
   2627           *                     RESPONSE COMMAND WILL NOT HAVE THE RIGHT
   2628           *                     ATTRIBUTE INFO
   2629           *
   2630           * @return  TRUE if successful, FALSE otherwise.
   2631           */
   2632          uint8 zclSetAttrRecList( uint8 endpoint, uint8 numAttr, CONST zclAttrRec_t attrList[] )
   2633          {
   2634            zclAttrRecsList *pRecsList = zclFindAttrRecsList( endpoint );
   2635          
   2636            if ( pRecsList != NULL )
   2637            {
   2638              pRecsList->numAttributes = numAttr;
   2639              pRecsList->attrs = attrList;
   2640              return ( TRUE );
   2641            }
   2642          
   2643            return ( FALSE );
   2644          }
   2645          
   2646          #endif // ZCL_STANDALONE
   2647          
   2648          #if defined ( ZCL_READ ) || defined ( ZCL_WRITE )
   2649          /*********************************************************************
   2650           * @fn      zclGetReadWriteCB
   2651           *
   2652           * @brief   Get the Read/Write callback function pointer for a given endpoint.
   2653           *
   2654           * @param   endpoint - Application's endpoint
   2655           *
   2656           * @return  Read/Write CB, NULL if not found
   2657           */

   \                                 In  segment BANKED_CODE, align 1, keep-with-next
   2658          static zclReadWriteCB_t zclGetReadWriteCB( uint8 endpoint )
   \                     zclGetReadWriteCB:
   2659          {
   \   000000                REQUIRE ?V0
   \   000000                REQUIRE ?V1
   \   000000   74F6         MOV       A,#-0xa
   \   000002   12....       LCALL     ?BANKED_ENTER_XDATA
   \   000005                ; Saved register size: 10
   \   000005                ; Auto size: 0
   2660            zclAttrRecsList *pRec = zclFindAttrRecsList( endpoint );
   \   000005                ; Setup parameters for call to function zclFindAttrRecsList
   \   000005   12....       LCALL     ?Subroutine125 & 0xFFFF
   2661          
   2662            if ( pRec != NULL )
   \                     ??CrossCallReturnLabel_217:
   \   000008   6005         JZ        ??zclGetReadWriteCB_0
   2663            {
   2664              return ( pRec->pfnReadWriteCB );
   \   00000A   12....       LCALL     ??Subroutine207_0 & 0xFFFF
   2665            }
   \                     ??CrossCallReturnLabel_449:
   \   00000D   8004         SJMP      ??zclGetReadWriteCB_1
   2666          
   2667            return ( NULL );
   \                     ??zclGetReadWriteCB_0:
   \   00000F   7A00         MOV       R2,#0x0
   \   000011   7B00         MOV       R3,#0x0
   \                     ??zclGetReadWriteCB_1:
   \   000013   02....       LJMP      ?Subroutine3 & 0xFFFF
   2668          }

   \                                 In  segment BANKED_CODE, align 1, keep-with-next
   \                     ?Subroutine125:
   \   000000   12....       LCALL     `??zclFindAttrRecsList::?relay`; Banked call to: zclFindAttrRecsList
   \   000003   8A82         MOV       DPL,R2
   \   000005   8B83         MOV       DPH,R3
   \   000007   E582         MOV       A,DPL
   \   000009   4583         ORL       A,DPH
   \   00000B   22           RET
   2669          
   2670          /*********************************************************************
   2671           * @fn      zclGetAuthorizeCB
   2672           *
   2673           * @brief   Get the Read/Write Authorization callback function pointer
   2674           *          for a given endpoint.
   2675           *
   2676           * @param   endpoint - Application's endpoint
   2677           *
   2678           * @return  Authorization CB, NULL if not found
   2679           */

   \                                 In  segment BANKED_CODE, align 1, keep-with-next
   2680          static zclAuthorizeCB_t zclGetAuthorizeCB( uint8 endpoint )
   \                     zclGetAuthorizeCB:
   2681          {
   \   000000                REQUIRE ?V0
   \   000000                REQUIRE ?V1
   \   000000   74F6         MOV       A,#-0xa
   \   000002   12....       LCALL     ?BANKED_ENTER_XDATA
   \   000005                ; Saved register size: 10
   \   000005                ; Auto size: 0
   2682            zclAttrRecsList *pRec = zclFindAttrRecsList( endpoint );
   \   000005                ; Setup parameters for call to function zclFindAttrRecsList
   \   000005   12....       LCALL     ?Subroutine125 & 0xFFFF
   2683          
   2684            if ( pRec != NULL )
   \                     ??CrossCallReturnLabel_218:
   \   000008   6005         JZ        ??zclGetAuthorizeCB_0
   2685            {
   2686              return ( pRec->pfnAuthorizeCB );
   \   00000A   12....       LCALL     ?Subroutine92 & 0xFFFF
   2687            }
   \                     ??CrossCallReturnLabel_454:
   \   00000D   8004         SJMP      ??zclGetAuthorizeCB_1
   2688          
   2689            return ( NULL );
   \                     ??zclGetAuthorizeCB_0:
   \   00000F   7A00         MOV       R2,#0x0
   \   000011   7B00         MOV       R3,#0x0
   \                     ??zclGetAuthorizeCB_1:
   \   000013   02....       LJMP      ?Subroutine3 & 0xFFFF
   2690          }

   \                                 In  segment BANKED_CODE, align 1, keep-with-next
   \                     ?Subroutine92:
   \   000000   A3           INC       DPTR
   \   000001                REQUIRE ??Subroutine206_0
   \   000001                ; // Fall through to label ??Subroutine206_0

   \                                 In  segment BANKED_CODE, align 1, keep-with-next
   \                     ??Subroutine206_0:
   \   000000   A3           INC       DPTR
   \   000001                REQUIRE ??Subroutine207_0
   \   000001                ; // Fall through to label ??Subroutine207_0
   2691          #endif // ZCL_READ || ZCL_WRITE
   2692          
   2693          /*********************************************************************
   2694           * @fn      zclFindClusterOption
   2695           *
   2696           * @brief   Find the option record that matchs the cluster id
   2697           *
   2698           * @param   endpoint - Application's endpoint
   2699           * @param   clusterID - cluster ID looking for
   2700           *
   2701           * @return  pointer to clutser option, NULL if not found
   2702           */

   \                                 In  segment BANKED_CODE, align 1, keep-with-next
   2703          static zclOptionRec_t *zclFindClusterOption( uint8 endpoint, uint16 clusterID )
   \                     zclFindClusterOption:
   2704          {
   \   000000                REQUIRE ?V0
   \   000000   74F7         MOV       A,#-0x9
   \   000002   12....       LCALL     ?BANKED_ENTER_XDATA
   \   000005                ; Saved register size: 9
   \   000005                ; Auto size: 0
   \   000005   E9           MOV       A,R1
   \   000006   FF           MOV       R7,A
   \   000007   EA           MOV       A,R2
   \   000008   FC           MOV       R4,A
   \   000009   EB           MOV       A,R3
   \   00000A   FD           MOV       R5,A
   2705            zclClusterOptionList *pLoop;
   2706          
   2707            pLoop = clusterOptionList;
   \   00000B   90....       MOV       DPTR,#clusterOptionList
   \   00000E   8004         SJMP      ??zclFindClusterOption_0
   2708            while ( pLoop != NULL )
   2709            {
   2710              if ( pLoop->endpoint == endpoint )
   2711              {
   2712                uint8 x;
   2713                for ( x = 0; x < pLoop->numOptions; x++ )
   2714                {
   2715                  if ( pLoop->options[x].clusterID == clusterID )
   2716                  {
   2717                    return ( &(pLoop->options[x]) ); // EMBEDDED RETURN
   2718                  }
   2719                }
   2720              }
   2721          
   2722              pLoop = pLoop->next;
   \                     ??zclFindClusterOption_1:
   \   000010   8882         MOV       DPL,R0
   \   000012   8983         MOV       DPH,R1
   \                     ??zclFindClusterOption_0:
   \   000014   12....       LCALL     ??Subroutine196_0 & 0xFFFF
   \                     ??CrossCallReturnLabel_351:
   \   000017   6046         JZ        ??zclFindClusterOption_2
   \   000019   8882         MOV       DPL,R0
   \   00001B   8983         MOV       DPH,R1
   \   00001D   A3           INC       DPTR
   \   00001E   A3           INC       DPTR
   \   00001F   E0           MOVX      A,@DPTR
   \   000020   6F           XRL       A,R7
   \   000021   70ED         JNZ       ??zclFindClusterOption_1
   \   000023   7E00         MOV       R6,#0x0
   \   000025   8001         SJMP      ??zclFindClusterOption_3
   \                     ??zclFindClusterOption_4:
   \   000027   0E           INC       R6
   \                     ??zclFindClusterOption_3:
   \   000028   8882         MOV       DPL,R0
   \   00002A   8983         MOV       DPH,R1
   \   00002C   A3           INC       DPTR
   \   00002D   A3           INC       DPTR
   \   00002E   A3           INC       DPTR
   \   00002F   E0           MOVX      A,@DPTR
   \   000030   FA           MOV       R2,A
   \   000031   EE           MOV       A,R6
   \   000032   C3           CLR       C
   \   000033   9A           SUBB      A,R2
   \   000034   50DA         JNC       ??zclFindClusterOption_1
   \   000036   EE           MOV       A,R6
   \   000037   75F003       MOV       B,#0x3
   \   00003A   A4           MUL       AB
   \   00003B   FA           MOV       R2,A
   \   00003C   85F0..       MOV       ?V0,B
   \   00003F   AB..         MOV       R3,?V0
   \   000041   8882         MOV       DPL,R0
   \   000043   8983         MOV       DPH,R1
   \   000045   A3           INC       DPTR
   \   000046   A3           INC       DPTR
   \   000047   A3           INC       DPTR
   \   000048   A3           INC       DPTR
   \   000049   E0           MOVX      A,@DPTR
   \   00004A   2A           ADD       A,R2
   \   00004B   FA           MOV       R2,A
   \   00004C   A3           INC       DPTR
   \   00004D   E0           MOVX      A,@DPTR
   \   00004E   3B           ADDC      A,R3
   \   00004F   FB           MOV       R3,A
   \   000050   8A82         MOV       DPL,R2
   \   000052   F583         MOV       DPH,A
   \   000054   E0           MOVX      A,@DPTR
   \   000055   6C           XRL       A,R4
   \   000056   7003         JNZ       ??zclFindClusterOption_5
   \   000058   A3           INC       DPTR
   \   000059   E0           MOVX      A,@DPTR
   \   00005A   6D           XRL       A,R5
   \                     ??zclFindClusterOption_5:
   \   00005B   70CA         JNZ       ??zclFindClusterOption_4
   \   00005D   8004         SJMP      ??zclFindClusterOption_6
   2723            }
   2724          
   2725            return ( NULL );
   \                     ??zclFindClusterOption_2:
   \   00005F   7A00         MOV       R2,#0x0
   \   000061   7B00         MOV       R3,#0x0
   \                     ??zclFindClusterOption_6:
   \   000063   02....       LJMP      ??Subroutine193_0 & 0xFFFF
   2726          }
   2727          
   2728          /*********************************************************************
   2729           * @fn      zclGetClusterOption
   2730           *
   2731           * @brief   Get the option record that matchs the cluster id
   2732           *
   2733           * @param   endpoint - Application's endpoint
   2734           * @param   clusterID - cluster ID looking for
   2735           *
   2736           * @return  clutser option, AF_TX_OPTIONS_NONE if not found
   2737           */

   \                                 In  segment BANKED_CODE, align 1, keep-with-next
   2738          static uint8 zclGetClusterOption( uint8 endpoint, uint16 clusterID )
   \                     zclGetClusterOption:
   2739          {
   \   000000                REQUIRE ?V0
   \   000000                REQUIRE ?V1
   \   000000   74F6         MOV       A,#-0xa
   \   000002   12....       LCALL     ?BANKED_ENTER_XDATA
   \   000005                ; Saved register size: 10
   \   000005                ; Auto size: 0
   2740            uint8 option;
   2741            zclOptionRec_t *pOption;
   2742          
   2743            pOption = zclFindClusterOption( endpoint, clusterID );
   \   000005                ; Setup parameters for call to function zclFindClusterOption
   \   000005   12....       LCALL     `??zclFindClusterOption::?relay`; Banked call to: zclFindClusterOption
   \   000008   8A82         MOV       DPL,R2
   \   00000A   8B83         MOV       DPH,R3
   2744            if ( pOption != NULL )
   \   00000C   E582         MOV       A,DPL
   \   00000E   4583         ORL       A,DPH
   \   000010   6006         JZ        ??zclGetClusterOption_0
   2745            {
   2746              option = pOption->option;
   2747              if ( !ZG_SECURE_ENABLED )
   2748              {
   2749                option &= (AF_EN_SECURITY ^ 0xFF); // make sure Application Link Key security is off
   2750              }
   2751          
   2752              return ( option ); // EMBEDDED RETURN
   \   000012   A3           INC       DPTR
   \   000013   A3           INC       DPTR
   \   000014   E0           MOVX      A,@DPTR
   \   000015   F9           MOV       R1,A
   \   000016   8002         SJMP      ??zclGetClusterOption_1
   2753            }
   2754          
   2755            return ( AF_TX_OPTIONS_NONE );
   \                     ??zclGetClusterOption_0:
   \   000018   7900         MOV       R1,#0x0
   \                     ??zclGetClusterOption_1:
   \   00001A                REQUIRE ?Subroutine3
   \   00001A                ; // Fall through to label ?Subroutine3
   2756          }
   2757          
   2758          /*********************************************************************
   2759           * @fn      zclSetSecurityOption
   2760           *
   2761           * @brief   Set the security option for the cluster id
   2762           *
   2763           * @param   endpoint - Application's endpoint
   2764           * @param   clusterID - cluster ID looking for
   2765           * @param   enable - whether to enable (TRUE) or disable (FALSE) security option
   2766           *
   2767           * @return  none
   2768           */

   \                                 In  segment BANKED_CODE, align 1, keep-with-next
   2769          static void zclSetSecurityOption( uint8 endpoint, uint16 clusterID, uint8 enable )
   \                     zclSetSecurityOption:
   2770          {
   \   000000                REQUIRE ?V0
   \   000000                REQUIRE ?V1
   \   000000   74F6         MOV       A,#-0xa
   \   000002   12....       LCALL     ?BANKED_ENTER_XDATA
   \   000005                ; Saved register size: 10
   \   000005                ; Auto size: 0
   \   000005   EC           MOV       A,R4
   \   000006   FF           MOV       R7,A
   2771            zclOptionRec_t *pOption;
   2772          
   2773            pOption = zclFindClusterOption( endpoint, clusterID );
   \   000007                ; Setup parameters for call to function zclFindClusterOption
   \   000007   12....       LCALL     `??zclFindClusterOption::?relay`; Banked call to: zclFindClusterOption
   \   00000A   8B..         MOV       ?V1,R3
   \   00000C   A9..         MOV       R1,?V1
   2774            if ( pOption != NULL )
   \   00000E   EA           MOV       A,R2
   \   00000F   49           ORL       A,R1
   \   000010   6015         JZ        ??zclSetSecurityOption_0
   2775            {
   2776              if ( enable )
   \   000012   EA           MOV       A,R2
   \   000013   2402         ADD       A,#0x2
   \   000015   F582         MOV       DPL,A
   \   000017   E4           CLR       A
   \   000018   39           ADDC      A,R1
   \   000019   F583         MOV       DPH,A
   \   00001B   EF           MOV       A,R7
   \   00001C   6005         JZ        ??zclSetSecurityOption_1
   2777              {
   2778                pOption->option |= AF_EN_SECURITY;
   \   00001E   E0           MOVX      A,@DPTR
   \   00001F   D2E6         SETB      0xE0 /* A   */.6
   \   000021   8003         SJMP      ??zclSetSecurityOption_2
   2779              }
   2780              else
   2781              {
   2782                pOption->option &= (AF_EN_SECURITY ^ 0xFF);
   \                     ??zclSetSecurityOption_1:
   \   000023   E0           MOVX      A,@DPTR
   \   000024   C2E6         CLR       0xE0 /* A   */.6
   \                     ??zclSetSecurityOption_2:
   \   000026   F0           MOVX      @DPTR,A
   2783              }
   2784            }
   2785          }
   \                     ??zclSetSecurityOption_0:
   \   000027   80..         SJMP      ?Subroutine3
   2786          
   2787          #ifdef ZCL_DISCOVER
   2788          /*********************************************************************
   2789           * @fn      zclFindNextCmdRec
   2790           *
   2791           * @brief   Find the command (or next) record that matchs the parameters
   2792           *
   2793           * @param   endpoint - Application's endpoint
   2794           * @param   clusterID - cluster ID
   2795           * @param   commandID - command ID from requesting command
   2796           * @param   direction- direction of received command
   2797           * @param   pCmdID - command looking for
   2798           * @param   pCmd - command information within command record list
   2799           *
   2800           * @return  pointer to command record, NULL no more records of this cluster
   2801           */

   \                                 In  segment BANKED_CODE, align 1, keep-with-next
   2802          static uint8 zclFindNextCmdRec( uint8 endpoint, uint16 clusterID, uint8 commandID,
   \                     zclFindNextCmdRec:
   2803                                          uint8 direction, uint8 *pCmdID, zclCommandRec_t *pCmd )
   2804          {
   \   000000                REQUIRE ?V0
   \   000000                REQUIRE ?V1
   \   000000                REQUIRE ?V2
   \   000000                REQUIRE ?V3
   \   000000                REQUIRE ?V4
   \   000000                REQUIRE ?V5
   \   000000                REQUIRE ?V6
   \   000000                REQUIRE ?V7
   \   000000   74F0         MOV       A,#-0x10
   \   000002   12....       LCALL     ?BANKED_ENTER_XDATA
   \   000005                ; Saved register size: 16
   \   000005                ; Auto size: 0
   \   000005   EA           MOV       A,R2
   \   000006   FE           MOV       R6,A
   \   000007   EB           MOV       A,R3
   \   000008   FF           MOV       R7,A
   \   000009   8C..         MOV       ?V1,R4
   \   00000B   8D..         MOV       ?V2,R5
   2805            zclCmdRecsList_t *pRec = zclFindCmdRecsList( endpoint );
   \   00000D                ; Setup parameters for call to function zclFindCmdRecsList
   \   00000D   12....       LCALL     `??zclFindCmdRecsList::?relay`; Banked call to: zclFindCmdRecsList
   \   000010   8A..         MOV       ?V4,R2
   \   000012   8B..         MOV       ?V5,R3
   2806            uint8 i;
   2807          
   2808            if ( pRec != NULL )
   \   000014   EA           MOV       A,R2
   \   000015   4B           ORL       A,R3
   \   000016   7003         JNZ       $+5
   \   000018   02....       LJMP      ??zclFindNextCmdRec_0 & 0xFFFF
   2809            {
   2810              for ( i = 0; i < pRec->numCommands; i++ )
   \   00001B   75..00       MOV       ?V3,#0x0
   \   00001E   7410         MOV       A,#0x10
   \   000020   12....       LCALL     ?XSTACK_DISP0_8
   \   000023   12....       LCALL     ??Subroutine205_0 & 0xFFFF
   \                     ??CrossCallReturnLabel_414:
   \   000026   E8           MOV       A,R0
   \   000027   FA           MOV       R2,A
   \   000028   E9           MOV       A,R1
   \   000029   FB           MOV       R3,A
   \   00002A   8012         SJMP      ??zclFindNextCmdRec_1
   2811              {
   2812                if ( ( pRec->pCmdRecs[i].clusterID == clusterID ) &&
   2813                    ( pRec->pCmdRecs[i].cmdID >= *pCmdID ) )
   2814                {
   2815                  if ( commandID == ZCL_CMD_DISCOVER_CMDS_RECEIVED )
   2816                  {
   2817                    if ( ( direction == ZCL_FRAME_SERVER_CLIENT_DIR ) && ( pRec->pCmdRecs[i].flag & CMD_DIR_CLIENT_RECEIVED ) )
   \                     ??zclFindNextCmdRec_2:
   \   00002C   8C82         MOV       DPL,R4
   \   00002E   8D83         MOV       DPH,R5
   \   000030   A3           INC       DPTR
   \   000031   A3           INC       DPTR
   \   000032   A3           INC       DPTR
   \   000033   E4           CLR       A
   \   000034   93           MOVC      A,@A+DPTR
   \   000035   A2E3         MOV       C,0xE0 /* A   */.3
   \   000037   5003         JNC       $+5
   \   000039   02....       LJMP      ??zclFindNextCmdRec_3 & 0xFFFF
   \                     ??zclFindNextCmdRec_4:
   \   00003C   05..         INC       ?V3
   \                     ??zclFindNextCmdRec_1:
   \   00003E   85..82       MOV       DPL,?V4
   \   000041   85..83       MOV       DPH,?V5
   \   000044   A3           INC       DPTR
   \   000045   A3           INC       DPTR
   \   000046   A3           INC       DPTR
   \   000047   E0           MOVX      A,@DPTR
   \   000048   F8           MOV       R0,A
   \   000049   E5..         MOV       A,?V3
   \   00004B   C3           CLR       C
   \   00004C   98           SUBB      A,R0
   \   00004D   4003         JC        $+5
   \   00004F   02....       LJMP      ??zclFindNextCmdRec_0 & 0xFFFF
   \   000052   E5..         MOV       A,?V3
   \   000054   F5..         MOV       ?V6,A
   \   000056   75..00       MOV       ?V7,#0x0
   \   000059   7402         MOV       A,#0x2
   \   00005B   78..         MOV       R0,#?V6
   \   00005D   12....       LCALL     ?S_SHL
   \   000060   85..82       MOV       DPL,?V4
   \   000063   85..83       MOV       DPH,?V5
   \   000066   12....       LCALL     ?Subroutine104 & 0xFFFF
   \                     ??CrossCallReturnLabel_182:
   \   000069   12....       LCALL     ?Subroutine139 & 0xFFFF
   \                     ??CrossCallReturnLabel_237:
   \   00006C   7002         JNZ       ??zclFindNextCmdRec_5
   \   00006E   EF           MOV       A,R7
   \   00006F   69           XRL       A,R1
   \                     ??zclFindNextCmdRec_5:
   \   000070   70CA         JNZ       ??zclFindNextCmdRec_4
   \   000072   8A82         MOV       DPL,R2
   \   000074   8B83         MOV       DPH,R3
   \   000076   E0           MOVX      A,@DPTR
   \   000077   F8           MOV       R0,A
   \   000078   8C82         MOV       DPL,R4
   \   00007A   8D83         MOV       DPH,R5
   \   00007C   A3           INC       DPTR
   \   00007D   A3           INC       DPTR
   \   00007E   E4           CLR       A
   \   00007F   93           MOVC      A,@A+DPTR
   \   000080   C3           CLR       C
   \   000081   98           SUBB      A,R0
   \   000082   40B8         JC        ??zclFindNextCmdRec_4
   \   000084   7411         MOV       A,#0x11
   \   000086   65..         XRL       A,?V1
   \   000088   7019         JNZ       ??zclFindNextCmdRec_6
   \   00008A   7401         MOV       A,#0x1
   \   00008C   65..         XRL       A,?V2
   \   00008E   609C         JZ        ??zclFindNextCmdRec_2
   2818                    {
   2819                      *pCmd = pRec->pCmdRecs[i];
   2820          
   2821                      // Update command ID
   2822                      *pCmdID = pCmd->cmdID;
   2823          
   2824                      return ( TRUE ); // EMBEDDED RETURN
   2825                    }
   2826                    else if ( ( direction == ZCL_FRAME_CLIENT_SERVER_DIR ) && ( pRec->pCmdRecs[i].flag & CMD_DIR_SERVER_RECEIVED ) )
   \   000090   E5..         MOV       A,?V2
   \   000092   70A8         JNZ       ??zclFindNextCmdRec_4
   \   000094   8C82         MOV       DPL,R4
   \   000096   8D83         MOV       DPH,R5
   \   000098   A3           INC       DPTR
   \   000099   A3           INC       DPTR
   \   00009A   A3           INC       DPTR
   \   00009B   E4           CLR       A
   \   00009C   93           MOVC      A,@A+DPTR
   \   00009D   A2E2         MOV       C,0xE0 /* A   */.2
   \                     ??zclFindNextCmdRec_7:
   \   00009F   4032         JC        ??zclFindNextCmdRec_3
   \   0000A1   8099         SJMP      ??zclFindNextCmdRec_4
   2827                    {
   2828                      *pCmd = pRec->pCmdRecs[i];
   2829          
   2830                      // Update command ID
   2831                      *pCmdID = pCmd->cmdID;
   2832          
   2833                      return ( TRUE ); // EMBEDDED RETURN
   2834                    }
   2835                  }
   2836                  else if ( commandID == ZCL_CMD_DISCOVER_CMDS_GEN )
   \                     ??zclFindNextCmdRec_6:
   \   0000A3   7413         MOV       A,#0x13
   \   0000A5   65..         XRL       A,?V1
   \   0000A7   7044         JNZ       ??zclFindNextCmdRec_0
   2837                  {
   2838                    if ( ( direction == ZCL_FRAME_CLIENT_SERVER_DIR ) && ( pRec->pCmdRecs[i].flag & CMD_DIR_SERVER_GENERATED ) )
   \   0000A9   E5..         MOV       A,?V2
   \   0000AB   700D         JNZ       ??zclFindNextCmdRec_8
   \   0000AD   8C82         MOV       DPL,R4
   \   0000AF   8D83         MOV       DPH,R5
   \   0000B1   A3           INC       DPTR
   \   0000B2   A3           INC       DPTR
   \   0000B3   A3           INC       DPTR
   \   0000B4   E4           CLR       A
   \   0000B5   93           MOVC      A,@A+DPTR
   \   0000B6   A2E0         MOV       C,0xE0 /* A   */.0
   \   0000B8   80E5         SJMP      ??zclFindNextCmdRec_7
   2839                    {
   2840                      *pCmd = pRec->pCmdRecs[i];
   2841          
   2842                      // Update command ID
   2843                      *pCmdID = pCmd->cmdID;
   2844          
   2845                      return ( TRUE ); // EMBEDDED RETURN
   2846                    }
   2847                    else if ( ( direction == ZCL_FRAME_SERVER_CLIENT_DIR ) && ( pRec->pCmdRecs[i].flag & CMD_DIR_CLIENT_GENERATED ) )
   \                     ??zclFindNextCmdRec_8:
   \   0000BA   7401         MOV       A,#0x1
   \   0000BC   65..         XRL       A,?V2
   \   0000BE   6003         JZ        $+5
   \   0000C0   02....       LJMP      ??zclFindNextCmdRec_4 & 0xFFFF
   \   0000C3   8C82         MOV       DPL,R4
   \   0000C5   8D83         MOV       DPH,R5
   \   0000C7   A3           INC       DPTR
   \   0000C8   A3           INC       DPTR
   \   0000C9   A3           INC       DPTR
   \   0000CA   E4           CLR       A
   \   0000CB   93           MOVC      A,@A+DPTR
   \   0000CC   A2E1         MOV       C,0xE0 /* A   */.1
   \   0000CE   4003         JC        $+5
   \   0000D0   02....       LJMP      ??zclFindNextCmdRec_4 & 0xFFFF
   \                     ??zclFindNextCmdRec_3:
   \   0000D3   7412         MOV       A,#0x12
   \   0000D5   12....       LCALL     ?XSTACK_DISP0_8
   \   0000D8   12....       LCALL     ?Subroutine72 & 0xFFFF
   2848                    {
   2849                      *pCmd = pRec->pCmdRecs[i];
   \                     ??CrossCallReturnLabel_114:
   \   0000DB   7404         MOV       A,#0x4
   \   0000DD   12....       LCALL     ?MOVE_LONG8_XDATA_CODE
   2850          
   2851                      // Update command ID
   2852                      *pCmdID = pCmd->cmdID;
   \   0000E0   8882         MOV       DPL,R0
   \   0000E2   8983         MOV       DPH,R1
   \   0000E4   A3           INC       DPTR
   \   0000E5   A3           INC       DPTR
   \   0000E6   12....       LCALL     ?Subroutine79 & 0xFFFF
   2853          
   2854                      return ( TRUE ); // EMBEDDED RETURN
   \                     ??CrossCallReturnLabel_125:
   \   0000E9   7901         MOV       R1,#0x1
   \   0000EB   8002         SJMP      ??zclFindNextCmdRec_9
   2855                    }
   2856                  }
   2857                  else
   2858                  {
   2859                    return ( FALSE ); // Incorrect Command ID
   2860                  }
   2861                }
   2862              }
   2863            }
   2864          
   2865            return ( FALSE );
   \                     ??zclFindNextCmdRec_0:
   \   0000ED   7900         MOV       R1,#0x0
   \                     ??zclFindNextCmdRec_9:
   \   0000EF   02....       LJMP      ??Subroutine194_0 & 0xFFFF
   2866          }

   \                                 In  segment BANKED_CODE, align 1, keep-with-next
   \                     ?Subroutine139:
   \   000000   E8           MOV       A,R0
   \   000001   FC           MOV       R4,A
   \   000002   E9           MOV       A,R1
   \   000003   FD           MOV       R5,A
   \   000004   8882         MOV       DPL,R0
   \   000006   F583         MOV       DPH,A
   \   000008   E4           CLR       A
   \   000009   93           MOVC      A,@A+DPTR
   \   00000A   F8           MOV       R0,A
   \   00000B   7401         MOV       A,#0x1
   \   00000D   93           MOVC      A,@A+DPTR
   \   00000E   F9           MOV       R1,A
   \   00000F   EE           MOV       A,R6
   \   000010   68           XRL       A,R0
   \   000011   22           RET

   \                                 In  segment BANKED_CODE, align 1, keep-with-next
   \                     ?Subroutine72:
   \   000000   12....       LCALL     ?Subroutine165 & 0xFFFF
   \                     ??CrossCallReturnLabel_425:
   \   000003   8C82         MOV       DPL,R4
   \   000005   8D83         MOV       DPH,R5
   \   000007   E8           MOV       A,R0
   \   000008   FC           MOV       R4,A
   \   000009   E9           MOV       A,R1
   \   00000A   FD           MOV       R5,A
   \   00000B   22           RET
   2867          
   2868          /*********************************************************************
   2869           * @fn      zclFindNextAttrRec
   2870           *
   2871           * @brief   Find the attribute (or next) record that matchs the parameters
   2872           *
   2873           * @param   endpoint - Application's endpoint
   2874           * @param   clusterID - cluster ID
   2875           * @param   attr - attribute looking for
   2876           *
   2877           * @return  pointer to attribute record, NULL if not found
   2878           */

   \                                 In  segment BANKED_CODE, align 1, keep-with-next
   2879          static uint8 zclFindNextAttrRec( uint8 endpoint, uint16 clusterID, uint8 direction,
   \                     zclFindNextAttrRec:
   2880                                           uint16 *attrId, zclAttrRec_t *pAttr )
   2881          {
   \   000000                REQUIRE ?V0
   \   000000                REQUIRE ?V1
   \   000000                REQUIRE ?V2
   \   000000                REQUIRE ?V3
   \   000000                REQUIRE ?V4
   \   000000                REQUIRE ?V5
   \   000000                REQUIRE ?V6
   \   000000                REQUIRE ?V7
   \   000000   74F0         MOV       A,#-0x10
   \   000002   12....       LCALL     ?BANKED_ENTER_XDATA
   \   000005                ; Saved register size: 16
   \   000005                ; Auto size: 0
   \   000005   EA           MOV       A,R2
   \   000006   FE           MOV       R6,A
   \   000007   EB           MOV       A,R3
   \   000008   FF           MOV       R7,A
   \   000009   8C..         MOV       ?V1,R4
   2882            zclAttrRecsList *pRec = zclFindAttrRecsList( endpoint );
   \   00000B                ; Setup parameters for call to function zclFindAttrRecsList
   \   00000B   12....       LCALL     `??zclFindAttrRecsList::?relay`; Banked call to: zclFindAttrRecsList
   \   00000E   8A..         MOV       ?V6,R2
   \   000010   8B..         MOV       ?V7,R3
   2883            uint8 attrDir;
   2884          
   2885            if ( pRec != NULL )
   \   000012   EA           MOV       A,R2
   \   000013   4B           ORL       A,R3
   \   000014   7003         JNZ       $+5
   \   000016   02....       LJMP      ??zclFindNextAttrRec_0 & 0xFFFF
   2886            {
   2887              uint16 x;
   2888          
   2889              for ( x = 0; x < pRec->numAttributes; x++ )
   \   000019   7A00         MOV       R2,#0x0
   \   00001B   7B00         MOV       R3,#0x0
   \   00001D   7410         MOV       A,#0x10
   \   00001F   12....       LCALL     ?XSTACK_DISP0_8
   \   000022   12....       LCALL     ?Subroutine176 & 0xFFFF
   \                     ??CrossCallReturnLabel_428:
   \   000025   88..         MOV       ?V2,R0
   \   000027   F5..         MOV       ?V3,A
   \   000029   8005         SJMP      ??zclFindNextAttrRec_1
   \                     ??zclFindNextAttrRec_2:
   \   00002B   0A           INC       R2
   \   00002C   EA           MOV       A,R2
   \   00002D   7001         JNZ       ??zclFindNextAttrRec_1
   \   00002F   0B           INC       R3
   \                     ??zclFindNextAttrRec_1:
   \   000030   85..82       MOV       DPL,?V6
   \   000033   85..83       MOV       DPH,?V7
   \   000036   A3           INC       DPTR
   \   000037   A3           INC       DPTR
   \   000038   A3           INC       DPTR
   \   000039   A3           INC       DPTR
   \   00003A   A3           INC       DPTR
   \   00003B   A3           INC       DPTR
   \   00003C   A3           INC       DPTR
   \   00003D   E0           MOVX      A,@DPTR
   \   00003E   F8           MOV       R0,A
   \   00003F   C3           CLR       C
   \   000040   EA           MOV       A,R2
   \   000041   98           SUBB      A,R0
   \   000042   EB           MOV       A,R3
   \   000043   9400         SUBB      A,#0x0
   \   000045   506E         JNC       ??zclFindNextAttrRec_0
   2890              {
   2891                if ( ( pRec->attrs[x].clusterID == clusterID ) &&
   2892                     ( pRec->attrs[x].attr.attrId >= *attrId ) )
   \   000047   8A..         MOV       ?V4,R2
   \   000049   8B..         MOV       ?V5,R3
   \   00004B   7403         MOV       A,#0x3
   \   00004D   78..         MOV       R0,#?V4
   \   00004F   12....       LCALL     ?S_SHL
   \   000052   85..82       MOV       DPL,?V6
   \   000055   85..83       MOV       DPH,?V7
   \   000058   A3           INC       DPTR
   \   000059   A3           INC       DPTR
   \   00005A   A3           INC       DPTR
   \   00005B   A3           INC       DPTR
   \   00005C   12....       LCALL     ?Subroutine103 & 0xFFFF
   \                     ??CrossCallReturnLabel_180:
   \   00005F   12....       LCALL     ?Subroutine139 & 0xFFFF
   \                     ??CrossCallReturnLabel_238:
   \   000062   7002         JNZ       ??zclFindNextAttrRec_3
   \   000064   EF           MOV       A,R7
   \   000065   69           XRL       A,R1
   \                     ??zclFindNextAttrRec_3:
   \   000066   70C3         JNZ       ??zclFindNextAttrRec_2
   \   000068   A3           INC       DPTR
   \   000069   A3           INC       DPTR
   \   00006A   E4           CLR       A
   \   00006B   93           MOVC      A,@A+DPTR
   \   00006C   F5..         MOV       ?V4,A
   \   00006E   7401         MOV       A,#0x1
   \   000070   93           MOVC      A,@A+DPTR
   \   000071   F5..         MOV       ?V5,A
   \   000073   12....       LCALL     ?Subroutine89 & 0xFFFF
   \                     ??CrossCallReturnLabel_419:
   \   000076   C3           CLR       C
   \   000077   E5..         MOV       A,?V4
   \   000079   98           SUBB      A,R0
   \   00007A   E5..         MOV       A,?V5
   \   00007C   99           SUBB      A,R1
   \   00007D   40AC         JC        ??zclFindNextAttrRec_2
   2893                {
   2894                  // also make sure direction is right
   2895                  attrDir = (pRec->attrs[x].attr.accessControl & ACCESS_CLIENT) ? 1 : 0;
   2896                  if ( (attrDir == direction) || (pRec->attrs[x].attr.accessControl & ACCESS_GLOBAL))
   \   00007F   EC           MOV       A,R4
   \   000080   2405         ADD       A,#0x5
   \   000082   F582         MOV       DPL,A
   \   000084   E4           CLR       A
   \   000085   3D           ADDC      A,R5
   \   000086   F583         MOV       DPH,A
   \   000088   E4           CLR       A
   \   000089   93           MOVC      A,@A+DPTR
   \   00008A   A2E7         MOV       C,0xE0 /* A   */.7
   \   00008C   E4           CLR       A
   \   00008D   33           RLC       A
   \   00008E   65..         XRL       A,?V1
   \   000090   6006         JZ        ??zclFindNextAttrRec_4
   \   000092   E4           CLR       A
   \   000093   93           MOVC      A,@A+DPTR
   \   000094   A2E6         MOV       C,0xE0 /* A   */.6
   \   000096   5093         JNC       ??zclFindNextAttrRec_2
   \                     ??zclFindNextAttrRec_4:
   \   000098   7412         MOV       A,#0x12
   \   00009A   12....       LCALL     ?XSTACK_DISP0_8
   \   00009D   12....       LCALL     ?Subroutine72 & 0xFFFF
   2897                  {
   2898                    // return attribute and found attribute ID
   2899                    *pAttr = pRec->attrs[x];
   \                     ??CrossCallReturnLabel_115:
   \   0000A0   7408         MOV       A,#0x8
   \   0000A2   12....       LCALL     ?MOVE_LONG8_XDATA_CODE
   2900                    *attrId = pAttr->attr.attrId;
   \   0000A5   8882         MOV       DPL,R0
   \   0000A7   8983         MOV       DPH,R1
   \   0000A9   A3           INC       DPTR
   \   0000AA   A3           INC       DPTR
   \   0000AB   12....       LCALL     ??Subroutine218_0 & 0xFFFF
   \                     ??CrossCallReturnLabel_493:
   \   0000AE   12....       LCALL     ??Subroutine197_0 & 0xFFFF
   2901          
   2902                    return ( TRUE ); // EMBEDDED RETURN
   \                     ??CrossCallReturnLabel_367:
   \   0000B1   7901         MOV       R1,#0x1
   \   0000B3   8002         SJMP      ??zclFindNextAttrRec_5
   2903                  }
   2904                }
   2905              }
   2906            }
   2907          
   2908            return ( FALSE );
   \                     ??zclFindNextAttrRec_0:
   \   0000B5   7900         MOV       R1,#0x0
   \                     ??zclFindNextAttrRec_5:
   \   0000B7   02....       LJMP      ??Subroutine194_0 & 0xFFFF
   2909          }

   \                                 In  segment BANKED_CODE, align 1, keep-with-next
   \                     ?Subroutine89:
   \   000000   85..82       MOV       DPL,?V2
   \   000003   85..83       MOV       DPH,?V3
   \   000006                REQUIRE ??Subroutine205_0
   \   000006                ; // Fall through to label ??Subroutine205_0

   \                                 In  segment BANKED_CODE, align 1, keep-with-next
   \                     ??Subroutine218_0:
   \   000000   12....       LCALL     ?Subroutine154 & 0xFFFF
   \                     ??CrossCallReturnLabel_498:
   \   000003   22           RET

   \                                 In  segment BANKED_CODE, align 1, keep-with-next
   \                     ?Subroutine154:
   \   000000   E0           MOVX      A,@DPTR
   \   000001   F8           MOV       R0,A
   \   000002   A3           INC       DPTR
   \   000003                REQUIRE ??Subroutine219_0
   \   000003                ; // Fall through to label ??Subroutine219_0

   \                                 In  segment BANKED_CODE, align 1, keep-with-next
   \                     ??Subroutine219_0:
   \   000000   E0           MOVX      A,@DPTR
   \   000001   F9           MOV       R1,A
   \   000002                ; Setup parameters for call to function zclGetAttrDataLengthUsingCB
   \   000002                ; Setup parameters for call to function zclWriteAttrDataUsingCB
   \   000002   85..82       MOV       DPL,?V2
   \   000005   85..83       MOV       DPH,?V3
   \   000008   22           RET
   2910          #endif // ZCL_DISCOVER
   2911          
   2912          /*********************************************************************
   2913           * @fn      zclSerializeData
   2914           *
   2915           * @brief   Builds a buffer from the attribute data to sent out over
   2916           *          the air.
   2917           *          NOTE - Not compatible with application's attributes callbacks.
   2918           *
   2919           * @param   dataType - data types defined in zcl.h
   2920           * @param   attrData - pointer to the attribute data
   2921           * @param   buf - where to put the serialized data
   2922           *
   2923           * @return  pointer to end of destination buffer
   2924           */

   \                                 In  segment BANKED_CODE, align 1, keep-with-next
   2925          uint8 *zclSerializeData( uint8 dataType, void *attrData, uint8 *buf )
   \                     zclSerializeData:
   2926          {
   \   000000                REQUIRE ?V0
   \   000000                REQUIRE ?V1
   \   000000                REQUIRE ?V2
   \   000000                REQUIRE ?V3
   \   000000                REQUIRE ?V4
   \   000000                REQUIRE ?V5
   \   000000                REQUIRE ?V6
   \   000000   74F1         MOV       A,#-0xf
   \   000002   12....       LCALL     ?BANKED_ENTER_XDATA
   \   000005                ; Saved register size: 15
   \   000005                ; Auto size: 0
   \   000005   EA           MOV       A,R2
   \   000006   FE           MOV       R6,A
   \   000007   EB           MOV       A,R3
   \   000008   FF           MOV       R7,A
   \   000009   EC           MOV       A,R4
   \   00000A   FA           MOV       R2,A
   \   00000B   ED           MOV       A,R5
   \   00000C   FB           MOV       R3,A
   2927            uint8 *pStr;
   2928            uint16 len;
   2929          
   2930            if ( attrData == NULL )
   \   00000D   EE           MOV       A,R6
   \   00000E   4F           ORL       A,R7
   \   00000F   7003         JNZ       $+5
   \   000011   02....       LJMP      ??zclSerializeData_0 & 0xFFFF
   2931            {
   2932              return ( buf );
   2933            }
   2934          
   2935            switch ( dataType )
   \   000014   EC           MOV       A,R4
   \   000015   2402         ADD       A,#0x2
   \   000017   F5..         MOV       ?V4,A
   \   000019   E4           CLR       A
   \   00001A   3B           ADDC      A,R3
   \   00001B   F5..         MOV       ?V5,A
   \   00001D   8C82         MOV       DPL,R4
   \   00001F   8D83         MOV       DPH,R5
   \   000021   A3           INC       DPTR
   \   000022   AC82         MOV       R4,DPL
   \   000024   AD83         MOV       R5,DPH
   \   000026   8E..         MOV       ?V0,R6
   \   000028   8F..         MOV       ?V1,R7
   \   00002A   75..00       MOV       ?V2,#0x0
   \   00002D   E9           MOV       A,R1
   \   00002E   12....       LCALL     ?UC_SWITCH_SPARSE
   \                     `?<Jumptable for zclSerializeData>_0`:
   \   000031   04           DB        4
   \   000032   41           DB        65
   \   000033   42           DB        66
   \   000034   ....         DW        ??zclSerializeData_1
   \   000036   43           DB        67
   \   000037   44           DB        68
   \   000038   ....         DW        ??zclSerializeData_2
   \   00003A   E0           DB        224
   \   00003B   E2           DB        226
   \   00003C   ....         DW        ??zclSerializeData_3
   \   00003E   E8           DB        232
   \   00003F   E9           DB        233
   \   000040   ....         DW        ??zclSerializeData_4
   \   000042   21           DB        33
   \   000043   08           DB        8
   \   000044   ....         DW        ??zclSerializeData_5
   \   000046   09           DB        9
   \   000047   ....         DW        ??zclSerializeData_4
   \   000049   0A           DB        10
   \   00004A   ....         DW        ??zclSerializeData_6
   \   00004C   0B           DB        11
   \   00004D   ....         DW        ??zclSerializeData_3
   \   00004F   10           DB        16
   \   000050   ....         DW        ??zclSerializeData_5
   \   000052   18           DB        24
   \   000053   ....         DW        ??zclSerializeData_5
   \   000055   19           DB        25
   \   000056   ....         DW        ??zclSerializeData_4
   \   000058   1A           DB        26
   \   000059   ....         DW        ??zclSerializeData_6
   \   00005B   1B           DB        27
   \   00005C   ....         DW        ??zclSerializeData_3
   \   00005E   20           DB        32
   \   00005F   ....         DW        ??zclSerializeData_5
   \   000061   21           DB        33
   \   000062   ....         DW        ??zclSerializeData_4
   \   000064   22           DB        34
   \   000065   ....         DW        ??zclSerializeData_6
   \   000067   23           DB        35
   \   000068   ....         DW        ??zclSerializeData_3
   \   00006A   24           DB        36
   \   00006B   ....         DW        ??zclSerializeData_7
   \   00006D   25           DB        37
   \   00006E   ....         DW        ??zclSerializeData_8
   \   000070   26           DB        38
   \   000071   ....         DW        ??zclSerializeData_9
   \   000073   27           DB        39
   \   000074   ....         DW        ??zclSerializeData_10
   \   000076   28           DB        40
   \   000077   ....         DW        ??zclSerializeData_5
   \   000079   29           DB        41
   \   00007A   ....         DW        ??zclSerializeData_4
   \   00007C   2A           DB        42
   \   00007D   ....         DW        ??zclSerializeData_6
   \   00007F   2B           DB        43
   \   000080   ....         DW        ??zclSerializeData_3
   \   000082   2C           DB        44
   \   000083   ....         DW        ??zclSerializeData_7
   \   000085   2D           DB        45
   \   000086   ....         DW        ??zclSerializeData_8
   \   000088   2E           DB        46
   \   000089   ....         DW        ??zclSerializeData_9
   \   00008B   2F           DB        47
   \   00008C   ....         DW        ??zclSerializeData_10
   \   00008E   30           DB        48
   \   00008F   ....         DW        ??zclSerializeData_5
   \   000091   31           DB        49
   \   000092   ....         DW        ??zclSerializeData_4
   \   000094   38           DB        56
   \   000095   ....         DW        ??zclSerializeData_4
   \   000097   39           DB        57
   \   000098   ....         DW        ??zclSerializeData_3
   \   00009A   3A           DB        58
   \   00009B   ....         DW        ??zclSerializeData_10
   \   00009D   EA           DB        234
   \   00009E   ....         DW        ??zclSerializeData_3
   \   0000A0   F0           DB        240
   \   0000A1   ....         DW        ??zclSerializeData_10
   \   0000A3   F1           DB        241
   \   0000A4   ....         DW        ??zclSerializeData_11
   \   0000A6   ....         DW        ??zclSerializeData_0
   2936            {
   2937              case ZCL_DATATYPE_DATA8:
   2938              case ZCL_DATATYPE_BOOLEAN:
   2939              case ZCL_DATATYPE_BITMAP8:
   2940              case ZCL_DATATYPE_INT8:
   2941              case ZCL_DATATYPE_UINT8:
   2942              case ZCL_DATATYPE_ENUM8:
   2943                *buf++ = *((uint8 *)attrData);
   \                     ??zclSerializeData_5:
   \   0000A8   8E82         MOV       DPL,R6
   \   0000AA   8F83         MOV       DPH,R7
   \   0000AC   12....       LCALL     ?Subroutine79 & 0xFFFF
   \                     ??CrossCallReturnLabel_126:
   \   0000AF   EC           MOV       A,R4
   \   0000B0   FA           MOV       R2,A
   \   0000B1   ED           MOV       A,R5
   \   0000B2   FB           MOV       R3,A
   2944                 break;
   \   0000B3   02....       LJMP      ??zclSerializeData_0 & 0xFFFF
   2945          
   2946              case ZCL_DATATYPE_DATA16:
   2947              case ZCL_DATATYPE_BITMAP16:
   2948              case ZCL_DATATYPE_UINT16:
   2949              case ZCL_DATATYPE_INT16:
   2950              case ZCL_DATATYPE_ENUM16:
   2951              case ZCL_DATATYPE_SEMI_PREC:
   2952              case ZCL_DATATYPE_CLUSTER_ID:
   2953              case ZCL_DATATYPE_ATTR_ID:
   2954                *buf++ = LO_UINT16( *((uint16*)attrData) );
   \                     ??zclSerializeData_4:
   \   0000B6   8E82         MOV       DPL,R6
   \   0000B8   8F83         MOV       DPH,R7
   \   0000BA   12....       LCALL     ?Subroutine102 & 0xFFFF
   \                     ??CrossCallReturnLabel_178:
   \   0000BD   12....       LCALL     ?Subroutine32 & 0xFFFF
   2955                *buf++ = HI_UINT16( *((uint16*)attrData) );
   \                     ??CrossCallReturnLabel_40:
   \   0000C0   12....       LCALL     ?Subroutine97 & 0xFFFF
   \                     ??CrossCallReturnLabel_163:
   \   0000C3   F0           MOVX      @DPTR,A
   \   0000C4   0A           INC       R2
   \   0000C5   0A           INC       R2
   \   0000C6   AB..         MOV       R3,?V5
   2956                break;
   \   0000C8   02....       LJMP      ??zclSerializeData_0 & 0xFFFF
   2957          
   2958              case ZCL_DATATYPE_DATA24:
   2959              case ZCL_DATATYPE_BITMAP24:
   2960              case ZCL_DATATYPE_UINT24:
   2961              case ZCL_DATATYPE_INT24:
   2962                *buf++ = BREAK_UINT32( *((uint32*)attrData), 0 );
   \                     ??zclSerializeData_6:
   \   0000CB   8E82         MOV       DPL,R6
   \   0000CD   8F83         MOV       DPH,R7
   \   0000CF   78..         MOV       R0,#?V0
   \   0000D1   12....       LCALL     ?L_MOV_X
   \   0000D4   8A82         MOV       DPL,R2
   \   0000D6   8B83         MOV       DPH,R3
   \   0000D8   E5..         MOV       A,?V0
   \   0000DA   12....       LCALL     ?Subroutine148 & 0xFFFF
   2963                *buf++ = BREAK_UINT32( *((uint32*)attrData), 1 );
   \                     ??CrossCallReturnLabel_254:
   \   0000DD   78..         MOV       R0,#?V0
   \   0000DF   12....       LCALL     ?L_MOV_X
   \   0000E2   E5..         MOV       A,?V1
   \   0000E4   8C82         MOV       DPL,R4
   \   0000E6   8D83         MOV       DPH,R5
   \   0000E8   12....       LCALL     ?Subroutine148 & 0xFFFF
   2964                *buf++ = BREAK_UINT32( *((uint32*)attrData), 2 );
   \                     ??CrossCallReturnLabel_255:
   \   0000EB   78..         MOV       R0,#?V0
   \   0000ED   12....       LCALL     ?L_MOV_X
   \   0000F0   7410         MOV       A,#0x10
   \   0000F2   78..         MOV       R0,#?V0
   \   0000F4   12....       LCALL     ?UL_SHR
   \   0000F7   85..82       MOV       DPL,?V4
   \   0000FA   85..83       MOV       DPH,?V5
   \   0000FD   E5..         MOV       A,?V0
   \   0000FF   F0           MOVX      @DPTR,A
   \   000100   EA           MOV       A,R2
   \   000101   2403         ADD       A,#0x3
   \   000103   FA           MOV       R2,A
   \   000104   506B         JNC       ??zclSerializeData_0
   \   000106   0B           INC       R3
   2965                break;
   \   000107   8068         SJMP      ??zclSerializeData_0
   2966          
   2967              case ZCL_DATATYPE_DATA32:
   2968              case ZCL_DATATYPE_BITMAP32:
   2969              case ZCL_DATATYPE_UINT32:
   2970              case ZCL_DATATYPE_INT32:
   2971              case ZCL_DATATYPE_SINGLE_PREC:
   2972              case ZCL_DATATYPE_TOD:
   2973              case ZCL_DATATYPE_DATE:
   2974              case ZCL_DATATYPE_UTC:
   2975              case ZCL_DATATYPE_BAC_OID:
   2976                buf = zcl_buffer_uint32( buf, *((uint32*)attrData) );
   \                     ??zclSerializeData_3:
   \   000109                ; Setup parameters for call to function osal_buffer_uint32
   \   000109   8E82         MOV       DPL,R6
   \   00010B   8F83         MOV       DPH,R7
   \   00010D   12....       LCALL     ?PUSH_XSTACK8_X_FOUR
   \   000110   12....       LCALL     `??osal_buffer_uint32::?relay`; Banked call to: osal_buffer_uint32
   \   000113   7404         MOV       A,#0x4
   \   000115   12....       LCALL     ?DEALLOC_XSTACK8
   2977                break;
   \   000118   8057         SJMP      ??zclSerializeData_0
   2978          
   2979              case ZCL_DATATYPE_UINT40:
   2980              case ZCL_DATATYPE_INT40:
   2981                pStr = (uint8*)attrData;
   2982                buf = zcl_memcpy( buf, pStr, 5 );
   \                     ??zclSerializeData_7:
   \   00011A                ; Setup parameters for call to function osal_memcpy
   \   00011A   78..         MOV       R0,#?V0
   \   00011C   12....       LCALL     ?PUSH_XSTACK_I_THREE
   \   00011F   7C05         MOV       R4,#0x5
   \   000121   8046         SJMP      ??zclSerializeData_12
   2983                break;
   2984          
   2985              case ZCL_DATATYPE_UINT48:
   2986              case ZCL_DATATYPE_INT48:
   2987                pStr = (uint8*)attrData;
   2988                buf = zcl_memcpy( buf, pStr, 6 );
   \                     ??zclSerializeData_8:
   \   000123                ; Setup parameters for call to function osal_memcpy
   \   000123   78..         MOV       R0,#?V0
   \   000125   12....       LCALL     ?PUSH_XSTACK_I_THREE
   \   000128   7C06         MOV       R4,#0x6
   \   00012A   803D         SJMP      ??zclSerializeData_12
   2989                break;
   2990          
   2991              case ZCL_DATATYPE_UINT56:
   2992              case ZCL_DATATYPE_INT56:
   2993                pStr = (uint8*)attrData;
   2994                buf = zcl_memcpy( buf, pStr, 7 );
   \                     ??zclSerializeData_9:
   \   00012C                ; Setup parameters for call to function osal_memcpy
   \   00012C   78..         MOV       R0,#?V0
   \   00012E   12....       LCALL     ?PUSH_XSTACK_I_THREE
   \   000131   7C07         MOV       R4,#0x7
   \   000133   8034         SJMP      ??zclSerializeData_12
   2995                break;
   2996          
   2997              case ZCL_DATATYPE_DOUBLE_PREC:
   2998              case ZCL_DATATYPE_IEEE_ADDR:
   2999              case ZCL_DATATYPE_UINT64:
   3000              case ZCL_DATATYPE_INT64:
   3001                pStr = (uint8*)attrData;
   3002                buf = zcl_memcpy( buf, pStr, 8 );
   \                     ??zclSerializeData_10:
   \   000135                ; Setup parameters for call to function osal_memcpy
   \   000135   78..         MOV       R0,#?V0
   \   000137   12....       LCALL     ?PUSH_XSTACK_I_THREE
   \   00013A   7C08         MOV       R4,#0x8
   \   00013C   802B         SJMP      ??zclSerializeData_12
   3003                break;
   3004          
   3005              case ZCL_DATATYPE_CHAR_STR:
   3006              case ZCL_DATATYPE_OCTET_STR:
   3007                pStr = (uint8*)attrData;
   3008                len = *pStr;
   3009                buf = zcl_memcpy( buf, pStr, len+1 ); // Including length field
   \                     ??zclSerializeData_1:
   \   00013E                ; Setup parameters for call to function osal_memcpy
   \   00013E   78..         MOV       R0,#?V0
   \   000140   12....       LCALL     ?PUSH_XSTACK_I_THREE
   \   000143   8E82         MOV       DPL,R6
   \   000145   8F83         MOV       DPH,R7
   \   000147   E0           MOVX      A,@DPTR
   \   000148   2401         ADD       A,#0x1
   \   00014A   FC           MOV       R4,A
   \   00014B   E4           CLR       A
   \   00014C   3400         ADDC      A,#0x0
   \   00014E   800F         SJMP      ??zclSerializeData_13
   3010                break;
   3011          
   3012              case ZCL_DATATYPE_LONG_CHAR_STR:
   3013              case ZCL_DATATYPE_LONG_OCTET_STR:
   3014                pStr = (uint8*)attrData;
   3015                len = BUILD_UINT16( pStr[0], pStr[1] );
   3016                buf = zcl_memcpy( buf, pStr, len+2 ); // Including length field
   \                     ??zclSerializeData_2:
   \   000150                ; Setup parameters for call to function osal_memcpy
   \   000150   78..         MOV       R0,#?V0
   \   000152   12....       LCALL     ?PUSH_XSTACK_I_THREE
   \   000155   8E82         MOV       DPL,R6
   \   000157   8F83         MOV       DPH,R7
   \   000159   12....       LCALL     ?Subroutine108 & 0xFFFF
   \                     ??CrossCallReturnLabel_188:
   \   00015C   FC           MOV       R4,A
   \   00015D   E4           CLR       A
   \   00015E   39           ADDC      A,R1
   \                     ??zclSerializeData_13:
   \   00015F   FD           MOV       R5,A
   \   000160   8009         SJMP      ??zclSerializeData_14
   3017                break;
   3018          
   3019              case ZCL_DATATYPE_128_BIT_SEC_KEY:
   3020                pStr = (uint8*)attrData;
   3021                buf = zcl_memcpy( buf, pStr, SEC_KEY_LEN );
   \                     ??zclSerializeData_11:
   \   000162                ; Setup parameters for call to function osal_memcpy
   \   000162   78..         MOV       R0,#?V0
   \   000164   12....       LCALL     ?PUSH_XSTACK_I_THREE
   \   000167   7C10         MOV       R4,#0x10
   \                     ??zclSerializeData_12:
   \   000169   7D00         MOV       R5,#0x0
   \                     ??zclSerializeData_14:
   \   00016B   12....       LCALL     ??Subroutine200_0 & 0xFFFF
   \                     ??CrossCallReturnLabel_384:
   \   00016E   12....       LCALL     ?DEALLOC_XSTACK8
   3022                break;
   3023          
   3024              case ZCL_DATATYPE_NO_DATA:
   3025              case ZCL_DATATYPE_UNKNOWN:
   3026                // Fall through
   3027          
   3028              default:
   3029                break;
   3030            }
   3031          
   3032            return ( buf );
   \                     ??zclSerializeData_0:
   \   000171   02....       LJMP      ?Subroutine9 & 0xFFFF
   3033          }

   \                                 In  segment BANKED_CODE, align 1, keep-with-next
   \                     ?Subroutine108:
   \   000000   E0           MOVX      A,@DPTR
   \   000001   FC           MOV       R4,A
   \   000002   A3           INC       DPTR
   \   000003   E0           MOVX      A,@DPTR
   \   000004   F9           MOV       R1,A
   \   000005   EC           MOV       A,R4
   \   000006   2402         ADD       A,#0x2
   \   000008   22           RET
   3034          
   3035          #if defined ZCL_REPORTING_DEVICE || defined ZCL_REPORT_CONFIGURING_DEVICE
   3036          /*********************************************************************
   3037           * @fn      zclAnalogDataType
   3038           *
   3039           * @brief   Checks to see if Data Type is Analog
   3040           *
   3041           * @param   dataType - data type
   3042           *
   3043           * @return  TRUE if data type is analog
   3044           */
   3045          uint8 zclAnalogDataType( uint8 dataType )
   3046          {
   3047            uint8 analog;
   3048          
   3049            switch ( dataType )
   3050            {
   3051              case ZCL_DATATYPE_UINT8:
   3052              case ZCL_DATATYPE_UINT16:
   3053              case ZCL_DATATYPE_UINT24:
   3054              case ZCL_DATATYPE_UINT32:
   3055              case ZCL_DATATYPE_UINT40:
   3056              case ZCL_DATATYPE_UINT48:
   3057              case ZCL_DATATYPE_UINT56:
   3058              case ZCL_DATATYPE_UINT64:
   3059              case ZCL_DATATYPE_INT8:
   3060              case ZCL_DATATYPE_INT16:
   3061              case ZCL_DATATYPE_INT24:
   3062              case ZCL_DATATYPE_INT32:
   3063              case ZCL_DATATYPE_INT40:
   3064              case ZCL_DATATYPE_INT48:
   3065              case ZCL_DATATYPE_INT56:
   3066              case ZCL_DATATYPE_INT64:
   3067              case ZCL_DATATYPE_SEMI_PREC:
   3068              case ZCL_DATATYPE_SINGLE_PREC:
   3069              case ZCL_DATATYPE_DOUBLE_PREC:
   3070              case ZCL_DATATYPE_TOD:
   3071              case ZCL_DATATYPE_DATE:
   3072              case ZCL_DATATYPE_UTC:
   3073                analog = TRUE;
   3074                break;
   3075          
   3076              default:
   3077                analog = FALSE;
   3078                break;
   3079            }
   3080          
   3081            return ( analog );
   3082          }
   3083          
   3084          /*********************************************************************
   3085           * @fn      zclIsLittleEndianMachine
   3086           *
   3087           * @brief   Verifies endianness in system.
   3088           *
   3089           * @param   none
   3090           *
   3091           * @return  MSB-00 or LSB-01 depending on endianness in the system
   3092           */
   3093          static int zclIsLittleEndianMachine(void)
   3094          {
   3095            uint16 test = 0x0001;
   3096          
   3097            return (*((uint8 *)(&test)));
   3098          }
   3099          
   3100          /*********************************************************************
   3101           * @fn      zcl_BuildAnalogData
   3102           *
   3103           * @brief   Build an analog arribute out of sequential bytes.
   3104           *
   3105           * @param   dataType - type of data
   3106           * @param   pData - pointer to data
   3107           * @param   pBuf - where to put the data
   3108           *
   3109           * @return  none
   3110           */
   3111          static void zcl_BuildAnalogData( uint8 dataType, uint8 *pData, uint8 *pBuf )
   3112          {
   3113            int current_byte_index;
   3114            int remaining_bytes;
   3115            int step;
   3116          
   3117            remaining_bytes = zclGetAttrDataLength(dataType, pData);
   3118          
   3119            // decide if move forward or backwards to copy data
   3120            if ( zclIsLittleEndianMachine() )
   3121            {
   3122              step = 1;
   3123              current_byte_index = 0;
   3124            }
   3125            else
   3126            {
   3127              step = -1;
   3128              current_byte_index = remaining_bytes - 1;
   3129            }
   3130          
   3131            while ( remaining_bytes-- )
   3132            {
   3133              pData[current_byte_index] = *(pBuf++);
   3134              current_byte_index += step;
   3135            }
   3136          }
   3137          #endif
   3138          
   3139          /*********************************************************************
   3140           * @fn      zclGetDataTypeLength
   3141           *
   3142           * @brief   Return the length of the datatype in octet.
   3143           *
   3144           *          NOTE: Should not be called for ZCL_DATATYPE_OCTECT_STR or
   3145           *                ZCL_DATATYPE_CHAR_STR data types.
   3146           *
   3147           * @param   dataType - data type
   3148           *
   3149           * @return  length of data
   3150           */

   \                                 In  segment BANKED_CODE, align 1, keep-with-next
   3151          uint8 zclGetDataTypeLength( uint8 dataType )
   \                     zclGetDataTypeLength:
   3152          {
   \   000000                ; Saved register size: 0
   \   000000                ; Auto size: 0
   \   000000   E9           MOV       A,R1
   3153            uint8 len;
   3154          
   3155            switch ( dataType )
   \   000001   24F8         ADD       A,#-0x8
   \   000003   6078         JZ        ??zclGetDataTypeLength_0
   \   000005   14           DEC       A
   \   000006   6079         JZ        ??zclGetDataTypeLength_1
   \   000008   14           DEC       A
   \   000009   607A         JZ        ??zclGetDataTypeLength_2
   \   00000B   14           DEC       A
   \   00000C   607B         JZ        ??zclGetDataTypeLength_3
   \   00000E   24FB         ADD       A,#-0x5
   \   000010   606B         JZ        ??zclGetDataTypeLength_0
   \   000012   24F8         ADD       A,#-0x8
   \   000014   6067         JZ        ??zclGetDataTypeLength_0
   \   000016   14           DEC       A
   \   000017   6068         JZ        ??zclGetDataTypeLength_1
   \   000019   14           DEC       A
   \   00001A   6069         JZ        ??zclGetDataTypeLength_2
   \   00001C   14           DEC       A
   \   00001D   606A         JZ        ??zclGetDataTypeLength_3
   \   00001F   24FB         ADD       A,#-0x5
   \   000021   605A         JZ        ??zclGetDataTypeLength_0
   \   000023   14           DEC       A
   \   000024   605B         JZ        ??zclGetDataTypeLength_1
   \   000026   14           DEC       A
   \   000027   605C         JZ        ??zclGetDataTypeLength_2
   \   000029   14           DEC       A
   \   00002A   605D         JZ        ??zclGetDataTypeLength_3
   \   00002C   14           DEC       A
   \   00002D   605E         JZ        ??zclGetDataTypeLength_4
   \   00002F   14           DEC       A
   \   000030   605F         JZ        ??zclGetDataTypeLength_5
   \   000032   14           DEC       A
   \   000033   6060         JZ        ??zclGetDataTypeLength_6
   \   000035   14           DEC       A
   \   000036   6061         JZ        ??zclGetDataTypeLength_7
   \   000038   14           DEC       A
   \   000039   6042         JZ        ??zclGetDataTypeLength_0
   \   00003B   14           DEC       A
   \   00003C   6043         JZ        ??zclGetDataTypeLength_1
   \   00003E   14           DEC       A
   \   00003F   6044         JZ        ??zclGetDataTypeLength_2
   \   000041   14           DEC       A
   \   000042   6045         JZ        ??zclGetDataTypeLength_3
   \   000044   14           DEC       A
   \   000045   6046         JZ        ??zclGetDataTypeLength_4
   \   000047   14           DEC       A
   \   000048   6047         JZ        ??zclGetDataTypeLength_5
   \   00004A   14           DEC       A
   \   00004B   6048         JZ        ??zclGetDataTypeLength_6
   \   00004D   14           DEC       A
   \   00004E   6049         JZ        ??zclGetDataTypeLength_7
   \   000050   14           DEC       A
   \   000051   602A         JZ        ??zclGetDataTypeLength_0
   \   000053   14           DEC       A
   \   000054   602B         JZ        ??zclGetDataTypeLength_1
   \   000056   24F9         ADD       A,#-0x7
   \   000058   6027         JZ        ??zclGetDataTypeLength_1
   \   00005A   14           DEC       A
   \   00005B   602C         JZ        ??zclGetDataTypeLength_3
   \   00005D   14           DEC       A
   \   00005E   6039         JZ        ??zclGetDataTypeLength_7
   \   000060   245A         ADD       A,#0x5a
   \   000062   6025         JZ        ??zclGetDataTypeLength_3
   \   000064   14           DEC       A
   \   000065   6022         JZ        ??zclGetDataTypeLength_3
   \   000067   14           DEC       A
   \   000068   601F         JZ        ??zclGetDataTypeLength_3
   \   00006A   24FA         ADD       A,#-0x6
   \   00006C   6013         JZ        ??zclGetDataTypeLength_1
   \   00006E   14           DEC       A
   \   00006F   6010         JZ        ??zclGetDataTypeLength_1
   \   000071   14           DEC       A
   \   000072   6015         JZ        ??zclGetDataTypeLength_3
   \   000074   24FA         ADD       A,#-0x6
   \   000076   6021         JZ        ??zclGetDataTypeLength_7
   \   000078   14           DEC       A
   \   000079   6022         JZ        ??zclGetDataTypeLength_8
   \   00007B   8024         SJMP      ??zclGetDataTypeLength_9
   3156            {
   3157              case ZCL_DATATYPE_DATA8:
   3158              case ZCL_DATATYPE_BOOLEAN:
   3159              case ZCL_DATATYPE_BITMAP8:
   3160              case ZCL_DATATYPE_INT8:
   3161              case ZCL_DATATYPE_UINT8:
   3162              case ZCL_DATATYPE_ENUM8:
   3163                len = 1;
   \                     ??zclGetDataTypeLength_0:
   \   00007D   7901         MOV       R1,#0x1
   3164                break;
   \   00007F   8022         SJMP      ??zclGetDataTypeLength_10
   3165          
   3166              case ZCL_DATATYPE_DATA16:
   3167              case ZCL_DATATYPE_BITMAP16:
   3168              case ZCL_DATATYPE_UINT16:
   3169              case ZCL_DATATYPE_INT16:
   3170              case ZCL_DATATYPE_ENUM16:
   3171              case ZCL_DATATYPE_SEMI_PREC:
   3172              case ZCL_DATATYPE_CLUSTER_ID:
   3173              case ZCL_DATATYPE_ATTR_ID:
   3174                len = 2;
   \                     ??zclGetDataTypeLength_1:
   \   000081   7902         MOV       R1,#0x2
   3175                break;
   \   000083   801E         SJMP      ??zclGetDataTypeLength_10
   3176          
   3177              case ZCL_DATATYPE_DATA24:
   3178              case ZCL_DATATYPE_BITMAP24:
   3179              case ZCL_DATATYPE_UINT24:
   3180              case ZCL_DATATYPE_INT24:
   3181                len = 3;
   \                     ??zclGetDataTypeLength_2:
   \   000085   7903         MOV       R1,#0x3
   3182                break;
   \   000087   801A         SJMP      ??zclGetDataTypeLength_10
   3183          
   3184              case ZCL_DATATYPE_DATA32:
   3185              case ZCL_DATATYPE_BITMAP32:
   3186              case ZCL_DATATYPE_UINT32:
   3187              case ZCL_DATATYPE_INT32:
   3188              case ZCL_DATATYPE_SINGLE_PREC:
   3189              case ZCL_DATATYPE_TOD:
   3190              case ZCL_DATATYPE_DATE:
   3191              case ZCL_DATATYPE_UTC:
   3192              case ZCL_DATATYPE_BAC_OID:
   3193                len = 4;
   \                     ??zclGetDataTypeLength_3:
   \   000089   7904         MOV       R1,#0x4
   3194                break;
   \   00008B   8016         SJMP      ??zclGetDataTypeLength_10
   3195          
   3196             case ZCL_DATATYPE_UINT40:
   3197             case ZCL_DATATYPE_INT40:
   3198                 len = 5;
   \                     ??zclGetDataTypeLength_4:
   \   00008D   7905         MOV       R1,#0x5
   3199                 break;
   \   00008F   8012         SJMP      ??zclGetDataTypeLength_10
   3200          
   3201             case ZCL_DATATYPE_UINT48:
   3202             case ZCL_DATATYPE_INT48:
   3203                 len = 6;
   \                     ??zclGetDataTypeLength_5:
   \   000091   7906         MOV       R1,#0x6
   3204                 break;
   \   000093   800E         SJMP      ??zclGetDataTypeLength_10
   3205          
   3206             case ZCL_DATATYPE_UINT56:
   3207             case ZCL_DATATYPE_INT56:
   3208                 len = 7;
   \                     ??zclGetDataTypeLength_6:
   \   000095   7907         MOV       R1,#0x7
   3209                 break;
   \   000097   800A         SJMP      ??zclGetDataTypeLength_10
   3210          
   3211             case ZCL_DATATYPE_DOUBLE_PREC:
   3212             case ZCL_DATATYPE_IEEE_ADDR:
   3213             case ZCL_DATATYPE_UINT64:
   3214             case ZCL_DATATYPE_INT64:
   3215               len = 8;
   \                     ??zclGetDataTypeLength_7:
   \   000099   7908         MOV       R1,#0x8
   3216               break;
   \   00009B   8006         SJMP      ??zclGetDataTypeLength_10
   3217          
   3218              case ZCL_DATATYPE_128_BIT_SEC_KEY:
   3219               len = SEC_KEY_LEN;
   \                     ??zclGetDataTypeLength_8:
   \   00009D   7910         MOV       R1,#0x10
   3220               break;
   \   00009F   8002         SJMP      ??zclGetDataTypeLength_10
   3221          
   3222              case ZCL_DATATYPE_NO_DATA:
   3223              case ZCL_DATATYPE_UNKNOWN:
   3224                // Fall through
   3225          
   3226              default:
   3227                len = 0;
   \                     ??zclGetDataTypeLength_9:
   \   0000A1   7900         MOV       R1,#0x0
   3228                break;
   3229            }
   3230          
   3231            return ( len );
   \                     ??zclGetDataTypeLength_10:
   \   0000A3   02....       LJMP      ?BRET
   3232          }
   3233          
   3234          /*********************************************************************
   3235           * @fn      zclGetAttrDataLength
   3236           *
   3237           * @brief   Return the length of the attribute.
   3238           *
   3239           * @param   dataType - data type
   3240           * @param   pData - pointer to data
   3241           *
   3242           * @return  returns atrribute length
   3243           */

   \                                 In  segment BANKED_CODE, align 1, keep-with-next
   3244          uint16 zclGetAttrDataLength( uint8 dataType, uint8 *pData )
   \                     zclGetAttrDataLength:
   3245          {
   \   000000   74F7         MOV       A,#-0x9
   \   000002   12....       LCALL     ?BANKED_ENTER_XDATA
   \   000005                ; Saved register size: 9
   \   000005                ; Auto size: 0
   \   000005   E9           MOV       A,R1
   \   000006   FE           MOV       R6,A
   3246            uint16 dataLen = 0;
   3247          
   3248            if ( dataType == ZCL_DATATYPE_LONG_CHAR_STR || dataType == ZCL_DATATYPE_LONG_OCTET_STR )
   \   000007   7444         MOV       A,#0x44
   \   000009   6E           XRL       A,R6
   \   00000A   6005         JZ        ??zclGetAttrDataLength_0
   \   00000C   7443         MOV       A,#0x43
   \   00000E   6E           XRL       A,R6
   \   00000F   700C         JNZ       ??zclGetAttrDataLength_1
   3249            {
   3250              dataLen = BUILD_UINT16( pData[0], pData[1] ) + 2; // long string length + 2 for length field
   \                     ??zclGetAttrDataLength_0:
   \   000011   8A82         MOV       DPL,R2
   \   000013   8B83         MOV       DPH,R3
   \   000015   12....       LCALL     ?Subroutine108 & 0xFFFF
   3251            }
   \                     ??CrossCallReturnLabel_189:
   \   000018   FA           MOV       R2,A
   \   000019   E4           CLR       A
   \   00001A   39           ADDC      A,R1
   \   00001B   8015         SJMP      ??zclGetAttrDataLength_2
   3252            else if ( dataType == ZCL_DATATYPE_CHAR_STR || dataType == ZCL_DATATYPE_OCTET_STR )
   \                     ??zclGetAttrDataLength_1:
   \   00001D   7442         MOV       A,#0x42
   \   00001F   6E           XRL       A,R6
   \   000020   6005         JZ        ??zclGetAttrDataLength_3
   \   000022   7441         MOV       A,#0x41
   \   000024   6E           XRL       A,R6
   \   000025   700E         JNZ       ??zclGetAttrDataLength_4
   3253            {
   3254              dataLen = *pData + 1; // string length + 1 for length field
   \                     ??zclGetAttrDataLength_3:
   \   000027   8A82         MOV       DPL,R2
   \   000029   8B83         MOV       DPH,R3
   \   00002B   E0           MOVX      A,@DPTR
   \   00002C   2401         ADD       A,#0x1
   \   00002E   FA           MOV       R2,A
   \   00002F   E4           CLR       A
   \   000030   3400         ADDC      A,#0x0
   \                     ??zclGetAttrDataLength_2:
   \   000032   FB           MOV       R3,A
   \   000033   8007         SJMP      ??zclGetAttrDataLength_5
   3255            }
   3256            else
   3257            {
   3258              dataLen = zclGetDataTypeLength( dataType );
   \                     ??zclGetAttrDataLength_4:
   \   000035                ; Setup parameters for call to function zclGetDataTypeLength
   \   000035   12....       LCALL     `??zclGetDataTypeLength::?relay`; Banked call to: zclGetDataTypeLength
   \   000038   E9           MOV       A,R1
   \   000039   FA           MOV       R2,A
   \   00003A   7B00         MOV       R3,#0x0
   3259            }
   3260          
   3261            return ( dataLen );
   \                     ??zclGetAttrDataLength_5:
   \   00003C   02....       LJMP      ??Subroutine193_0 & 0xFFFF
   3262          }
   3263          
   3264          #ifdef ZCL_READ
   3265          /*********************************************************************
   3266           * @fn      zclReadAttrData
   3267           *
   3268           * @brief   Read the attribute's current value into pAttrData.
   3269           *          NOTE - Not compatible with application's attributes callbacks.
   3270           *
   3271           * @param   pAttrData - where to put attribute data
   3272           * @param   pAttr - pointer to attribute
   3273           * @param   pDataLen - where to put attribute data length
   3274           *
   3275           * @return Success
   3276           */

   \                                 In  segment BANKED_CODE, align 1, keep-with-next
   \                     ?Subroutine77:
   \   000000   A3           INC       DPTR
   \   000001                REQUIRE ??Subroutine182_0
   \   000001                ; // Fall through to label ??Subroutine182_0

   \                                 In  segment BANKED_CODE, align 1, keep-with-next
   3277          ZStatus_t zclReadAttrData( uint8 *pAttrData, zclAttrRec_t *pAttr, uint16 *pDataLen )
   \                     zclReadAttrData:
   3278          {
   \   000000                REQUIRE ?V0
   \   000000                REQUIRE ?V1
   \   000000                REQUIRE ?V2
   \   000000                REQUIRE ?V3
   \   000000                REQUIRE ?V4
   \   000000                REQUIRE ?V5
   \   000000                REQUIRE ?V6
   \   000000   74F1         MOV       A,#-0xf
   \   000002   12....       LCALL     ?BANKED_ENTER_XDATA
   \   000005                ; Saved register size: 15
   \   000005                ; Auto size: 0
   \   000005   EA           MOV       A,R2
   \   000006   FE           MOV       R6,A
   \   000007   EB           MOV       A,R3
   \   000008   FF           MOV       R7,A
   3279            uint16 dataLen;
   3280          
   3281            if ( pAttr->attr.dataPtr == NULL )
   \   000009   EC           MOV       A,R4
   \   00000A   2406         ADD       A,#0x6
   \   00000C   F8           MOV       R0,A
   \   00000D   E4           CLR       A
   \   00000E   3D           ADDC      A,R5
   \   00000F   88..         MOV       ?V0,R0
   \   000011   F5..         MOV       ?V1,A
   \   000013   8882         MOV       DPL,R0
   \   000015   F583         MOV       DPH,A
   \   000017   12....       LCALL     ??Subroutine185_0 & 0xFFFF
   \                     ??CrossCallReturnLabel_316:
   \   00001A   7004         JNZ       ??zclReadAttrData_0
   3282            {
   3283              return ( ZCL_STATUS_FAILURE );
   \   00001C   7901         MOV       R1,#0x1
   \   00001E   8040         SJMP      ??zclReadAttrData_1
   3284            }
   3285          
   3286            dataLen = zclGetAttrDataLength( pAttr->attr.dataType, (uint8*)(pAttr->attr.dataPtr) );
   \                     ??zclReadAttrData_0:
   \   000020                ; Setup parameters for call to function zclGetAttrDataLength
   \   000020   8C82         MOV       DPL,R4
   \   000022   8D83         MOV       DPH,R5
   \   000024   12....       LCALL     ?Subroutine77 & 0xFFFF
   \                     ??CrossCallReturnLabel_300:
   \   000027   8A..         MOV       ?V2,R2
   \   000029   8B..         MOV       ?V3,R3
   3287            zcl_memcpy( pAttrData, pAttr->attr.dataPtr, dataLen );
   \   00002B                ; Setup parameters for call to function osal_memcpy
   \   00002B   85..82       MOV       DPL,?V0
   \   00002E   85..83       MOV       DPH,?V1
   \   000031   E0           MOVX      A,@DPTR
   \   000032   F5..         MOV       ?V0,A
   \   000034   A3           INC       DPTR
   \   000035   E0           MOVX      A,@DPTR
   \   000036   85....       MOV       ?V4,?V0
   \   000039   F5..         MOV       ?V5,A
   \   00003B   75..00       MOV       ?V6,#0x0
   \   00003E   78..         MOV       R0,#?V4
   \   000040   12....       LCALL     ?PUSH_XSTACK_I_THREE
   \   000043   AC..         MOV       R4,?V2
   \   000045   AD..         MOV       R5,?V3
   \   000047   12....       LCALL     ?Subroutine135 & 0xFFFF
   \                     ??CrossCallReturnLabel_381:
   \   00004A   12....       LCALL     ?DEALLOC_XSTACK8
   \   00004D   740F         MOV       A,#0xf
   \   00004F   12....       LCALL     ?XSTACK_DISP0_8
   \   000052   12....       LCALL     ??Subroutine190_0 & 0xFFFF
   3288          
   3289            if ( pDataLen != NULL )
   \                     ??CrossCallReturnLabel_334:
   \   000055   6007         JZ        ??zclReadAttrData_2
   3290            {
   3291              *pDataLen = dataLen;
   \   000057   E5..         MOV       A,?V2
   \   000059   F0           MOVX      @DPTR,A
   \   00005A   A3           INC       DPTR
   \   00005B   E5..         MOV       A,?V3
   \   00005D   F0           MOVX      @DPTR,A
   3292            }
   3293          
   3294            return ( ZCL_STATUS_SUCCESS );
   \                     ??zclReadAttrData_2:
   \   00005E   7900         MOV       R1,#0x0
   \                     ??zclReadAttrData_1:
   \   000060                REQUIRE ?Subroutine9
   \   000060                ; // Fall through to label ?Subroutine9
   3295          }

   \                                 In  segment BANKED_CODE, align 1, keep-with-next
   \                     ?Subroutine135:
   \   000000   EE           MOV       A,R6
   \   000001   FA           MOV       R2,A
   \   000002   EF           MOV       A,R7
   \   000003   FB           MOV       R3,A
   \   000004                REQUIRE ??Subroutine200_0
   \   000004                ; // Fall through to label ??Subroutine200_0
   3296          
   3297          /*********************************************************************
   3298           * @fn      zcl_ReadAttrData
   3299           *
   3300           * @brief   Read the attribute's current value into pAttrData.
   3301           *          Use application's callback function if assigned to this attribute.
   3302           *
   3303           * @param   endpoint - application's endpoint
   3304           * @param   clusterId - cluster that attribute belongs to
   3305           * @param   attrId - attribute id
   3306           * @param   pAttrData - where to put attribute data
   3307           * @param   pDataLen - where to put attribute data length
   3308           *
   3309           * @return  Successful if data was read
   3310           */

   \                                 In  segment BANKED_CODE, align 1, keep-with-next
   \                     ?Subroutine8:
   \   000000   12....       LCALL     ?DEALLOC_XSTACK8
   \   000003                REQUIRE ??Subroutine194_0
   \   000003                ; // Fall through to label ??Subroutine194_0

   \                                 In  segment BANKED_CODE, align 1, keep-with-next
   3311          ZStatus_t zcl_ReadAttrData( uint8 endpoint, uint16 clusterId, uint16 attrId,
   \                     zcl_ReadAttrData:
   3312                                                   uint8 *pAttrData, uint16 *pDataLen )
   3313          {
   \   000000                REQUIRE ?V0
   \   000000                REQUIRE ?V1
   \   000000                REQUIRE ?V2
   \   000000                REQUIRE ?V4
   \   000000                REQUIRE ?V5
   \   000000                REQUIRE ?V6
   \   000000                REQUIRE ?V7
   \   000000   74F0         MOV       A,#-0x10
   \   000002   12....       LCALL     ?BANKED_ENTER_XDATA
   \   000005                ; Saved register size: 16
   \   000005                ; Auto size: 8
   \   000005   74F8         MOV       A,#-0x8
   \   000007   12....       LCALL     ?ALLOC_XSTACK8
   \   00000A   89..         MOV       ?V2,R1
   \   00000C   8A..         MOV       ?V0,R2
   \   00000E   8B..         MOV       ?V1,R3
   \   000010   EC           MOV       A,R4
   \   000011   FE           MOV       R6,A
   \   000012   ED           MOV       A,R5
   \   000013   FF           MOV       R7,A
   3314            zclAttrRec_t attrRec;
   3315          
   3316            if ( zclFindAttrRec( endpoint, clusterId, attrId, &attrRec ) == FALSE )
   \   000014                ; Setup parameters for call to function zclFindAttrRec
   \   000014   A8..         MOV       R0,?XSP + 0
   \   000016   A9..         MOV       R1,?XSP + 1
   \   000018   88..         MOV       ?V4,R0
   \   00001A   89..         MOV       ?V5,R1
   \   00001C   78..         MOV       R0,#?V4
   \   00001E   12....       LCALL     ?PUSH_XSTACK_I_TWO
   \   000021   A9..         MOV       R1,?V2
   \   000023   12....       LCALL     ??Subroutine181_0 & 0xFFFF
   \                     ??CrossCallReturnLabel_298:
   \   000026   12....       LCALL     ?DEALLOC_XSTACK8
   \   000029   E9           MOV       A,R1
   \   00002A   7004         JNZ       ??zcl_ReadAttrData_0
   3317            {
   3318              return ( ZCL_STATUS_FAILURE );
   \   00002C   7901         MOV       R1,#0x1
   \   00002E   804C         SJMP      ??zcl_ReadAttrData_1
   3319            }
   \                     ??zcl_ReadAttrData_0:
   \   000030   7418         MOV       A,#0x18
   \   000032   12....       LCALL     ?XSTACK_DISP0_8
   \   000035   12....       LCALL     ??Subroutine217_0 & 0xFFFF
   \                     ??CrossCallReturnLabel_487:
   \   000038   741A         MOV       A,#0x1a
   \   00003A   12....       LCALL     ?XSTACK_DISP0_8
   \   00003D   12....       LCALL     ?Subroutine99 & 0xFFFF
   3320          
   3321            if ( attrRec.attr.dataPtr != NULL )
   \                     ??CrossCallReturnLabel_168:
   \   000040   7406         MOV       A,#0x6
   \   000042   12....       LCALL     ?XSTACK_DISP0_8
   \   000045   12....       LCALL     ??Subroutine196_0 & 0xFFFF
   \                     ??CrossCallReturnLabel_355:
   \   000048   78..         MOV       R0,#?V4
   \   00004A   6016         JZ        ??zcl_ReadAttrData_2
   3322            {
   3323              return zclReadAttrData( pAttrData, &attrRec, pDataLen );
   \   00004C                ; Setup parameters for call to function zclReadAttrData
   \   00004C   12....       LCALL     ?PUSH_XSTACK_I_TWO
   \   00004F   7402         MOV       A,#0x2
   \   000051   12....       LCALL     ?XSTACK_DISP102_8
   \   000054   AA..         MOV       R2,?V6
   \   000056   AB..         MOV       R3,?V7
   \   000058   12....       LCALL     `??zclReadAttrData::?relay`; Banked call to: zclReadAttrData
   \   00005B   7402         MOV       A,#0x2
   \   00005D   12....       LCALL     ?DEALLOC_XSTACK8
   \   000060   801A         SJMP      ??zcl_ReadAttrData_1
   3324            }
   3325            else
   3326            {
   3327              return zclReadAttrDataUsingCB( endpoint, clusterId, attrId, pAttrData, pDataLen );
   \                     ??zcl_ReadAttrData_2:
   \   000062                ; Setup parameters for call to function zclReadAttrDataUsingCB
   \   000062   12....       LCALL     ?PUSH_XSTACK_I_TWO
   \   000065   78..         MOV       R0,#?V6
   \   000067   12....       LCALL     ?PUSH_XSTACK_I_TWO
   \   00006A   EE           MOV       A,R6
   \   00006B   FC           MOV       R4,A
   \   00006C   EF           MOV       A,R7
   \   00006D   FD           MOV       R5,A
   \   00006E   AA..         MOV       R2,?V0
   \   000070   AB..         MOV       R3,?V1
   \   000072   A9..         MOV       R1,?V2
   \   000074   12....       LCALL     `??zclReadAttrDataUsingCB::?relay`; Banked call to: zclReadAttrDataUsingCB
   \   000077   7404         MOV       A,#0x4
   \   000079   12....       LCALL     ?DEALLOC_XSTACK8
   \                     ??zcl_ReadAttrData_1:
   \   00007C   7408         MOV       A,#0x8
   3328            }
   \   00007E   02....       LJMP      ?Subroutine8 & 0xFFFF
   3329          }

   \                                 In  segment BANKED_CODE, align 1, keep-with-next
   \                     ??Subroutine217_0:
   \   000000   E0           MOVX      A,@DPTR
   \   000001   F5..         MOV       ?V6,A
   \   000003   A3           INC       DPTR
   \   000004   E0           MOVX      A,@DPTR
   \   000005   F5..         MOV       ?V7,A
   \   000007   22           RET
   3330          
   3331          /*********************************************************************
   3332           * @fn      zclGetAttrDataLengthUsingCB
   3333           *
   3334           * @brief   Use application's callback to get the length of the attribute's
   3335           *          current value stored in the database.
   3336           *
   3337           * @param   endpoint - application's endpoint
   3338           * @param   clusterId - cluster that attribute belongs to
   3339           * @param   attrId - attribute id
   3340           *
   3341           * @return  returns attribute length
   3342           */

   \                                 In  segment BANKED_CODE, align 1, keep-with-next
   3343          static uint16 zclGetAttrDataLengthUsingCB( uint8 endpoint, uint16 clusterId, uint16 attrId )
   \                     zclGetAttrDataLengthUsingCB:
   3344          {
   \   000000                REQUIRE ?V0
   \   000000                REQUIRE ?V1
   \   000000                REQUIRE ?V2
   \   000000                REQUIRE ?V4
   \   000000                REQUIRE ?V5
   \   000000                REQUIRE ?V6
   \   000000                REQUIRE ?V7
   \   000000   74F0         MOV       A,#-0x10
   \   000002   12....       LCALL     ?BANKED_ENTER_XDATA
   \   000005                ; Saved register size: 16
   \   000005                ; Auto size: 2
   \   000005   74FE         MOV       A,#-0x2
   \   000007   12....       LCALL     ?ALLOC_XSTACK8
   \   00000A   8A..         MOV       ?V4,R2
   \   00000C   8B..         MOV       ?V5,R3
   \   00000E   EC           MOV       A,R4
   \   00000F   FE           MOV       R6,A
   \   000010   ED           MOV       A,R5
   \   000011   FF           MOV       R7,A
   3345            uint16 dataLen = 0;
   \   000012   85..82       MOV       DPL,?XSP + 0
   \   000015   85..83       MOV       DPH,?XSP + 1
   \   000018   E4           CLR       A
   \   000019   F0           MOVX      @DPTR,A
   \   00001A   A3           INC       DPTR
   \   00001B   F0           MOVX      @DPTR,A
   3346            zclReadWriteCB_t pfnReadWriteCB = zclGetReadWriteCB( endpoint );
   \   00001C                ; Setup parameters for call to function zclGetReadWriteCB
   \   00001C   12....       LCALL     `??zclGetReadWriteCB::?relay`; Banked call to: zclGetReadWriteCB
   \   00001F   8A..         MOV       ?V0,R2
   \   000021   8B..         MOV       ?V1,R3
   3347          
   3348            if ( pfnReadWriteCB != NULL )
   \   000023   EA           MOV       A,R2
   \   000024   4B           ORL       A,R3
   \   000025   602F         JZ        ??zclGetAttrDataLengthUsingCB_0
   3349            {
   3350              // Only get the attribute length
   3351              (*pfnReadWriteCB)( clusterId, attrId, ZCL_OPER_LEN, NULL, &dataLen );
   \   000027                ; Setup parameters for indirect call
   \   000027   A8..         MOV       R0,?XSP + 0
   \   000029   A9..         MOV       R1,?XSP + 1
   \   00002B   88..         MOV       ?V6,R0
   \   00002D   89..         MOV       ?V7,R1
   \   00002F   78..         MOV       R0,#?V6
   \   000031   12....       LCALL     ?PUSH_XSTACK_I_TWO
   \   000034   E4           CLR       A
   \   000035   F5..         MOV       ?V6,A
   \   000037   F5..         MOV       ?V7,A
   \   000039   78..         MOV       R0,#?V6
   \   00003B   12....       LCALL     ?PUSH_XSTACK_I_TWO
   \   00003E   7900         MOV       R1,#0x0
   \   000040   EE           MOV       A,R6
   \   000041   FC           MOV       R4,A
   \   000042   EF           MOV       A,R7
   \   000043   FD           MOV       R5,A
   \   000044   AA..         MOV       R2,?V4
   \   000046   AB..         MOV       R3,?V5
   \   000048   85..82       MOV       DPL,?V0
   \   00004B   85..83       MOV       DPH,?V1
   \   00004E   12....       LCALL     ?CALL_IND
   \   000051   7404         MOV       A,#0x4
   \   000053   12....       LCALL     ?DEALLOC_XSTACK8
   3352            }
   3353          
   3354            return ( dataLen );
   \                     ??zclGetAttrDataLengthUsingCB_0:
   \   000056   85..82       MOV       DPL,?XSP + 0
   \   000059   85..83       MOV       DPH,?XSP + 1
   \   00005C   12....       LCALL     ??Subroutine208_0 & 0xFFFF
   \                     ??CrossCallReturnLabel_443:
   \   00005F   7402         MOV       A,#0x2
   \   000061   02....       LJMP      ?Subroutine8 & 0xFFFF
   3355          }
   3356          
   3357          /*********************************************************************
   3358           * @fn      zclReadAttrDataUsingCB
   3359           *
   3360           * @brief   Use application's callback to read the attribute's current
   3361           *          value stored in the database.
   3362           *
   3363           * @param   endpoint - application's endpoint
   3364           * @param   clusterId - cluster that attribute belongs to
   3365           * @param   attrId - attribute id
   3366           * @param   pAttrData - where to put attribute data
   3367           * @param   pDataLen - where to put attribute data length
   3368           *
   3369           * @return  Successful if data was read
   3370           */

   \                                 In  segment BANKED_CODE, align 1, keep-with-next
   3371          static ZStatus_t zclReadAttrDataUsingCB( uint8 endpoint, uint16 clusterId, uint16 attrId,
   \                     zclReadAttrDataUsingCB:
   3372                                                   uint8 *pAttrData, uint16 *pDataLen )
   3373          {
   \   000000                REQUIRE ?V0
   \   000000                REQUIRE ?V1
   \   000000                REQUIRE ?V2
   \   000000                REQUIRE ?V3
   \   000000                REQUIRE ?V4
   \   000000                REQUIRE ?V6
   \   000000                REQUIRE ?V7
   \   000000   74F0         MOV       A,#-0x10
   \   000002   12....       LCALL     ?BANKED_ENTER_XDATA
   \   000005                ; Saved register size: 16
   \   000005                ; Auto size: 0
   \   000005   8A..         MOV       ?V0,R2
   \   000007   8B..         MOV       ?V1,R3
   \   000009   EC           MOV       A,R4
   \   00000A   FE           MOV       R6,A
   \   00000B   ED           MOV       A,R5
   \   00000C   FF           MOV       R7,A
   3374            zclReadWriteCB_t pfnReadWriteCB = zclGetReadWriteCB( endpoint );
   \   00000D                ; Setup parameters for call to function zclGetReadWriteCB
   \   00000D   12....       LCALL     `??zclGetReadWriteCB::?relay`; Banked call to: zclGetReadWriteCB
   \   000010   8A..         MOV       ?V2,R2
   \   000012   8B..         MOV       ?V3,R3
   \   000014   7412         MOV       A,#0x12
   \   000016   12....       LCALL     ?XSTACK_DISP0_8
   \   000019   12....       LCALL     ??Subroutine217_0 & 0xFFFF
   3375          
   3376            if ( pDataLen != NULL )
   \                     ??CrossCallReturnLabel_488:
   \   00001C   E5..         MOV       A,?V6
   \   00001E   45..         ORL       A,?V7
   \   000020   600A         JZ        ??zclReadAttrDataUsingCB_0
   3377            {
   3378              *pDataLen = 0; // Always initialize it to 0
   \   000022   85..82       MOV       DPL,?V6
   \   000025   85..83       MOV       DPH,?V7
   \   000028   E4           CLR       A
   \   000029   F0           MOVX      @DPTR,A
   \   00002A   A3           INC       DPTR
   \   00002B   F0           MOVX      @DPTR,A
   3379            }
   3380          
   3381            if ( pfnReadWriteCB != NULL )
   \                     ??zclReadAttrDataUsingCB_0:
   \   00002C   EA           MOV       A,R2
   \   00002D   4B           ORL       A,R3
   \   00002E   6027         JZ        ??zclReadAttrDataUsingCB_1
   3382            {
   3383              // Read the attribute value and its length
   3384              return ( (*pfnReadWriteCB)( clusterId, attrId, ZCL_OPER_READ, pAttrData, pDataLen ) );
   \   000030                ; Setup parameters for indirect call
   \   000030   78..         MOV       R0,#?V6
   \   000032   12....       LCALL     ?PUSH_XSTACK_I_TWO
   \   000035   7412         MOV       A,#0x12
   \   000037   12....       LCALL     ?XSTACK_DISP0_8
   \   00003A   12....       LCALL     ?PUSH_XSTACK8_X_TWO
   \   00003D   7901         MOV       R1,#0x1
   \   00003F   EE           MOV       A,R6
   \   000040   FC           MOV       R4,A
   \   000041   EF           MOV       A,R7
   \   000042   FD           MOV       R5,A
   \   000043   AA..         MOV       R2,?V0
   \   000045   AB..         MOV       R3,?V1
   \   000047   85..82       MOV       DPL,?V2
   \   00004A   85..83       MOV       DPH,?V3
   \   00004D   12....       LCALL     ?CALL_IND
   \   000050   7404         MOV       A,#0x4
   \   000052   12....       LCALL     ?DEALLOC_XSTACK8
   \   000055   8002         SJMP      ??zclReadAttrDataUsingCB_2
   3385            }
   3386          
   3387            return ( ZCL_STATUS_SOFTWARE_FAILURE );
   \                     ??zclReadAttrDataUsingCB_1:
   \   000057   79C1         MOV       R1,#-0x3f
   \                     ??zclReadAttrDataUsingCB_2:
   \   000059   02....       LJMP      ??Subroutine194_0 & 0xFFFF
   3388          }
   3389          
   3390          /*********************************************************************
   3391           * @fn      zclAuthorizeRead
   3392           *
   3393           * @brief   Use application's callback to authorize a Read operation
   3394           *          on a given attribute.
   3395           *
   3396           * @param   endpoint - application's endpoint
   3397           * @param   srcAddr - source Address
   3398           * @param   pAttr - pointer to attribute
   3399           *
   3400           * @return  ZCL_STATUS_SUCCESS: Operation authorized
   3401           *          ZCL_STATUS_NOT_AUTHORIZED: Operation not authorized
   3402           */
   3403          static ZStatus_t zclAuthorizeRead( uint8 endpoint, afAddrType_t *srcAddr, zclAttrRec_t *pAttr )
   3404          {
   3405            if ( zcl_AccessCtrlAuthRead( pAttr->attr.accessControl ) )
   3406            {
   3407              zclAuthorizeCB_t pfnAuthorizeCB = zclGetAuthorizeCB( endpoint );
   3408          
   3409              if ( pfnAuthorizeCB != NULL )
   3410              {
   3411                return ( (*pfnAuthorizeCB)( srcAddr, pAttr, ZCL_OPER_READ ) );
   3412              }
   3413            }
   3414          
   3415            return ( ZCL_STATUS_SUCCESS );
   3416          }
   3417          #endif // ZCL_READ
   3418          
   3419          #ifdef ZCL_WRITE
   3420          /*********************************************************************
   3421           * @fn      zclWriteAttrData
   3422           *
   3423           * @brief   Write the received data.
   3424           *
   3425           * @param   endpoint - application's endpoint
   3426           * @param   pAttr - where to write data to
   3427           * @param   pWriteRec - data to be written
   3428           *
   3429           * @return  Successful if data was written
   3430           */

   \                                 In  segment BANKED_CODE, align 1, keep-with-next
   3431          static ZStatus_t zclWriteAttrData( uint8 endpoint, afAddrType_t *srcAddr,
   \                     zclWriteAttrData:
   3432                                             zclAttrRec_t *pAttr, zclWriteRec_t *pWriteRec )
   3433          {
   \   000000                REQUIRE ?V0
   \   000000                REQUIRE ?V1
   \   000000                REQUIRE ?V2
   \   000000                REQUIRE ?V3
   \   000000                REQUIRE ?V4
   \   000000                REQUIRE ?V5
   \   000000                REQUIRE ?V6
   \   000000   74F1         MOV       A,#-0xf
   \   000002   12....       LCALL     ?BANKED_ENTER_XDATA
   \   000005                ; Saved register size: 15
   \   000005                ; Auto size: 0
   \   000005   EC           MOV       A,R4
   \   000006   FE           MOV       R6,A
   \   000007   ED           MOV       A,R5
   \   000008   FF           MOV       R7,A
   3434            uint8 status;
   3435          
   3436            if ( zcl_AccessCtrlWrite( pAttr->attr.accessControl ) )
   \   000009   8C82         MOV       DPL,R4
   \   00000B   F583         MOV       DPH,A
   \   00000D   A3           INC       DPTR
   \   00000E   A3           INC       DPTR
   \   00000F   A3           INC       DPTR
   \   000010   A3           INC       DPTR
   \   000011   A3           INC       DPTR
   \   000012   E0           MOVX      A,@DPTR
   \   000013   A2E1         MOV       C,0xE0 /* A   */.1
   \   000015   506E         JNC       ??zclWriteAttrData_0
   3437            {
   3438              status = zclAuthorizeWrite( endpoint, srcAddr, pAttr );
   \   000017                ; Setup parameters for call to function zclAuthorizeWrite
   \   000017   12....       LCALL     `??zclAuthorizeWrite::?relay`; Banked call to: zclAuthorizeWrite
   \   00001A   E9           MOV       A,R1
   \   00001B   F5..         MOV       ?V2,A
   3439              if ( status == ZCL_STATUS_SUCCESS )
   \   00001D   7069         JNZ       ??zclWriteAttrData_1
   \   00001F   740F         MOV       A,#0xf
   \   000021   12....       LCALL     ?XSTACK_DISP0_8
   \   000024   12....       LCALL     ??Subroutine201_0 & 0xFFFF
   3440              {
   3441                if ( ( zcl_ValidateAttrDataCB == NULL ) || zcl_ValidateAttrDataCB( pAttr, pWriteRec ) )
   \                     ??CrossCallReturnLabel_389:
   \   000027   90....       MOV       DPTR,#zcl_ValidateAttrDataCB
   \   00002A   12....       LCALL     ??Subroutine196_0 & 0xFFFF
   \                     ??CrossCallReturnLabel_356:
   \   00002D   6013         JZ        ??zclWriteAttrData_2
   \   00002F                ; Setup parameters for indirect call
   \   00002F   AC..         MOV       R4,?V0
   \   000031   AD..         MOV       R5,?V1
   \   000033   EE           MOV       A,R6
   \   000034   FA           MOV       R2,A
   \   000035   EF           MOV       A,R7
   \   000036   FB           MOV       R3,A
   \   000037   E0           MOVX      A,@DPTR
   \   000038   F583         MOV       DPH,A
   \   00003A   8882         MOV       DPL,R0
   \   00003C   12....       LCALL     ?CALL_IND
   \   00003F   E9           MOV       A,R1
   \   000040   603E         JZ        ??zclWriteAttrData_3
   3442                {
   3443                  // Write the attribute value
   3444                  uint16 len = zclGetAttrDataLength( pAttr->attr.dataType, pWriteRec->attrData );
   \                     ??zclWriteAttrData_2:
   \   000042   E5..         MOV       A,?V0
   \   000044   2403         ADD       A,#0x3
   \   000046   F8           MOV       R0,A
   \   000047   E4           CLR       A
   \   000048   35..         ADDC      A,?V1
   \   00004A   88..         MOV       ?V0,R0
   \   00004C   F5..         MOV       ?V1,A
   \   00004E                ; Setup parameters for call to function zclGetAttrDataLength
   \   00004E   8882         MOV       DPL,R0
   \   000050   F583         MOV       DPH,A
   \   000052   12....       LCALL     ??Subroutine208_0 & 0xFFFF
   \                     ??CrossCallReturnLabel_444:
   \   000055   8E82         MOV       DPL,R6
   \   000057   8F83         MOV       DPH,R7
   \   000059   12....       LCALL     ?Subroutine77 & 0xFFFF
   \                     ??CrossCallReturnLabel_301:
   \   00005C   8A..         MOV       ?V4,R2
   \   00005E   8B..         MOV       ?V5,R3
   \   000060   AC..         MOV       R4,?V4
   \   000062   AD..         MOV       R5,?V5
   3445                  zcl_memcpy( pAttr->attr.dataPtr, pWriteRec->attrData, len );
   \   000064                ; Setup parameters for call to function osal_memcpy
   \   000064   85..82       MOV       DPL,?V0
   \   000067   85..83       MOV       DPH,?V1
   \   00006A   12....       LCALL     ?Subroutine54 & 0xFFFF
   \                     ??CrossCallReturnLabel_69:
   \   00006D   12....       LCALL     ?PUSH_XSTACK_I_THREE
   \   000070   8E82         MOV       DPL,R6
   \   000072   8F83         MOV       DPH,R7
   \   000074   A3           INC       DPTR
   \   000075   12....       LCALL     ?Subroutine92 & 0xFFFF
   \                     ??CrossCallReturnLabel_455:
   \   000078   12....       LCALL     ??Subroutine200_0 & 0xFFFF
   \                     ??CrossCallReturnLabel_385:
   \   00007B   12....       LCALL     ?DEALLOC_XSTACK8
   3446          
   3447                  status = ZCL_STATUS_SUCCESS;
   \   00007E   8008         SJMP      ??zclWriteAttrData_1
   3448                }
   3449                else
   3450                {
   3451                  status = ZCL_STATUS_INVALID_VALUE;
   \                     ??zclWriteAttrData_3:
   \   000080   75..87       MOV       ?V2,#-0x79
   \   000083   8003         SJMP      ??zclWriteAttrData_1
   3452                }
   3453              }
   3454            }
   3455            else
   3456            {
   3457              status = ZCL_STATUS_READ_ONLY;
   \                     ??zclWriteAttrData_0:
   \   000085   75..88       MOV       ?V2,#-0x78
   3458            }
   3459          
   3460            return ( status );
   \                     ??zclWriteAttrData_1:
   \   000088   A9..         MOV       R1,?V2
   \   00008A   02....       LJMP      ?Subroutine9 & 0xFFFF
   3461          }

   \                                 In  segment BANKED_CODE, align 1, keep-with-next
   \                     ??Subroutine201_0:
   \   000000   E0           MOVX      A,@DPTR
   \   000001   F5..         MOV       ?V0,A
   \   000003   A3           INC       DPTR
   \   000004   E0           MOVX      A,@DPTR
   \   000005   F5..         MOV       ?V1,A
   \   000007   22           RET
   3462          
   3463          /*********************************************************************
   3464           * @fn      zclWriteAttrDataUsingCB
   3465           *
   3466           * @brief   Use application's callback to write the attribute's current
   3467           *          value stored in the database.
   3468           *
   3469           * @param   endpoint - application's endpoint
   3470           * @param   pAttr - where to write data to
   3471           * @param   pAttrData - data to be written
   3472           *
   3473           * @return  Successful if data was written
   3474           */

   \                                 In  segment BANKED_CODE, align 1, keep-with-next
   3475          static ZStatus_t zclWriteAttrDataUsingCB( uint8 endpoint, afAddrType_t *srcAddr,
   \                     zclWriteAttrDataUsingCB:
   3476                                                    zclAttrRec_t *pAttr, uint8 *pAttrData )
   3477          {
   \   000000                REQUIRE ?V0
   \   000000                REQUIRE ?V2
   \   000000                REQUIRE ?V3
   \   000000                REQUIRE ?V4
   \   000000                REQUIRE ?V5
   \   000000   74F2         MOV       A,#-0xe
   \   000002   12....       LCALL     ?BANKED_ENTER_XDATA
   \   000005                ; Saved register size: 14
   \   000005                ; Auto size: 0
   \   000005   89..         MOV       ?V0,R1
   \   000007   EC           MOV       A,R4
   \   000008   FE           MOV       R6,A
   \   000009   ED           MOV       A,R5
   \   00000A   FF           MOV       R7,A
   3478            uint8 status;
   3479          
   3480            if ( zcl_AccessCtrlWrite( pAttr->attr.accessControl ) )
   \   00000B   8C82         MOV       DPL,R4
   \   00000D   F583         MOV       DPH,A
   \   00000F   A3           INC       DPTR
   \   000010   A3           INC       DPTR
   \   000011   A3           INC       DPTR
   \   000012   A3           INC       DPTR
   \   000013   A3           INC       DPTR
   \   000014   E0           MOVX      A,@DPTR
   \   000015   A2E1         MOV       C,0xE0 /* A   */.1
   \   000017   504C         JNC       ??zclWriteAttrDataUsingCB_0
   3481            {
   3482              status = zclAuthorizeWrite( endpoint, srcAddr, pAttr );
   \   000019                ; Setup parameters for call to function zclAuthorizeWrite
   \   000019   12....       LCALL     `??zclAuthorizeWrite::?relay`; Banked call to: zclAuthorizeWrite
   \   00001C   E9           MOV       A,R1
   \   00001D   F9           MOV       R1,A
   3483              if ( status == ZCL_STATUS_SUCCESS )
   \   00001E   7047         JNZ       ??zclWriteAttrDataUsingCB_1
   3484              {
   3485                zclReadWriteCB_t pfnReadWriteCB = zclGetReadWriteCB( endpoint );
   \   000020                ; Setup parameters for call to function zclGetReadWriteCB
   \   000020   A9..         MOV       R1,?V0
   \   000022   12....       LCALL     `??zclGetReadWriteCB::?relay`; Banked call to: zclGetReadWriteCB
   \   000025   8A..         MOV       ?V2,R2
   \   000027   8B..         MOV       ?V3,R3
   3486                if ( pfnReadWriteCB != NULL )
   \   000029   EA           MOV       A,R2
   \   00002A   4B           ORL       A,R3
   \   00002B   6034         JZ        ??zclWriteAttrDataUsingCB_2
   3487                {
   3488                  // Write the attribute value
   3489                  status = (*pfnReadWriteCB)( pAttr->clusterID, pAttr->attr.attrId,
   3490                                              ZCL_OPER_WRITE, pAttrData, NULL );
   \   00002D                ; Setup parameters for indirect call
   \   00002D   E4           CLR       A
   \   00002E   F5..         MOV       ?V4,A
   \   000030   F5..         MOV       ?V5,A
   \   000032   78..         MOV       R0,#?V4
   \   000034   12....       LCALL     ?PUSH_XSTACK_I_TWO
   \   000037   7410         MOV       A,#0x10
   \   000039   12....       LCALL     ?XSTACK_DISP0_8
   \   00003C   12....       LCALL     ?PUSH_XSTACK8_X_TWO
   \   00003F   7902         MOV       R1,#0x2
   \   000041   8E82         MOV       DPL,R6
   \   000043   8F83         MOV       DPH,R7
   \   000045   12....       LCALL     ??Subroutine211_0 & 0xFFFF
   3491                }
   \                     ??CrossCallReturnLabel_476:
   \   000048   8E82         MOV       DPL,R6
   \   00004A   8F83         MOV       DPH,R7
   \   00004C   12....       LCALL     ??Subroutine208_0 & 0xFFFF
   \                     ??CrossCallReturnLabel_445:
   \   00004F   85..82       MOV       DPL,?V2
   \   000052   85..83       MOV       DPH,?V3
   \   000055   12....       LCALL     ?CALL_IND
   \   000058   7404         MOV       A,#0x4
   \   00005A   12....       LCALL     ?DEALLOC_XSTACK8
   \   00005D   E9           MOV       A,R1
   \   00005E   F9           MOV       R1,A
   \   00005F   8006         SJMP      ??zclWriteAttrDataUsingCB_1
   3492                else
   3493                {
   3494                  status = ZCL_STATUS_SOFTWARE_FAILURE;
   \                     ??zclWriteAttrDataUsingCB_2:
   \   000061   79C1         MOV       R1,#-0x3f
   \   000063   8002         SJMP      ??zclWriteAttrDataUsingCB_1
   3495                }
   3496              }
   3497            }
   3498            else
   3499            {
   3500              status = ZCL_STATUS_READ_ONLY;
   \                     ??zclWriteAttrDataUsingCB_0:
   \   000065   7988         MOV       R1,#-0x78
   3501            }
   3502          
   3503            return ( status );
   \                     ??zclWriteAttrDataUsingCB_1:
   \   000067                REQUIRE ?Subroutine4
   \   000067                ; // Fall through to label ?Subroutine4
   3504          }
   3505          
   3506          /*********************************************************************
   3507           * @fn      zclAuthorizeWrite
   3508           *
   3509           * @brief   Use application's callback to authorize a Write operation
   3510           *          on a given attribute.
   3511           *
   3512           * @param   endpoint - application's endpoint
   3513           * @param   srcAddr - source Address
   3514           * @param   pAttr - pointer to attribute
   3515           *
   3516           * @return  ZCL_STATUS_SUCCESS: Operation authorized
   3517           *          ZCL_STATUS_NOT_AUTHORIZED: Operation not authorized
   3518           */

   \                                 In  segment BANKED_CODE, align 1, keep-with-next
   3519          static ZStatus_t zclAuthorizeWrite( uint8 endpoint, afAddrType_t *srcAddr, zclAttrRec_t *pAttr )
   \                     zclAuthorizeWrite:
   3520          {
   \   000000                REQUIRE ?V0
   \   000000                REQUIRE ?V1
   \   000000                REQUIRE ?V2
   \   000000                REQUIRE ?V4
   \   000000                REQUIRE ?V5
   \   000000   74F2         MOV       A,#-0xe
   \   000002   12....       LCALL     ?BANKED_ENTER_XDATA
   \   000005                ; Saved register size: 14
   \   000005                ; Auto size: 0
   \   000005   EA           MOV       A,R2
   \   000006   FE           MOV       R6,A
   \   000007   EB           MOV       A,R3
   \   000008   FF           MOV       R7,A
   \   000009   8C..         MOV       ?V0,R4
   \   00000B   8D..         MOV       ?V1,R5
   3521            if ( zcl_AccessCtrlAuthWrite( pAttr->attr.accessControl ) )
   \   00000D   8C82         MOV       DPL,R4
   \   00000F   8D83         MOV       DPH,R5
   \   000011   A3           INC       DPTR
   \   000012   A3           INC       DPTR
   \   000013   A3           INC       DPTR
   \   000014   A3           INC       DPTR
   \   000015   A3           INC       DPTR
   \   000016   E0           MOVX      A,@DPTR
   \   000017   A2E5         MOV       C,0xE0 /* A   */.5
   \   000019   5014         JNC       ??zclAuthorizeWrite_0
   3522            {
   3523              zclAuthorizeCB_t pfnAuthorizeCB = zclGetAuthorizeCB( endpoint );
   \   00001B                ; Setup parameters for call to function zclGetAuthorizeCB
   \   00001B   12....       LCALL     ?Subroutine141 & 0xFFFF
   3524          
   3525              if ( pfnAuthorizeCB != NULL )
   \                     ??CrossCallReturnLabel_241:
   \   00001E   600F         JZ        ??zclAuthorizeWrite_0
   3526              {
   3527                return ( (*pfnAuthorizeCB)( srcAddr, pAttr, ZCL_OPER_WRITE ) );
   \   000020                ; Setup parameters for indirect call
   \   000020   7902         MOV       R1,#0x2
   \   000022   AC..         MOV       R4,?V0
   \   000024   AD..         MOV       R5,?V1
   \   000026   EE           MOV       A,R6
   \   000027   FA           MOV       R2,A
   \   000028   EF           MOV       A,R7
   \   000029   FB           MOV       R3,A
   \   00002A   12....       LCALL     ?CALL_IND
   \   00002D   8002         SJMP      ??zclAuthorizeWrite_1
   3528              }
   3529            }
   3530          
   3531            return ( ZCL_STATUS_SUCCESS );
   \                     ??zclAuthorizeWrite_0:
   \   00002F   7900         MOV       R1,#0x0
   \                     ??zclAuthorizeWrite_1:
   \   000031   80..         SJMP      ?Subroutine4
   3532          }

   \                                 In  segment BANKED_CODE, align 1, keep-with-next
   \                     ?Subroutine141:
   \   000000   12....       LCALL     `??zclGetAuthorizeCB::?relay`; Banked call to: zclGetAuthorizeCB
   \   000003   8A82         MOV       DPL,R2
   \   000005   8B83         MOV       DPH,R3
   \   000007   E582         MOV       A,DPL
   \   000009   4583         ORL       A,DPH
   \   00000B   22           RET
   3533          #endif // ZCL_WRITE
   3534          
   3535          #ifdef ZCL_READ
   3536          /*********************************************************************
   3537           * @fn      zclParseInReadCmd
   3538           *
   3539           * @brief   Parse the "Profile" Read Commands
   3540           *
   3541           *      NOTE: THIS FUNCTION ALLOCATES THE RETURN BUFFER, SO THE CALLING
   3542           *            FUNCTION IS RESPONSIBLE TO FREE THE MEMORY.
   3543           *
   3544           * @param   pCmd - pointer to incoming data to parse
   3545           *
   3546           * @return  pointer to the parsed command structure
   3547           */

   \                                 In  segment BANKED_CODE, align 1, keep-with-next
   3548          void *zclParseInReadCmd( zclParseCmd_t *pCmd )
   \                     zclParseInReadCmd:
   3549          {
   \   000000                REQUIRE ?V0
   \   000000                REQUIRE ?V1
   \   000000                REQUIRE ?V2
   \   000000                REQUIRE ?V3
   \   000000   74F4         MOV       A,#-0xc
   \   000002   12....       LCALL     ?BANKED_ENTER_XDATA
   \   000005                ; Saved register size: 12
   \   000005                ; Auto size: 0
   3550            zclReadCmd_t *readCmd;
   3551            uint8 *pBuf = pCmd->pData;
   \   000005   12....       LCALL     ?Subroutine88 & 0xFFFF
   3552          
   3553            readCmd = (zclReadCmd_t *)zcl_mem_alloc( sizeof ( zclReadCmd_t ) + pCmd->dataLen );
   \                     ??CrossCallReturnLabel_144:
   \   000008   12....       LCALL     ?Subroutine71 & 0xFFFF
   3554            if ( readCmd != NULL )
   \                     ??CrossCallReturnLabel_112:
   \   00000B   6054         JZ        ??zclParseInReadCmd_0
   3555            {
   3556              uint8 i;
   3557              readCmd->numAttr = pCmd->dataLen / 2; // Atrribute ID
   \   00000D   85..82       MOV       DPL,?V0
   \   000010   85..83       MOV       DPH,?V1
   \   000013   12....       LCALL     ?Subroutine176 & 0xFFFF
   \                     ??CrossCallReturnLabel_429:
   \   000016   C3           CLR       C
   \   000017   13           RRC       A
   \   000018   E8           MOV       A,R0
   \   000019   13           RRC       A
   \   00001A   8A82         MOV       DPL,R2
   \   00001C   8B83         MOV       DPH,R3
   \   00001E   F0           MOVX      @DPTR,A
   3558              for ( i = 0; i < readCmd->numAttr; i++ )
   \   00001F   7C00         MOV       R4,#0x0
   \   000021   8033         SJMP      ??zclParseInReadCmd_1
   3559              {
   3560                readCmd->attrID[i] = BUILD_UINT16( pBuf[0], pBuf[1] );
   \                     ??zclParseInReadCmd_2:
   \   000023   8E82         MOV       DPL,R6
   \   000025   8F83         MOV       DPH,R7
   \   000027   E0           MOVX      A,@DPTR
   \   000028   F5..         MOV       ?V0,A
   \   00002A   A3           INC       DPTR
   \   00002B   E0           MOVX      A,@DPTR
   \   00002C   F8           MOV       R0,A
   \   00002D   E4           CLR       A
   \   00002E   C8           XCH       A,R0
   \   00002F   F9           MOV       R1,A
   \   000030   E5..         MOV       A,?V0
   \   000032   28           ADD       A,R0
   \   000033   E4           CLR       A
   \   000034   39           ADDC      A,R1
   \   000035   F5..         MOV       ?V1,A
   \   000037   EC           MOV       A,R4
   \   000038   25E0         ADD       A,0xE0 /* A   */
   \   00003A   F8           MOV       R0,A
   \   00003B   E4           CLR       A
   \   00003C   33           RLC       A
   \   00003D   F9           MOV       R1,A
   \   00003E   EA           MOV       A,R2
   \   00003F   28           ADD       A,R0
   \   000040   F582         MOV       DPL,A
   \   000042   EB           MOV       A,R3
   \   000043   39           ADDC      A,R1
   \   000044   F583         MOV       DPH,A
   \   000046   A3           INC       DPTR
   \   000047   E5..         MOV       A,?V0
   \   000049   F0           MOVX      @DPTR,A
   \   00004A   A3           INC       DPTR
   \   00004B   E5..         MOV       A,?V1
   \   00004D   F0           MOVX      @DPTR,A
   3561                pBuf += 2;
   \   00004E   EE           MOV       A,R6
   \   00004F   2402         ADD       A,#0x2
   \   000051   FE           MOV       R6,A
   \   000052   5001         JNC       ??zclParseInReadCmd_3
   \   000054   0F           INC       R7
   3562              }
   \                     ??zclParseInReadCmd_3:
   \   000055   0C           INC       R4
   \                     ??zclParseInReadCmd_1:
   \   000056   8A82         MOV       DPL,R2
   \   000058   8B83         MOV       DPH,R3
   \   00005A   E0           MOVX      A,@DPTR
   \   00005B   F8           MOV       R0,A
   \   00005C   EC           MOV       A,R4
   \   00005D   C3           CLR       C
   \   00005E   98           SUBB      A,R0
   \   00005F   40C2         JC        ??zclParseInReadCmd_2
   3563            }
   3564          
   3565            return ( (void *)readCmd );
   \                     ??zclParseInReadCmd_0:
   \   000061   02....       LJMP      ??Subroutine180_0 & 0xFFFF
   3566          }

   \                                 In  segment BANKED_CODE, align 1, keep-with-next
   \                     ?Subroutine71:
   \   000000   8A82         MOV       DPL,R2
   \   000002   8B83         MOV       DPH,R3
   \   000004   A3           INC       DPTR
   \   000005   8582..       MOV       ?V0,DPL
   \   000008   8583..       MOV       ?V1,DPH
   \   00000B                ; Setup parameters for call to function osal_mem_alloc
   \   00000B                ; Setup parameters for call to function osal_mem_alloc
   \   00000B   E0           MOVX      A,@DPTR
   \   00000C   2401         ADD       A,#0x1
   \   00000E   FA           MOV       R2,A
   \   00000F   A3           INC       DPTR
   \   000010   E0           MOVX      A,@DPTR
   \   000011   3400         ADDC      A,#0x0
   \   000013   FB           MOV       R3,A
   \   000014   12....       LCALL     `??osal_mem_alloc::?relay`; Banked call to: osal_mem_alloc
   \   000017   EA           MOV       A,R2
   \   000018   4B           ORL       A,R3
   \   000019   22           RET

   \                                 In  segment BANKED_CODE, align 1, keep-with-next
   \                     ?Subroutine88:
   \   000000   12....       LCALL     ?Subroutine164 & 0xFFFF
   \                     ??CrossCallReturnLabel_280:
   \   000003   22           RET

   \                                 In  segment BANKED_CODE, align 1, keep-with-next
   \                     ?Subroutine164:
   \   000000   8A82         MOV       DPL,R2
   \   000002   8B83         MOV       DPH,R3
   \   000004   A3           INC       DPTR
   \   000005   A3           INC       DPTR
   \   000006   A3           INC       DPTR
   \   000007   12....       LCALL     ?Subroutine176 & 0xFFFF
   \                     ??CrossCallReturnLabel_434:
   \   00000A   F9           MOV       R1,A
   \   00000B   E8           MOV       A,R0
   \   00000C   FE           MOV       R6,A
   \   00000D   E9           MOV       A,R1
   \   00000E   FF           MOV       R7,A
   \   00000F   22           RET
   3567          
   3568          /*********************************************************************
   3569           * @fn      zclParseInReadRspCmd
   3570           *
   3571           * @brief   Parse the "Profile" Read Response Commands
   3572           *
   3573           *      NOTE: THIS FUNCTION ALLOCATES THE RETURN BUFFER, SO THE CALLING
   3574           *            FUNCTION IS RESPONSIBLE TO FREE THE MEMORY.
   3575           *
   3576           * @param   pCmd - pointer to incoming data to parse
   3577           *
   3578           * @return  pointer to the parsed command structure
   3579           */

   \                                 In  segment BANKED_CODE, align 1, keep-with-next
   \                     ?Subroutine7:
   \   000000   AA..         MOV       R2,?V10
   \   000002   AB..         MOV       R3,?V11
   \   000004                REQUIRE ??Subroutine186_0
   \   000004                ; // Fall through to label ??Subroutine186_0

   \                                 In  segment BANKED_CODE, align 1, keep-with-next
   3580          static void *zclParseInReadRspCmd( zclParseCmd_t *pCmd )
   \                     zclParseInReadRspCmd:
   3581          {
   \   000000                REQUIRE ?V0
   \   000000                REQUIRE ?V1
   \   000000                REQUIRE ?V2
   \   000000                REQUIRE ?V3
   \   000000                REQUIRE ?V4
   \   000000                REQUIRE ?V5
   \   000000                REQUIRE ?V6
   \   000000                REQUIRE ?V7
   \   000000                REQUIRE ?V8
   \   000000                REQUIRE ?V9
   \   000000                REQUIRE ?V10
   \   000000                REQUIRE ?V11
   \   000000                REQUIRE ?V12
   \   000000                REQUIRE ?V13
   \   000000   74EA         MOV       A,#-0x16
   \   000002   12....       LCALL     ?BANKED_ENTER_XDATA
   \   000005                ; Saved register size: 22
   \   000005                ; Auto size: 0
   \   000005   8A..         MOV       ?V8,R2
   \   000007   8B..         MOV       ?V9,R3
   3582            zclReadRspCmd_t *readRspCmd;
   3583            uint8 *pBuf = pCmd->pData;
   \   000009   EA           MOV       A,R2
   \   00000A   2403         ADD       A,#0x3
   \   00000C   F5..         MOV       ?V4,A
   \   00000E   E4           CLR       A
   \   00000F   35..         ADDC      A,?V9
   \   000011   F5..         MOV       ?V5,A
   \   000013   85..82       MOV       DPL,?V4
   \   000016   F583         MOV       DPH,A
   \   000018   12....       LCALL     ??Subroutine209_0 & 0xFFFF
   3584            uint8 *dataPtr;
   3585            uint8 numAttr = 0;
   \                     ??CrossCallReturnLabel_456:
   \   00001B   75..00       MOV       ?V2,#0x0
   3586            uint8 hdrLen;
   3587            uint16 dataLen = 0;
   \   00001E   75..00       MOV       ?V6,#0x0
   \   000021   75..00       MOV       ?V7,#0x0
   \   000024   8049         SJMP      ??zclParseInReadRspCmd_0
   3588            uint16 attrDataLen;
   3589          
   3590            // find out the number of attributes and the length of attribute data
   3591            while ( pBuf < ( pCmd->pData + pCmd->dataLen ) )
   3592            {
   3593              uint8 status;
   3594          
   3595              numAttr++;
   \                     ??zclParseInReadRspCmd_1:
   \   000026   05..         INC       ?V2
   3596              pBuf += 2; // move pass attribute id
   3597          
   3598              status = *pBuf++;
   \   000028   8E82         MOV       DPL,R6
   \   00002A   8F83         MOV       DPH,R7
   \   00002C   A3           INC       DPTR
   \   00002D   A3           INC       DPTR
   \   00002E   E0           MOVX      A,@DPTR
   \   00002F   F8           MOV       R0,A
   \   000030   EE           MOV       A,R6
   \   000031   2403         ADD       A,#0x3
   \   000033   FE           MOV       R6,A
   \   000034   5001         JNC       ??zclParseInReadRspCmd_2
   \   000036   0F           INC       R7
   3599              if ( status == ZCL_STATUS_SUCCESS )
   \                     ??zclParseInReadRspCmd_2:
   \   000037   E8           MOV       A,R0
   \   000038   7035         JNZ       ??zclParseInReadRspCmd_0
   3600              {
   3601                uint8 dataType = *pBuf++;
   \   00003A   8E82         MOV       DPL,R6
   \   00003C   8F83         MOV       DPH,R7
   \   00003E   E0           MOVX      A,@DPTR
   \   00003F   F9           MOV       R1,A
   \   000040   A3           INC       DPTR
   \   000041   AE82         MOV       R6,DPL
   \   000043   AF83         MOV       R7,DPH
   3602          
   3603                attrDataLen = zclGetAttrDataLength( dataType, pBuf );
   \   000045                ; Setup parameters for call to function zclGetAttrDataLength
   \   000045   EE           MOV       A,R6
   \   000046   FA           MOV       R2,A
   \   000047   EF           MOV       A,R7
   \   000048   FB           MOV       R3,A
   \   000049   12....       LCALL     `??zclGetAttrDataLength::?relay`; Banked call to: zclGetAttrDataLength
   \   00004C   8A..         MOV       ?V0,R2
   \   00004E   8B..         MOV       ?V1,R3
   3604                pBuf += attrDataLen; // move pass attribute data
   \   000050   EE           MOV       A,R6
   \   000051   2A           ADD       A,R2
   \   000052   FE           MOV       R6,A
   \   000053   EF           MOV       A,R7
   \   000054   35..         ADDC      A,?V1
   \   000056   FF           MOV       R7,A
   3605          
   3606                // add padding if needed
   3607                if ( PADDING_NEEDED( attrDataLen ) )
   \   000057   EA           MOV       A,R2
   \   000058   A2E0         MOV       C,0xE0 /* A   */.0
   \   00005A   5007         JNC       ??zclParseInReadRspCmd_3
   3608                {
   3609                  attrDataLen++;
   \   00005C   05..         INC       ?V0
   \   00005E   04           INC       A
   \   00005F   7002         JNZ       ??zclParseInReadRspCmd_3
   \   000061   05..         INC       ?V1
   3610                }
   3611          
   3612                dataLen += attrDataLen;
   \                     ??zclParseInReadRspCmd_3:
   \   000063   E5..         MOV       A,?V6
   \   000065   25..         ADD       A,?V0
   \   000067   F5..         MOV       ?V6,A
   \   000069   E5..         MOV       A,?V7
   \   00006B   35..         ADDC      A,?V1
   \   00006D   F5..         MOV       ?V7,A
   3613              }
   3614            }
   \                     ??zclParseInReadRspCmd_0:
   \   00006F   85..82       MOV       DPL,?V8
   \   000072   85..83       MOV       DPH,?V9
   \   000075   A3           INC       DPTR
   \   000076   12....       LCALL     ?Subroutine58 & 0xFFFF
   \                     ??CrossCallReturnLabel_75:
   \   000079   12....       LCALL     ?Subroutine168 & 0xFFFF
   \                     ??CrossCallReturnLabel_285:
   \   00007C   EE           MOV       A,R6
   \   00007D   98           SUBB      A,R0
   \   00007E   EF           MOV       A,R7
   \   00007F   99           SUBB      A,R1
   \   000080   40A4         JC        ??zclParseInReadRspCmd_1
   3615          
   3616            // calculate the length of the response header
   3617            hdrLen = sizeof( zclReadRspCmd_t ) + ( numAttr * sizeof( zclReadRspStatus_t ) );
   \   000082   75F006       MOV       B,#0x6
   \   000085   E5..         MOV       A,?V2
   \   000087   A4           MUL       AB
   \   000088   04           INC       A
   \   000089   F5..         MOV       ?V0,A
   3618          
   3619            readRspCmd = (zclReadRspCmd_t *)zcl_mem_alloc( hdrLen + dataLen );
   \   00008B                ; Setup parameters for call to function osal_mem_alloc
   \   00008B   25..         ADD       A,?V6
   \   00008D   FA           MOV       R2,A
   \   00008E   E4           CLR       A
   \   00008F   35..         ADDC      A,?V7
   \   000091   12....       LCALL     ?Subroutine118 & 0xFFFF
   3620            if ( readRspCmd != NULL )
   \                     ??CrossCallReturnLabel_207:
   \   000094   7003         JNZ       $+5
   \   000096   02....       LJMP      ??zclParseInReadRspCmd_4 & 0xFFFF
   3621            {
   3622              uint8 i;
   3623              pBuf = pCmd->pData;
   \   000099   12....       LCALL     ?Subroutine75 & 0xFFFF
   3624              dataPtr = (uint8 *)( (uint8 *)readRspCmd + hdrLen );
   \                     ??CrossCallReturnLabel_462:
   \   00009C   A8..         MOV       R0,?V0
   \   00009E   EA           MOV       A,R2
   \   00009F   28           ADD       A,R0
   \   0000A0   F5..         MOV       ?V8,A
   \   0000A2   E4           CLR       A
   \   0000A3   3B           ADDC      A,R3
   \   0000A4   F5..         MOV       ?V9,A
   3625          
   3626              readRspCmd->numAttr = numAttr;
   \   0000A6   8A82         MOV       DPL,R2
   \   0000A8   8B83         MOV       DPH,R3
   \   0000AA   E5..         MOV       A,?V2
   \   0000AC   F0           MOVX      @DPTR,A
   3627              for ( i = 0; i < numAttr; i++ )
   \   0000AD   75..00       MOV       ?V3,#0x0
   \   0000B0   02....       LJMP      ??zclParseInReadRspCmd_5 & 0xFFFF
   3628              {
   3629                zclReadRspStatus_t *statusRec = &(readRspCmd->attrList[i]);
   \                     ??zclParseInReadRspCmd_6:
   \   0000B3   E5..         MOV       A,?V3
   \   0000B5   75F006       MOV       B,#0x6
   \   0000B8   12....       LCALL     ?Subroutine130 & 0xFFFF
   3630          
   3631                statusRec->attrID = BUILD_UINT16( pBuf[0], pBuf[1] );
   \                     ??CrossCallReturnLabel_223:
   \   0000BB   8E82         MOV       DPL,R6
   \   0000BD   8F83         MOV       DPH,R7
   \   0000BF   12....       LCALL     ?Subroutine78 & 0xFFFF
   \                     ??CrossCallReturnLabel_122:
   \   0000C2   12....       LCALL     ?Subroutine27 & 0xFFFF
   3632                pBuf += 2;
   3633          
   3634                statusRec->status = *pBuf++;
   \                     ??CrossCallReturnLabel_31:
   \   0000C5   F8           MOV       R0,A
   \   0000C6   85..82       MOV       DPL,?V12
   \   0000C9   85..83       MOV       DPH,?V13
   \   0000CC   A3           INC       DPTR
   \   0000CD   A3           INC       DPTR
   \   0000CE   F0           MOVX      @DPTR,A
   \   0000CF   EE           MOV       A,R6
   \   0000D0   2403         ADD       A,#0x3
   \   0000D2   FE           MOV       R6,A
   \   0000D3   5001         JNC       ??zclParseInReadRspCmd_7
   \   0000D5   0F           INC       R7
   3635                if ( statusRec->status == ZCL_STATUS_SUCCESS )
   \                     ??zclParseInReadRspCmd_7:
   \   0000D6   E8           MOV       A,R0
   \   0000D7   7061         JNZ       ??zclParseInReadRspCmd_8
   3636                {
   3637                  statusRec->dataType = *pBuf++;
   \   0000D9   8E82         MOV       DPL,R6
   \   0000DB   8F83         MOV       DPH,R7
   \   0000DD   12....       LCALL     ?Subroutine84 & 0xFFFF
   \                     ??CrossCallReturnLabel_136:
   \   0000E0   12....       LCALL     ?Subroutine15 & 0xFFFF
   3638          
   3639                  attrDataLen = zclGetAttrDataLength( statusRec->dataType, pBuf );
   \                     ??CrossCallReturnLabel_377:
   \   0000E3                ; Setup parameters for call to function zclGetAttrDataLength
   \   0000E3   EE           MOV       A,R6
   \   0000E4   FA           MOV       R2,A
   \   0000E5   EF           MOV       A,R7
   \   0000E6   FB           MOV       R3,A
   \   0000E7   12....       LCALL     `??zclGetAttrDataLength::?relay`; Banked call to: zclGetAttrDataLength
   \   0000EA   8A..         MOV       ?V0,R2
   \   0000EC   8B..         MOV       ?V1,R3
   3640                  zcl_memcpy( dataPtr, pBuf, attrDataLen);
   \   0000EE                ; Setup parameters for call to function osal_memcpy
   \   0000EE   8E..         MOV       ?V4,R6
   \   0000F0   8F..         MOV       ?V5,R7
   \   0000F2   75..00       MOV       ?V6,#0x0
   \   0000F5   78..         MOV       R0,#?V4
   \   0000F7   12....       LCALL     ?PUSH_XSTACK_I_THREE
   \   0000FA   AC..         MOV       R4,?V0
   \   0000FC   AD..         MOV       R5,?V1
   \   0000FE   AA..         MOV       R2,?V8
   \   000100   AB..         MOV       R3,?V9
   \   000102   12....       LCALL     ??Subroutine200_0 & 0xFFFF
   \                     ??CrossCallReturnLabel_386:
   \   000105   12....       LCALL     ?DEALLOC_XSTACK8
   3641                  statusRec->data = dataPtr;
   \   000108   85..82       MOV       DPL,?V12
   \   00010B   85..83       MOV       DPH,?V13
   \   00010E   A3           INC       DPTR
   \   00010F   A3           INC       DPTR
   \   000110   A3           INC       DPTR
   \   000111   A3           INC       DPTR
   \   000112   E5..         MOV       A,?V8
   \   000114   F0           MOVX      @DPTR,A
   \   000115   A3           INC       DPTR
   \   000116   E5..         MOV       A,?V9
   \   000118   F0           MOVX      @DPTR,A
   3642          
   3643                  pBuf += attrDataLen; // move pass attribute data
   \   000119   EE           MOV       A,R6
   \   00011A   25..         ADD       A,?V0
   \   00011C   FE           MOV       R6,A
   \   00011D   EF           MOV       A,R7
   \   00011E   35..         ADDC      A,?V1
   \   000120   FF           MOV       R7,A
   3644          
   3645                  // advance attribute data pointer
   3646                  if ( PADDING_NEEDED( attrDataLen ) )
   \   000121   E5..         MOV       A,?V0
   \   000123   A2E0         MOV       C,0xE0 /* A   */.0
   \   000125   5007         JNC       ??zclParseInReadRspCmd_9
   3647                  {
   3648                    attrDataLen++;
   \   000127   05..         INC       ?V0
   \   000129   04           INC       A
   \   00012A   7002         JNZ       ??zclParseInReadRspCmd_9
   \   00012C   05..         INC       ?V1
   3649                  }
   3650          
   3651                  dataPtr += attrDataLen;
   \                     ??zclParseInReadRspCmd_9:
   \   00012E   E5..         MOV       A,?V8
   \   000130   25..         ADD       A,?V0
   \   000132   F5..         MOV       ?V8,A
   \   000134   E5..         MOV       A,?V9
   \   000136   35..         ADDC      A,?V1
   \   000138   F5..         MOV       ?V9,A
   3652                }
   3653              }
   \                     ??zclParseInReadRspCmd_8:
   \   00013A   05..         INC       ?V3
   \                     ??zclParseInReadRspCmd_5:
   \   00013C   E5..         MOV       A,?V3
   \   00013E   C3           CLR       C
   \   00013F   95..         SUBB      A,?V2
   \   000141   5003         JNC       $+5
   \   000143   02....       LJMP      ??zclParseInReadRspCmd_6 & 0xFFFF
   3654            }
   3655          
   3656            return ( (void *)readRspCmd );
   \                     ??zclParseInReadRspCmd_4:
   \   000146   02....       LJMP      ?Subroutine7 & 0xFFFF
   3657          }

   \                                 In  segment BANKED_CODE, align 1, keep-with-next
   \                     ?Subroutine15:
   \   000000   A3           INC       DPTR
   \   000001                REQUIRE ??Subroutine199_0
   \   000001                ; // Fall through to label ??Subroutine199_0

   \                                 In  segment BANKED_CODE, align 1, keep-with-next
   \                     ?Subroutine130:
   \   000000   A4           MUL       AB
   \   000001   F8           MOV       R0,A
   \   000002   A9F0         MOV       R1,B
   \   000004   E5..         MOV       A,?V10
   \   000006   28           ADD       A,R0
   \   000007   F582         MOV       DPL,A
   \   000009   E5..         MOV       A,?V11
   \   00000B   39           ADDC      A,R1
   \   00000C   F583         MOV       DPH,A
   \   00000E   A3           INC       DPTR
   \   00000F   8582..       MOV       ?V12,DPL
   \   000012   8583..       MOV       ?V13,DPH
   \   000015   22           RET

   \                                 In  segment BANKED_CODE, align 1, keep-with-next
   \                     ?Subroutine118:
   \   000000   FB           MOV       R3,A
   \   000001   12....       LCALL     `??osal_mem_alloc::?relay`; Banked call to: osal_mem_alloc
   \   000004   8A..         MOV       ?V10,R2
   \   000006   8B..         MOV       ?V11,R3
   \   000008   EA           MOV       A,R2
   \   000009   4B           ORL       A,R3
   \   00000A   22           RET

   \                                 In  segment BANKED_CODE, align 1, keep-with-next
   \                     ?Subroutine84:
   \   000000   E0           MOVX      A,@DPTR
   \   000001   F9           MOV       R1,A
   \   000002   85..82       MOV       DPL,?V12
   \   000005   85..83       MOV       DPH,?V13
   \   000008   A3           INC       DPTR
   \   000009   A3           INC       DPTR
   \   00000A   22           RET

   \                                 In  segment BANKED_CODE, align 1, keep-with-next
   \                     ?Subroutine78:
   \   000000   E0           MOVX      A,@DPTR
   \   000001   FA           MOV       R2,A
   \   000002   A3           INC       DPTR
   \   000003   E0           MOVX      A,@DPTR
   \   000004   F9           MOV       R1,A
   \   000005   EA           MOV       A,R2
   \   000006   85..82       MOV       DPL,?V12
   \   000009   85..83       MOV       DPH,?V13
   \   00000C   22           RET

   \                                 In  segment BANKED_CODE, align 1, keep-with-next
   \                     ?Subroutine168:
   \   000000   E0           MOVX      A,@DPTR
   \   000001   28           ADD       A,R0
   \   000002   F8           MOV       R0,A
   \   000003   A3           INC       DPTR
   \   000004   E0           MOVX      A,@DPTR
   \   000005   39           ADDC      A,R1
   \   000006   F9           MOV       R1,A
   \   000007   C3           CLR       C
   \   000008   22           RET

   \                                 In  segment BANKED_CODE, align 1, keep-with-next
   \                     ?Subroutine27:
   \   000000   F0           MOVX      @DPTR,A
   \   000001   A3           INC       DPTR
   \   000002   E9           MOV       A,R1
   \   000003   12....       LCALL     ?Subroutine147 & 0xFFFF
   \                     ??CrossCallReturnLabel_251:
   \   000006   22           RET

   \                                 In  segment BANKED_CODE, align 1, keep-with-next
   \                     ?Subroutine147:
   \   000000   F0           MOVX      @DPTR,A
   \   000001   8E82         MOV       DPL,R6
   \   000003   8F83         MOV       DPH,R7
   \   000005   A3           INC       DPTR
   \   000006   A3           INC       DPTR
   \   000007   E0           MOVX      A,@DPTR
   \   000008   22           RET

   \                                 In  segment BANKED_CODE, align 1, keep-with-next
   \                     ?Subroutine58:
   \   000000   12....       LCALL     ?Subroutine165 & 0xFFFF
   \                     ??CrossCallReturnLabel_424:
   \   000003   85..82       MOV       DPL,?V4
   \   000006   85..83       MOV       DPH,?V5
   \   000009   22           RET

   \                                 In  segment BANKED_CODE, align 1, keep-with-next
   \                     ?Subroutine75:
   \   000000   85..82       MOV       DPL,?V4
   \   000003   85..83       MOV       DPH,?V5
   \   000006                REQUIRE ??Subroutine209_0
   \   000006                ; // Fall through to label ??Subroutine209_0

   \                                 In  segment BANKED_CODE, align 1, keep-with-next
   \                     ??Subroutine209_0:
   \   000000   E0           MOVX      A,@DPTR
   \   000001   FE           MOV       R6,A
   \   000002   A3           INC       DPTR
   \   000003   E0           MOVX      A,@DPTR
   \   000004   FF           MOV       R7,A
   \   000005   22           RET
   3658          #endif // ZCL_READ
   3659          
   3660          #ifdef ZCL_WRITE
   3661          /*********************************************************************
   3662           * @fn      zclParseInWriteCmd
   3663           *
   3664           * @brief   Parse the "Profile" Write, Write Undivided and Write No
   3665           *          Response Commands
   3666           *
   3667           *      NOTE: THIS FUNCTION ALLOCATES THE RETURN BUFFER, SO THE CALLING
   3668           *            FUNCTION IS RESPONSIBLE TO FREE THE MEMORY.
   3669           *
   3670           * @param   pCmd - pointer to incoming data to parse
   3671           *
   3672           * @return  pointer to the parsed command structure
   3673           */

   \                                 In  segment BANKED_CODE, align 1, keep-with-next
   3674          void *zclParseInWriteCmd( zclParseCmd_t *pCmd )
   \                     zclParseInWriteCmd:
   3675          {
   \   000000                REQUIRE ?V0
   \   000000                REQUIRE ?V1
   \   000000                REQUIRE ?V2
   \   000000                REQUIRE ?V3
   \   000000                REQUIRE ?V4
   \   000000                REQUIRE ?V5
   \   000000                REQUIRE ?V6
   \   000000                REQUIRE ?V7
   \   000000                REQUIRE ?V8
   \   000000                REQUIRE ?V9
   \   000000                REQUIRE ?V10
   \   000000                REQUIRE ?V11
   \   000000                REQUIRE ?V12
   \   000000                REQUIRE ?V13
   \   000000   74EA         MOV       A,#-0x16
   \   000002   12....       LCALL     ?BANKED_ENTER_XDATA
   \   000005                ; Saved register size: 22
   \   000005                ; Auto size: 0
   \   000005   8A..         MOV       ?V8,R2
   \   000007   8B..         MOV       ?V9,R3
   3676            zclWriteCmd_t *writeCmd;
   3677            uint8 *pBuf = pCmd->pData;
   \   000009   EA           MOV       A,R2
   \   00000A   2403         ADD       A,#0x3
   \   00000C   F5..         MOV       ?V2,A
   \   00000E   E4           CLR       A
   \   00000F   35..         ADDC      A,?V9
   \   000011   F5..         MOV       ?V3,A
   \   000013   85..82       MOV       DPL,?V2
   \   000016   12....       LCALL     ?Subroutine67 & 0xFFFF
   3678            uint16 attrDataLen;
   3679            uint8 *dataPtr;
   3680            uint8 numAttr = 0;
   \                     ??CrossCallReturnLabel_391:
   \   000019   75..00       MOV       ?V7,#0x0
   3681            uint8 hdrLen;
   3682            uint16 dataLen = 0;
   \   00001C   75..00       MOV       ?V4,#0x0
   \   00001F   75..00       MOV       ?V5,#0x0
   \   000022   8042         SJMP      ??zclParseInWriteCmd_0
   3683          
   3684            // find out the number of attributes and the length of attribute data
   3685            while ( pBuf < ( pCmd->pData + pCmd->dataLen ) )
   3686            {
   3687              uint8 dataType;
   3688          
   3689              numAttr++;
   \                     ??zclParseInWriteCmd_1:
   \   000024   05..         INC       ?V7
   3690              pBuf += 2; // move pass attribute id
   3691          
   3692              dataType = *pBuf++;
   \   000026   85..82       MOV       DPL,?V0
   \   000029   85..83       MOV       DPH,?V1
   \   00002C   A3           INC       DPTR
   \   00002D   A3           INC       DPTR
   \   00002E   E0           MOVX      A,@DPTR
   \   00002F   F9           MOV       R1,A
   \   000030   E5..         MOV       A,?V0
   \   000032   2403         ADD       A,#0x3
   \   000034   F5..         MOV       ?V0,A
   \   000036   5002         JNC       ??zclParseInWriteCmd_2
   \   000038   05..         INC       ?V1
   3693          
   3694              attrDataLen = zclGetAttrDataLength( dataType, pBuf );
   \                     ??zclParseInWriteCmd_2:
   \   00003A                ; Setup parameters for call to function zclGetAttrDataLength
   \   00003A   FA           MOV       R2,A
   \   00003B   AB..         MOV       R3,?V1
   \   00003D   12....       LCALL     `??zclGetAttrDataLength::?relay`; Banked call to: zclGetAttrDataLength
   \   000040   8A..         MOV       ?V10,R2
   \   000042   8B..         MOV       ?V11,R3
   \   000044   AE..         MOV       R6,?V10
   \   000046   AF..         MOV       R7,?V11
   3695              pBuf += attrDataLen; // move pass attribute data
   \   000048   E5..         MOV       A,?V0
   \   00004A   2A           ADD       A,R2
   \   00004B   F5..         MOV       ?V0,A
   \   00004D   E5..         MOV       A,?V1
   \   00004F   3F           ADDC      A,R7
   \   000050   F5..         MOV       ?V1,A
   3696          
   3697              // add padding if needed
   3698              if ( PADDING_NEEDED( attrDataLen ) )
   \   000052   EA           MOV       A,R2
   \   000053   A2E0         MOV       C,0xE0 /* A   */.0
   \   000055   5005         JNC       ??zclParseInWriteCmd_3
   3699              {
   3700                attrDataLen++;
   \   000057   0E           INC       R6
   \   000058   04           INC       A
   \   000059   7001         JNZ       ??zclParseInWriteCmd_3
   \   00005B   0F           INC       R7
   3701              }
   3702          
   3703              dataLen += attrDataLen;
   \                     ??zclParseInWriteCmd_3:
   \   00005C   E5..         MOV       A,?V4
   \   00005E   2E           ADD       A,R6
   \   00005F   F5..         MOV       ?V4,A
   \   000061   E5..         MOV       A,?V5
   \   000063   3F           ADDC      A,R7
   \   000064   F5..         MOV       ?V5,A
   3704            }
   \                     ??zclParseInWriteCmd_0:
   \   000066   85..82       MOV       DPL,?V8
   \   000069   85..83       MOV       DPH,?V9
   \   00006C   A3           INC       DPTR
   \   00006D   12....       LCALL     ?Subroutine56 & 0xFFFF
   \                     ??CrossCallReturnLabel_73:
   \   000070   E5..         MOV       A,?V0
   \   000072   98           SUBB      A,R0
   \   000073   E5..         MOV       A,?V1
   \   000075   99           SUBB      A,R1
   \   000076   40AC         JC        ??zclParseInWriteCmd_1
   3705          
   3706            // calculate the length of the response header
   3707            hdrLen = sizeof( zclWriteCmd_t ) + ( numAttr * sizeof( zclWriteRec_t ) );
   \   000078   75F005       MOV       B,#0x5
   \   00007B   E5..         MOV       A,?V7
   \   00007D   A4           MUL       AB
   \   00007E   04           INC       A
   \   00007F   FE           MOV       R6,A
   3708          
   3709            writeCmd = (zclWriteCmd_t *)zcl_mem_alloc( hdrLen + dataLen );
   \   000080                ; Setup parameters for call to function osal_mem_alloc
   \   000080   25..         ADD       A,?V4
   \   000082   FA           MOV       R2,A
   \   000083   E4           CLR       A
   \   000084   35..         ADDC      A,?V5
   \   000086   12....       LCALL     ?Subroutine118 & 0xFFFF
   3710            if ( writeCmd != NULL )
   \                     ??CrossCallReturnLabel_208:
   \   000089   7003         JNZ       $+5
   \   00008B   02....       LJMP      ??zclParseInWriteCmd_4 & 0xFFFF
   3711            {
   3712              uint8 i;
   3713              pBuf = pCmd->pData;
   \   00008E   85..82       MOV       DPL,?V2
   \   000091   85..83       MOV       DPH,?V3
   \   000094   12....       LCALL     ??Subroutine201_0 & 0xFFFF
   3714              dataPtr = (uint8 *)( (uint8 *)writeCmd + hdrLen );
   \                     ??CrossCallReturnLabel_390:
   \   000097   EA           MOV       A,R2
   \   000098   2E           ADD       A,R6
   \   000099   F5..         MOV       ?V2,A
   \   00009B   E4           CLR       A
   \   00009C   3B           ADDC      A,R3
   \   00009D   F5..         MOV       ?V3,A
   3715          
   3716              writeCmd->numAttr = numAttr;
   \   00009F   8A82         MOV       DPL,R2
   \   0000A1   8B83         MOV       DPH,R3
   \   0000A3   E5..         MOV       A,?V7
   \   0000A5   F0           MOVX      @DPTR,A
   3717              for ( i = 0; i < numAttr; i++ )
   \   0000A6   75..00       MOV       ?V8,#0x0
   \   0000A9   02....       LJMP      ??zclParseInWriteCmd_5 & 0xFFFF
   3718              {
   3719                zclWriteRec_t *statusRec = &(writeCmd->attrList[i]);
   \                     ??zclParseInWriteCmd_6:
   \   0000AC   E5..         MOV       A,?V8
   \   0000AE   75F005       MOV       B,#0x5
   \   0000B1   12....       LCALL     ?Subroutine130 & 0xFFFF
   3720          
   3721                statusRec->attrID = BUILD_UINT16( pBuf[0], pBuf[1] );
   \                     ??CrossCallReturnLabel_224:
   \   0000B4   85..82       MOV       DPL,?V0
   \   0000B7   85..83       MOV       DPH,?V1
   \   0000BA   12....       LCALL     ?Subroutine78 & 0xFFFF
   \                     ??CrossCallReturnLabel_123:
   \   0000BD   12....       LCALL     ??Subroutine198_0 & 0xFFFF
   3722                pBuf += 2;
   3723                statusRec->dataType = *pBuf++;
   \                     ??CrossCallReturnLabel_364:
   \   0000C0   85..82       MOV       DPL,?V0
   \   0000C3   85..83       MOV       DPH,?V1
   \   0000C6   A3           INC       DPTR
   \   0000C7   A3           INC       DPTR
   \   0000C8   12....       LCALL     ?Subroutine84 & 0xFFFF
   \                     ??CrossCallReturnLabel_137:
   \   0000CB   F0           MOVX      @DPTR,A
   \   0000CC   E5..         MOV       A,?V0
   \   0000CE   2403         ADD       A,#0x3
   \   0000D0   F5..         MOV       ?V0,A
   \   0000D2   5002         JNC       ??zclParseInWriteCmd_7
   \   0000D4   05..         INC       ?V1
   3724          
   3725                attrDataLen = zclGetAttrDataLength( statusRec->dataType, pBuf );
   \                     ??zclParseInWriteCmd_7:
   \   0000D6                ; Setup parameters for call to function zclGetAttrDataLength
   \   0000D6   FA           MOV       R2,A
   \   0000D7   AB..         MOV       R3,?V1
   \   0000D9   12....       LCALL     `??zclGetAttrDataLength::?relay`; Banked call to: zclGetAttrDataLength
   \   0000DC   8A..         MOV       ?V4,R2
   \   0000DE   8B..         MOV       ?V5,R3
   \   0000E0   AE..         MOV       R6,?V4
   \   0000E2   AF..         MOV       R7,?V5
   3726                zcl_memcpy( dataPtr, pBuf, attrDataLen);
   \   0000E4                ; Setup parameters for call to function osal_memcpy
   \   0000E4   85....       MOV       ?V4,?V0
   \   0000E7   85....       MOV       ?V5,?V1
   \   0000EA   75..00       MOV       ?V6,#0x0
   \   0000ED   78..         MOV       R0,#?V4
   \   0000EF   12....       LCALL     ?PUSH_XSTACK_I_THREE
   \   0000F2   EA           MOV       A,R2
   \   0000F3   FC           MOV       R4,A
   \   0000F4   EB           MOV       A,R3
   \   0000F5   FD           MOV       R5,A
   \   0000F6   AA..         MOV       R2,?V2
   \   0000F8   AB..         MOV       R3,?V3
   \   0000FA   12....       LCALL     ??Subroutine200_0 & 0xFFFF
   \                     ??CrossCallReturnLabel_387:
   \   0000FD   12....       LCALL     ?DEALLOC_XSTACK8
   3727                statusRec->attrData = dataPtr;
   \   000100   85..82       MOV       DPL,?V12
   \   000103   85..83       MOV       DPH,?V13
   \   000106   A3           INC       DPTR
   \   000107   A3           INC       DPTR
   \   000108   A3           INC       DPTR
   \   000109   E5..         MOV       A,?V2
   \   00010B   F0           MOVX      @DPTR,A
   \   00010C   A3           INC       DPTR
   \   00010D   E5..         MOV       A,?V3
   \   00010F   F0           MOVX      @DPTR,A
   3728          
   3729                pBuf += attrDataLen; // move pass attribute data
   \   000110   E5..         MOV       A,?V0
   \   000112   2E           ADD       A,R6
   \   000113   F5..         MOV       ?V0,A
   \   000115   E5..         MOV       A,?V1
   \   000117   3F           ADDC      A,R7
   \   000118   F5..         MOV       ?V1,A
   3730          
   3731                // advance attribute data pointer
   3732                if ( PADDING_NEEDED( attrDataLen ) )
   \   00011A   EE           MOV       A,R6
   \   00011B   A2E0         MOV       C,0xE0 /* A   */.0
   \   00011D   5005         JNC       ??zclParseInWriteCmd_8
   3733                {
   3734                  attrDataLen++;
   \   00011F   0E           INC       R6
   \   000120   04           INC       A
   \   000121   7001         JNZ       ??zclParseInWriteCmd_8
   \   000123   0F           INC       R7
   3735                }
   3736          
   3737                dataPtr += attrDataLen;
   \                     ??zclParseInWriteCmd_8:
   \   000124   E5..         MOV       A,?V2
   \   000126   2E           ADD       A,R6
   \   000127   F5..         MOV       ?V2,A
   \   000129   E5..         MOV       A,?V3
   \   00012B   3F           ADDC      A,R7
   \   00012C   F5..         MOV       ?V3,A
   3738              }
   \   00012E   05..         INC       ?V8
   \                     ??zclParseInWriteCmd_5:
   \   000130   E5..         MOV       A,?V8
   \   000132   C3           CLR       C
   \   000133   95..         SUBB      A,?V7
   \   000135   5003         JNC       $+5
   \   000137   02....       LJMP      ??zclParseInWriteCmd_6 & 0xFFFF
   3739            }
   3740          
   3741            return ( (void *)writeCmd );
   \                     ??zclParseInWriteCmd_4:
   \   00013A   02....       LJMP      ?Subroutine7 & 0xFFFF
   3742          }

   \                                 In  segment BANKED_CODE, align 1, keep-with-next
   \                     ?Subroutine67:
   \   000000   F583         MOV       DPH,A
   \   000002                REQUIRE ??Subroutine201_0
   \   000002                ; // Fall through to label ??Subroutine201_0

   \                                 In  segment BANKED_CODE, align 1, keep-with-next
   \                     ?Subroutine56:
   \   000000   12....       LCALL     ?Subroutine154 & 0xFFFF
   \                     ??CrossCallReturnLabel_497:
   \   000003   12....       LCALL     ?Subroutine168 & 0xFFFF
   \                     ??CrossCallReturnLabel_286:
   \   000006   22           RET
   3743          
   3744          /*********************************************************************
   3745           * @fn      zclParseInWriteRspCmd
   3746           *
   3747           * @brief   Parse the "Profile" Write Response Commands
   3748           *
   3749           *      NOTE: THIS FUNCTION ALLOCATES THE RETURN BUFFER, SO THE CALLING
   3750           *            FUNCTION IS RESPONSIBLE TO FREE THE MEMORY.
   3751           *
   3752           * @param   pCmd - pointer to incoming data to parse
   3753           *
   3754           * @return  pointer to the parsed command structure
   3755           */

   \                                 In  segment BANKED_CODE, align 1, keep-with-next
   3756          static void *zclParseInWriteRspCmd( zclParseCmd_t *pCmd )
   \                     zclParseInWriteRspCmd:
   3757          {
   \   000000                REQUIRE ?V0
   \   000000                REQUIRE ?V1
   \   000000                REQUIRE ?V2
   \   000000                REQUIRE ?V3
   \   000000                REQUIRE ?V4
   \   000000                REQUIRE ?V5
   \   000000                REQUIRE ?V6
   \   000000                REQUIRE ?V7
   \   000000   74F0         MOV       A,#-0x10
   \   000002   12....       LCALL     ?BANKED_ENTER_XDATA
   \   000005                ; Saved register size: 16
   \   000005                ; Auto size: 0
   3758            zclWriteRspCmd_t *writeRspCmd;
   3759            uint8 *pBuf = pCmd->pData;
   \   000005   EA           MOV       A,R2
   \   000006   2403         ADD       A,#0x3
   \   000008   F5..         MOV       ?V2,A
   \   00000A   E4           CLR       A
   \   00000B   3B           ADDC      A,R3
   \   00000C   F5..         MOV       ?V3,A
   \   00000E   85..82       MOV       DPL,?V2
   \   000011   F583         MOV       DPH,A
   \   000013   12....       LCALL     ??Subroutine209_0 & 0xFFFF
   3760            uint8 i = 0;
   \                     ??CrossCallReturnLabel_457:
   \   000016   75..00       MOV       ?V4,#0x0
   3761          
   3762            writeRspCmd = (zclWriteRspCmd_t *)zcl_mem_alloc( sizeof ( zclWriteRspCmd_t ) + pCmd->dataLen );
   \   000019   12....       LCALL     ?Subroutine71 & 0xFFFF
   3763            if ( writeRspCmd != NULL )
   \                     ??CrossCallReturnLabel_113:
   \   00001C   6058         JZ        ??zclParseInWriteRspCmd_0
   3764            {
   3765              if ( pCmd->dataLen == 1 )
   \   00001E   85..82       MOV       DPL,?V0
   \   000021   85..83       MOV       DPH,?V1
   \   000024   E0           MOVX      A,@DPTR
   \   000025   6401         XRL       A,#0x1
   \   000027   7002         JNZ       ??zclParseInWriteRspCmd_1
   \   000029   A3           INC       DPTR
   \   00002A   E0           MOVX      A,@DPTR
   \                     ??zclParseInWriteRspCmd_1:
   \   00002B   7033         JNZ       ??zclParseInWriteRspCmd_2
   3766              {
   3767                // special case when all writes were successfull
   3768                writeRspCmd->attrList[i++].status = *pBuf;
   \   00002D   8E82         MOV       DPL,R6
   \   00002F   8F83         MOV       DPH,R7
   \   000031   12....       LCALL     ?Subroutine101 & 0xFFFF
   3769              }
   \                     ??CrossCallReturnLabel_174:
   \   000034   F0           MOVX      @DPTR,A
   \   000035   75..01       MOV       ?V4,#0x1
   \   000038   8035         SJMP      ??zclParseInWriteRspCmd_3
   3770              else
   3771              {
   3772                while ( pBuf < ( pCmd->pData + pCmd->dataLen ) )
   3773                {
   3774                  writeRspCmd->attrList[i].status = *pBuf++;
   \                     ??zclParseInWriteRspCmd_4:
   \   00003A   E5..         MOV       A,?V4
   \   00003C   12....       LCALL     ?Subroutine137 & 0xFFFF
   \                     ??CrossCallReturnLabel_233:
   \   00003F   12....       LCALL     ?Subroutine96 & 0xFFFF
   \                     ??CrossCallReturnLabel_158:
   \   000042   12....       LCALL     ?Subroutine15 & 0xFFFF
   3775                  writeRspCmd->attrList[i++].attrID = BUILD_UINT16( pBuf[0], pBuf[1] );
   \                     ??CrossCallReturnLabel_378:
   \   000045   E0           MOVX      A,@DPTR
   \   000046   F5..         MOV       ?V6,A
   \   000048   A3           INC       DPTR
   \   000049   E0           MOVX      A,@DPTR
   \   00004A   FD           MOV       R5,A
   \   00004B   E5..         MOV       A,?V6
   \   00004D   8882         MOV       DPL,R0
   \   00004F   8983         MOV       DPH,R1
   \   000051   A3           INC       DPTR
   \   000052   A3           INC       DPTR
   \   000053   F0           MOVX      @DPTR,A
   \   000054   A3           INC       DPTR
   \   000055   ED           MOV       A,R5
   \   000056   F0           MOVX      @DPTR,A
   \   000057   05..         INC       ?V4
   3776                  pBuf += 2;
   \   000059   EE           MOV       A,R6
   \   00005A   2402         ADD       A,#0x2
   \   00005C   FE           MOV       R6,A
   \   00005D   5001         JNC       ??zclParseInWriteRspCmd_2
   \   00005F   0F           INC       R7
   3777                }
   \                     ??zclParseInWriteRspCmd_2:
   \   000060   85..82       MOV       DPL,?V0
   \   000063   85..83       MOV       DPH,?V1
   \   000066   12....       LCALL     ?Subroutine56 & 0xFFFF
   3778              }
   \                     ??CrossCallReturnLabel_74:
   \   000069   EE           MOV       A,R6
   \   00006A   98           SUBB      A,R0
   \   00006B   EF           MOV       A,R7
   \   00006C   99           SUBB      A,R1
   \   00006D   40CB         JC        ??zclParseInWriteRspCmd_4
   3779          
   3780              writeRspCmd->numAttr = i;
   \                     ??zclParseInWriteRspCmd_3:
   \   00006F   8A82         MOV       DPL,R2
   \   000071   8B83         MOV       DPH,R3
   \   000073   E5..         MOV       A,?V4
   \   000075   F0           MOVX      @DPTR,A
   3781            }
   3782          
   3783            return ( (void *)writeRspCmd );
   \                     ??zclParseInWriteRspCmd_0:
   \   000076   02....       LJMP      ??Subroutine194_0 & 0xFFFF
   3784          }

   \                                 In  segment BANKED_CODE, align 1, keep-with-next
   \                     ?Subroutine137:
   \   000000   75F003       MOV       B,#0x3
   \   000003   A4           MUL       AB
   \   000004   F8           MOV       R0,A
   \   000005   A9F0         MOV       R1,B
   \   000007   EA           MOV       A,R2
   \   000008   28           ADD       A,R0
   \   000009   F8           MOV       R0,A
   \   00000A   EB           MOV       A,R3
   \   00000B   39           ADDC      A,R1
   \   00000C   F9           MOV       R1,A
   \   00000D   8E82         MOV       DPL,R6
   \   00000F   8F83         MOV       DPH,R7
   \   000011   22           RET
   3785          #endif // ZCL_WRITE
   3786          
   3787          #ifdef ZCL_REPORTING_DEVICE
   3788          /*********************************************************************
   3789           * @fn      zclParseInConfigReportCmd
   3790           *
   3791           * @brief   Parse the "Profile" Configure Reporting Command
   3792           *
   3793           *      NOTE: THIS FUNCTION ALLOCATES THE RETURN BUFFER, SO THE CALLING
   3794           *            FUNCTION IS RESPONSIBLE TO FREE THE MEMORY.
   3795           *
   3796           * @param   pCmd - pointer to incoming data to parse
   3797           *
   3798           * @return  pointer to the parsed command structure
   3799           */
   3800          void *zclParseInConfigReportCmd( zclParseCmd_t *pCmd )
   3801          {
   3802            zclCfgReportCmd_t *cfgReportCmd;
   3803            uint8 *pBuf = pCmd->pData;
   3804            uint8 *dataPtr;
   3805            uint8 numAttr = 0;
   3806            uint8 dataType;
   3807            uint8 hdrLen;
   3808            uint16 dataLen = 0;
   3809            uint8 reportChangeLen; // length of Reportable Change field
   3810          
   3811            // Calculate the length of the Request command
   3812            while ( pBuf < ( pCmd->pData + pCmd->dataLen ) )
   3813            {
   3814              uint8 direction;
   3815          
   3816              numAttr++;
   3817              direction = *pBuf++;
   3818              pBuf += 2; // move pass the attribute ID
   3819          
   3820              // Is there a Reportable Change field?
   3821              if ( direction == ZCL_SEND_ATTR_REPORTS )
   3822              {
   3823                dataType = *pBuf++;
   3824                pBuf += 4; // move pass the Min and Max Reporting Intervals
   3825          
   3826                // For attributes of 'discrete' data types this field is omitted
   3827                if ( zclAnalogDataType( dataType ) )
   3828                {
   3829                  reportChangeLen = zclGetDataTypeLength( dataType );
   3830                  pBuf += reportChangeLen;
   3831          
   3832                  // add padding if needed
   3833                  if ( PADDING_NEEDED( reportChangeLen ) )
   3834                  {
   3835                    reportChangeLen++;
   3836                  }
   3837          
   3838                  dataLen += reportChangeLen;
   3839                }
   3840                else
   3841                {
   3842                  pBuf++; // move past reportable change field
   3843                }
   3844              }
   3845              else
   3846              {
   3847                pBuf += 2; // move pass the Timeout Period
   3848              }
   3849            } // while loop
   3850          
   3851            hdrLen = sizeof( zclCfgReportCmd_t ) + ( numAttr * sizeof( zclCfgReportRec_t ) );
   3852          
   3853            cfgReportCmd = (zclCfgReportCmd_t *)zcl_mem_alloc( hdrLen + dataLen );
   3854            if ( cfgReportCmd != NULL )
   3855            {
   3856              uint8 i;
   3857              pBuf = pCmd->pData;
   3858              dataPtr = (uint8 *)( (uint8 *)cfgReportCmd + hdrLen );
   3859          
   3860              cfgReportCmd->numAttr = numAttr;
   3861              for ( i = 0; i < numAttr; i++ )
   3862              {
   3863                zclCfgReportRec_t *reportRec = &(cfgReportCmd->attrList[i]);
   3864          
   3865                zcl_memset( reportRec, 0, sizeof( zclCfgReportRec_t ) );
   3866          
   3867                reportRec->direction = *pBuf++;
   3868                reportRec->attrID = BUILD_UINT16( pBuf[0], pBuf[1] );
   3869                pBuf += 2;
   3870                if ( reportRec->direction == ZCL_SEND_ATTR_REPORTS )
   3871                {
   3872                  // Attribute to be reported
   3873                  reportRec->dataType = *pBuf++;
   3874                  reportRec->minReportInt = BUILD_UINT16( pBuf[0], pBuf[1] );
   3875                  pBuf += 2;
   3876                  reportRec->maxReportInt = BUILD_UINT16( pBuf[0], pBuf[1] );
   3877                  pBuf += 2;
   3878          
   3879                  // For attributes of 'discrete' data types this field is omitted
   3880                  if ( zclAnalogDataType( reportRec->dataType ) )
   3881                  {
   3882                    zcl_BuildAnalogData( reportRec->dataType, dataPtr, pBuf);
   3883                    reportRec->reportableChange = dataPtr;
   3884          
   3885                    reportChangeLen = zclGetDataTypeLength( reportRec->dataType );
   3886                    pBuf += reportChangeLen;
   3887          
   3888                    // advance attribute data pointer
   3889                    if ( PADDING_NEEDED( reportChangeLen ) )
   3890                    {
   3891                      reportChangeLen++;
   3892                    }
   3893          
   3894                    dataPtr += reportChangeLen;
   3895                  }
   3896                }
   3897                else
   3898                {
   3899                  // Attribute reports to be received
   3900                  reportRec->timeoutPeriod = BUILD_UINT16( pBuf[0], pBuf[1] );
   3901                  pBuf += 2;
   3902                }
   3903              } // while loop
   3904            }
   3905          
   3906            return ( (void *)cfgReportCmd );
   3907          }
   3908          #endif
   3909          
   3910          #ifdef ZCL_REPORT_CONFIGURING_DEVICE
   3911          /*********************************************************************
   3912           * @fn      zclParseInConfigReportRspCmd
   3913           *
   3914           * @brief   Parse the "Profile" Configure Reporting Response Command
   3915           *
   3916           *      NOTE: THIS FUNCTION ALLOCATES THE RETURN BUFFER, SO THE CALLING
   3917           *            FUNCTION IS RESPONSIBLE TO FREE THE MEMORY.
   3918           *
   3919           * @param   pCmd - pointer to incoming data to parse
   3920           *
   3921           * @return  pointer to the parsed command structure
   3922           */
   3923          static void *zclParseInConfigReportRspCmd( zclParseCmd_t *pCmd )
   3924          {
   3925            zclCfgReportRspCmd_t *cfgReportRspCmd;
   3926            uint8 *pBuf = pCmd->pData;
   3927            uint8 numAttr;
   3928          
   3929            numAttr = pCmd->dataLen / ( 1 + 1 + 2 ); // Status + Direction + Attribute ID
   3930          
   3931            cfgReportRspCmd = (zclCfgReportRspCmd_t *)zcl_mem_alloc( sizeof( zclCfgReportRspCmd_t )
   3932                                                      + ( numAttr * sizeof( zclCfgReportStatus_t ) ) );
   3933            if ( cfgReportRspCmd != NULL )
   3934            {
   3935              uint8 i;
   3936              cfgReportRspCmd->numAttr = numAttr;
   3937              for ( i = 0; i < cfgReportRspCmd->numAttr; i++ )
   3938              {
   3939                cfgReportRspCmd->attrList[i].status = *pBuf++;
   3940                cfgReportRspCmd->attrList[i].direction = *pBuf++;
   3941                cfgReportRspCmd->attrList[i].attrID = BUILD_UINT16( pBuf[0], pBuf[1] );
   3942                pBuf += 2;
   3943              }
   3944            }
   3945          
   3946            return ( (void *)cfgReportRspCmd );
   3947          }
   3948          #endif
   3949          
   3950          #ifdef ZCL_REPORTING_DEVICE
   3951          /*********************************************************************
   3952           * @fn      zclParseInReadReportCfgCmd
   3953           *
   3954           * @brief   Parse the "Profile" Read Reporting Configuration Command
   3955           *
   3956           *      NOTE: THIS FUNCTION ALLOCATES THE RETURN BUFFER, SO THE CALLING
   3957           *            FUNCTION IS RESPONSIBLE TO FREE THE MEMORY.
   3958           *
   3959           * @param   pCmd - pointer to incoming data to parse
   3960           *
   3961           * @return  pointer to the parsed command structure
   3962           */
   3963          void *zclParseInReadReportCfgCmd( zclParseCmd_t *pCmd )
   3964          {
   3965            zclReadReportCfgCmd_t *readReportCfgCmd;
   3966            uint8 *pBuf = pCmd->pData;
   3967            uint8 numAttr;
   3968          
   3969            numAttr = pCmd->dataLen / ( 1 + 2 ); // Direction + Attribute ID
   3970          
   3971            readReportCfgCmd = (zclReadReportCfgCmd_t *)zcl_mem_alloc( sizeof( zclReadReportCfgCmd_t )
   3972                                                            + ( numAttr * sizeof( zclReadReportCfgRec_t ) ) );
   3973            if ( readReportCfgCmd != NULL )
   3974            {
   3975              uint8 i;
   3976              readReportCfgCmd->numAttr = numAttr;
   3977              for ( i = 0; i < readReportCfgCmd->numAttr; i++)
   3978              {
   3979                readReportCfgCmd->attrList[i].direction = *pBuf++;;
   3980                readReportCfgCmd->attrList[i].attrID = BUILD_UINT16( pBuf[0], pBuf[1] );
   3981                pBuf += 2;
   3982              }
   3983            }
   3984          
   3985            return ( (void *)readReportCfgCmd );
   3986          }
   3987          #endif
   3988          
   3989          #ifdef ZCL_REPORT_CONFIGURING_DEVICE
   3990          /*********************************************************************
   3991           * @fn      zclParseInReadReportCfgRspCmd
   3992           *
   3993           * @brief   Parse the "Profile" Read Reporting Configuration Response Command
   3994           *
   3995           *      NOTE: THIS FUNCTION ALLOCATES THE RETURN BUFFER, SO THE CALLING
   3996           *            FUNCTION IS RESPONSIBLE TO FREE THE MEMORY.
   3997           *
   3998           * @param   pCmd - pointer to incoming data to parse
   3999           *
   4000           * @return  pointer to the parsed command structure
   4001           */
   4002          static void *zclParseInReadReportCfgRspCmd( zclParseCmd_t *pCmd )
   4003          {
   4004            zclReadReportCfgRspCmd_t *readReportCfgRspCmd;
   4005            uint8 reportChangeLen;
   4006            uint8 *pBuf = pCmd->pData;
   4007            uint8 *dataPtr;
   4008            uint8 numAttr = 0;
   4009            uint8 hdrLen;
   4010            uint16 dataLen = 0;
   4011          
   4012            // Calculate the length of the response command
   4013            while ( pBuf < ( pCmd->pData + pCmd->dataLen ) )
   4014            {
   4015              uint8 status;
   4016              uint8 direction;
   4017          
   4018              numAttr++;
   4019              status = *pBuf++;
   4020              direction = *pBuf++;
   4021              pBuf += 2; // move pass the attribute ID
   4022          
   4023              if ( status == ZCL_STATUS_SUCCESS )
   4024              {
   4025                if ( direction == ZCL_SEND_ATTR_REPORTS )
   4026                {
   4027                  uint8 dataType = *pBuf++;
   4028                  pBuf += 4; // move pass the Min and Max Reporting Intervals
   4029          
   4030                  // For attributes of 'discrete' data types this field is omitted
   4031                  if ( zclAnalogDataType( dataType ) )
   4032                  {
   4033                    reportChangeLen = zclGetDataTypeLength( dataType );
   4034                    pBuf += reportChangeLen;
   4035          
   4036                    // add padding if needed
   4037                    if ( PADDING_NEEDED( reportChangeLen ) )
   4038                    {
   4039                      reportChangeLen++;
   4040                    }
   4041          
   4042                    dataLen += reportChangeLen;
   4043                  }
   4044                }
   4045                else
   4046                {
   4047                  pBuf += 2; // move pass the Timeout field
   4048                }
   4049              }
   4050            } // while loop
   4051          
   4052            hdrLen = sizeof( zclReadReportCfgRspCmd_t ) + ( numAttr * sizeof( zclReportCfgRspRec_t ) );
   4053          
   4054            readReportCfgRspCmd = (zclReadReportCfgRspCmd_t *)zcl_mem_alloc( hdrLen + dataLen );
   4055            if ( readReportCfgRspCmd != NULL )
   4056            {
   4057              uint8 i;
   4058              pBuf = pCmd->pData;
   4059              dataPtr = (uint8 *)( (uint8 *)readReportCfgRspCmd + hdrLen );
   4060          
   4061              readReportCfgRspCmd->numAttr = numAttr;
   4062              for ( i = 0; i < numAttr; i++ )
   4063              {
   4064                zclReportCfgRspRec_t *reportRspRec = &(readReportCfgRspCmd->attrList[i]);
   4065          
   4066                reportRspRec->status = *pBuf++;
   4067                reportRspRec->direction = *pBuf++;
   4068                reportRspRec->attrID = BUILD_UINT16( pBuf[0], pBuf[1] );
   4069                pBuf += 2;
   4070          
   4071                if ( reportRspRec->status == ZCL_STATUS_SUCCESS )
   4072                {
   4073                  if ( reportRspRec->direction == ZCL_SEND_ATTR_REPORTS )
   4074                  {
   4075                    reportRspRec->dataType = *pBuf++;
   4076                    reportRspRec->minReportInt = BUILD_UINT16( pBuf[0], pBuf[1] );
   4077                    pBuf += 2;
   4078                    reportRspRec->maxReportInt = BUILD_UINT16( pBuf[0], pBuf[1] );
   4079                    pBuf += 2;
   4080          
   4081                    if ( zclAnalogDataType( reportRspRec->dataType ) )
   4082                    {
   4083                      zcl_BuildAnalogData( reportRspRec->dataType, dataPtr, pBuf);
   4084                      reportRspRec->reportableChange = dataPtr;
   4085          
   4086                      reportChangeLen = zclGetDataTypeLength( reportRspRec->dataType );
   4087                      pBuf += reportChangeLen;
   4088          
   4089                      // advance attribute data pointer
   4090                      if ( PADDING_NEEDED( reportChangeLen ) )
   4091                      {
   4092                        reportChangeLen++;
   4093                      }
   4094          
   4095                      dataPtr += reportChangeLen;
   4096                    }
   4097                  }
   4098                  else
   4099                  {
   4100                    reportRspRec->timeoutPeriod = BUILD_UINT16( pBuf[0], pBuf[1] );
   4101                    pBuf += 2;
   4102                  }
   4103                }
   4104              }
   4105            }
   4106          
   4107            return ( (void *)readReportCfgRspCmd );
   4108          }
   4109          #endif
   4110          
   4111          #ifdef ZCL_REPORT_DESTINATION_DEVICE
   4112          /*********************************************************************
   4113           * @fn      zclParseInReportCmd
   4114           *
   4115           * @brief   Parse the "Profile" Report Command
   4116           *
   4117           *      NOTE: THIS FUNCTION ALLOCATES THE RETURN BUFFER, SO THE CALLING
   4118           *            FUNCTION IS RESPONSIBLE TO FREE THE MEMORY.
   4119           *
   4120           * @param   pCmd - pointer to incoming data to parse
   4121           *
   4122           * @return  pointer to the parsed command structure
   4123           */
   4124          void *zclParseInReportCmd( zclParseCmd_t *pCmd )
   4125          {
   4126            zclReportCmd_t *reportCmd;
   4127            uint8 *pBuf = pCmd->pData;
   4128            uint16 attrDataLen;
   4129            uint8 *dataPtr;
   4130            uint8 numAttr = 0;
   4131            uint8 hdrLen;
   4132            uint16 dataLen = 0;
   4133          
   4134            // find out the number of attributes and the length of attribute data
   4135            while ( pBuf < ( pCmd->pData + pCmd->dataLen ) )
   4136            {
   4137              uint8 dataType;
   4138          
   4139              numAttr++;
   4140              pBuf += 2; // move pass attribute id
   4141          
   4142              dataType = *pBuf++;
   4143          
   4144              attrDataLen = zclGetAttrDataLength( dataType, pBuf );
   4145              pBuf += attrDataLen; // move pass attribute data
   4146          
   4147              // add padding if needed
   4148              if ( PADDING_NEEDED( attrDataLen ) )
   4149              {
   4150                attrDataLen++;
   4151              }
   4152          
   4153              dataLen += attrDataLen;
   4154            }
   4155          
   4156            hdrLen = sizeof( zclReportCmd_t ) + ( numAttr * sizeof( zclReport_t ) );
   4157          
   4158            reportCmd = (zclReportCmd_t *)zcl_mem_alloc( hdrLen + dataLen );
   4159            if (reportCmd != NULL )
   4160            {
   4161              uint8 i;
   4162              pBuf = pCmd->pData;
   4163              dataPtr = (uint8 *)( (uint8 *)reportCmd + hdrLen );
   4164          
   4165              reportCmd->numAttr = numAttr;
   4166              for ( i = 0; i < numAttr; i++ )
   4167              {
   4168                zclReport_t *reportRec = &(reportCmd->attrList[i]);
   4169          
   4170                reportRec->attrID = BUILD_UINT16( pBuf[0], pBuf[1] );
   4171                pBuf += 2;
   4172                reportRec->dataType = *pBuf++;
   4173          
   4174                attrDataLen = zclGetAttrDataLength( reportRec->dataType, pBuf );
   4175                zcl_memcpy( dataPtr, pBuf, attrDataLen );
   4176                reportRec->attrData = dataPtr;
   4177          
   4178                pBuf += attrDataLen; // move pass attribute data
   4179          
   4180                // advance attribute data pointer
   4181                if ( PADDING_NEEDED( attrDataLen ) )
   4182                {
   4183                  attrDataLen++;
   4184                }
   4185          
   4186                dataPtr += attrDataLen;
   4187              }
   4188            }
   4189          
   4190            return ( (void *)reportCmd );
   4191          }
   4192          #endif
   4193          
   4194          /*********************************************************************
   4195           * @fn      zclParseInDefaultRspCmd
   4196           *
   4197           * @brief   Parse the "Profile" Default Response Command
   4198           *
   4199           *      NOTE: THIS FUNCTION ALLOCATES THE RETURN BUFFER, SO THE CALLING
   4200           *            FUNCTION IS RESPONSIBLE TO FREE THE MEMORY.
   4201           *
   4202           * @param   pCmd - pointer to incoming data to parse
   4203           *
   4204           * @return  pointer to the parsed command structure
   4205           */

   \                                 In  segment BANKED_CODE, align 1, keep-with-next
   \                     ?Subroutine153:
   \   000000   8E82         MOV       DPL,R6
   \   000002   8F83         MOV       DPH,R7
   \   000004                REQUIRE ??Subroutine202_0
   \   000004                ; // Fall through to label ??Subroutine202_0

   \                                 In  segment BANKED_CODE, align 1, keep-with-next
   4206          static void *zclParseInDefaultRspCmd( zclParseCmd_t *pCmd )
   \                     zclParseInDefaultRspCmd:
   4207          {
   \   000000                REQUIRE ?V0
   \   000000                REQUIRE ?V1
   \   000000   74F6         MOV       A,#-0xa
   \   000002   12....       LCALL     ?BANKED_ENTER_XDATA
   \   000005                ; Saved register size: 10
   \   000005                ; Auto size: 0
   4208            zclDefaultRspCmd_t *defaultRspCmd;
   4209            uint8 *pBuf = pCmd->pData;
   \   000005   12....       LCALL     ?Subroutine61 & 0xFFFF
   4210          
   4211            defaultRspCmd = (zclDefaultRspCmd_t *)zcl_mem_alloc( sizeof ( zclDefaultRspCmd_t ) );
   4212            if ( defaultRspCmd != NULL )
   \                     ??CrossCallReturnLabel_89:
   \   000008   6003         JZ        ??CrossCallReturnLabel_15
   4213            {
   4214              defaultRspCmd->commandID = *pBuf++;
   \   00000A   12....       LCALL     ?Subroutine21 & 0xFFFF
   4215              defaultRspCmd->statusCode = *pBuf;
   4216            }
   4217          
   4218            return ( (void *)defaultRspCmd );
   \                     ??CrossCallReturnLabel_15:
   \   00000D   02....       LJMP      ?Subroutine3 & 0xFFFF
   4219          }

   \                                 In  segment BANKED_CODE, align 1, keep-with-next
   \                     ?Subroutine61:
   \   000000   12....       LCALL     ?Subroutine164 & 0xFFFF
   \                     ??CrossCallReturnLabel_279:
   \   000003                ; Setup parameters for call to function osal_mem_alloc
   \   000003                ; Setup parameters for call to function osal_mem_alloc
   \   000003   7A02         MOV       R2,#0x2
   \   000005   7B00         MOV       R3,#0x0
   \   000007   12....       LCALL     `??osal_mem_alloc::?relay`; Banked call to: osal_mem_alloc
   \   00000A   EA           MOV       A,R2
   \   00000B   4B           ORL       A,R3
   \   00000C   22           RET

   \                                 In  segment BANKED_CODE, align 1, keep-with-next
   \                     ?Subroutine21:
   \   000000   12....       LCALL     ?Subroutine153 & 0xFFFF
   \                     ??CrossCallReturnLabel_399:
   \   000003   12....       LCALL     ?Subroutine148 & 0xFFFF
   \                     ??CrossCallReturnLabel_256:
   \   000006   A3           INC       DPTR
   \   000007   12....       LCALL     ??Subroutine202_0 & 0xFFFF
   \                     ??CrossCallReturnLabel_393:
   \   00000A   A3           INC       DPTR
   \   00000B   F0           MOVX      @DPTR,A
   \   00000C   22           RET
   4220          
   4221          #ifdef ZCL_DISCOVER
   4222          /*********************************************************************
   4223           * @fn      zclParseInDiscAttrsCmd
   4224           *
   4225           * @brief   Parse the "Profile" Discovery Attributes and Attributes Extended Commands
   4226           *
   4227           *      NOTE: THIS FUNCTION ALLOCATES THE RETURN BUFFER, SO THE CALLING
   4228           *            FUNCTION IS RESPONSIBLE TO FREE THE MEMORY.
   4229           *
   4230           * @param   pCmd - pointer to incoming data to parse
   4231           *
   4232           * @return  pointer to the parsed command structure
   4233           */

   \                                 In  segment BANKED_CODE, align 1, keep-with-next
   4234          void *zclParseInDiscAttrsCmd( zclParseCmd_t *pCmd )
   \                     zclParseInDiscAttrsCmd:
   4235          {
   \   000000                REQUIRE ?V0
   \   000000                REQUIRE ?V1
   \   000000   74F6         MOV       A,#-0xa
   \   000002   12....       LCALL     ?BANKED_ENTER_XDATA
   \   000005                ; Saved register size: 10
   \   000005                ; Auto size: 0
   4236            zclDiscoverAttrsCmd_t *pDiscoverCmd;
   4237            uint8 *pBuf = pCmd->pData;
   \   000005   12....       LCALL     ?Subroutine88 & 0xFFFF
   4238          
   4239            pDiscoverCmd = (zclDiscoverAttrsCmd_t *)zcl_mem_alloc( sizeof ( zclDiscoverAttrsCmd_t ) );
   \                     ??CrossCallReturnLabel_145:
   \   000008                ; Setup parameters for call to function osal_mem_alloc
   \   000008   7A03         MOV       R2,#0x3
   \   00000A   12....       LCALL     ?Subroutine117 & 0xFFFF
   4240            if ( pDiscoverCmd != NULL )
   \                     ??CrossCallReturnLabel_408:
   \   00000D   6017         JZ        ??zclParseInDiscAttrsCmd_0
   4241            {
   4242              pDiscoverCmd->startAttr = BUILD_UINT16( pBuf[0], pBuf[1] );
   \   00000F   8E82         MOV       DPL,R6
   \   000011   8F83         MOV       DPH,R7
   \   000013   12....       LCALL     ?Subroutine109 & 0xFFFF
   4243              pBuf += 2;
   4244              pDiscoverCmd->maxAttrIDs = *pBuf;
   4245            }
   \                     ??CrossCallReturnLabel_195:
   \   000016   F9           MOV       R1,A
   \   000017   EC           MOV       A,R4
   \   000018   8A82         MOV       DPL,R2
   \   00001A   8B83         MOV       DPH,R3
   \   00001C   12....       LCALL     ?Subroutine27 & 0xFFFF
   \                     ??CrossCallReturnLabel_32:
   \   00001F   8A82         MOV       DPL,R2
   \   000021   8B83         MOV       DPH,R3
   \   000023   A3           INC       DPTR
   \   000024   A3           INC       DPTR
   \   000025   F0           MOVX      @DPTR,A
   4246          
   4247            return ( (void *)pDiscoverCmd );
   \                     ??zclParseInDiscAttrsCmd_0:
   \   000026   02....       LJMP      ?Subroutine3 & 0xFFFF
   4248          }
   4249          
   4250          /*********************************************************************
   4251           * @fn      zclParseInDiscAttrsRspCmd
   4252           *
   4253           * @brief   Parse the "Profile" Discovery Response Commands
   4254           *
   4255           *      NOTE: THIS FUNCTION ALLOCATES THE RETURN BUFFER, SO THE CALLING
   4256           *            FUNCTION IS RESPONSIBLE TO FREE THE MEMORY.
   4257           *
   4258           * @param   pCmd - pointer to incoming data to parse
   4259           *
   4260           * @return  pointer to the parsed command structure
   4261           */
   4262          #define ZCLDISCRSPCMD_DATALEN(a)  ((a)-1) // data len - Discovery Complete

   \                                 In  segment BANKED_CODE, align 1, keep-with-next
   4263          static void *zclParseInDiscAttrsRspCmd( zclParseCmd_t *pCmd )
   \                     zclParseInDiscAttrsRspCmd:
   4264          {
   \   000000                REQUIRE ?V0
   \   000000                REQUIRE ?V1
   \   000000                REQUIRE ?V2
   \   000000                REQUIRE ?V3
   \   000000   74F4         MOV       A,#-0xc
   \   000002   12....       LCALL     ?BANKED_ENTER_XDATA
   \   000005                ; Saved register size: 12
   \   000005                ; Auto size: 0
   4265            zclDiscoverAttrsRspCmd_t *pDiscoverRspCmd;
   4266            uint8 *pBuf = pCmd->pData;
   \   000005   12....       LCALL     ?Subroutine74 & 0xFFFF
   4267            uint8 numAttr = ZCLDISCRSPCMD_DATALEN(pCmd->dataLen) / ( 2 + 1 ); // Attr ID + Data Type
   \                     ??CrossCallReturnLabel_118:
   \   000008   F8           MOV       R0,A
   \   000009   A3           INC       DPTR
   \   00000A   E0           MOVX      A,@DPTR
   \   00000B   34FF         ADDC      A,#-0x1
   \   00000D   F9           MOV       R1,A
   \   00000E   7A03         MOV       R2,#0x3
   \   000010   7B00         MOV       R3,#0x0
   \   000012   12....       LCALL     ?US_DIV_MOD
   \   000015   E8           MOV       A,R0
   \   000016   F5..         MOV       ?V1,A
   4268          
   4269            pDiscoverRspCmd = (zclDiscoverAttrsRspCmd_t *)zcl_mem_alloc( sizeof ( zclDiscoverAttrsRspCmd_t ) +
   4270                              ( numAttr * sizeof(zclDiscoverAttrInfo_t) ) );
   \   000018                ; Setup parameters for call to function osal_mem_alloc
   \   000018   12....       LCALL     ?Subroutine127 & 0xFFFF
   \                     ??CrossCallReturnLabel_405:
   \   00001B   39           ADDC      A,R1
   \   00001C   FB           MOV       R3,A
   \   00001D   12....       LCALL     ??Subroutine204_0 & 0xFFFF
   4271          
   4272            if ( pDiscoverRspCmd != NULL )
   \                     ??CrossCallReturnLabel_409:
   \   000020   6034         JZ        ??zclParseInDiscAttrsRspCmd_0
   4273            {
   4274              uint8 i;
   4275          
   4276              pDiscoverRspCmd->discComplete = *pBuf++;
   \   000022   12....       LCALL     ?Subroutine14 & 0xFFFF
   4277              pDiscoverRspCmd->numAttr = numAttr;
   \                     ??CrossCallReturnLabel_4:
   \   000025   E5..         MOV       A,?V1
   \   000027   F0           MOVX      @DPTR,A
   4278          
   4279              for ( i = 0; i < numAttr; i++ )
   \   000028   75..00       MOV       ?V0,#0x0
   \   00002B   8022         SJMP      ??zclParseInDiscAttrsRspCmd_1
   4280              {
   4281                pDiscoverRspCmd->attrList[i].attrID = BUILD_UINT16( pBuf[0], pBuf[1] );
   \                     ??zclParseInDiscAttrsRspCmd_2:
   \   00002D   E5..         MOV       A,?V0
   \   00002F   12....       LCALL     ?Subroutine137 & 0xFFFF
   4282                pBuf += 2;
   4283                pDiscoverRspCmd->attrList[i].dataType = *pBuf++;
   4284              }
   \                     ??CrossCallReturnLabel_234:
   \   000032   E0           MOVX      A,@DPTR
   \   000033   F5..         MOV       ?V2,A
   \   000035   A3           INC       DPTR
   \   000036   E0           MOVX      A,@DPTR
   \   000037   FD           MOV       R5,A
   \   000038   E5..         MOV       A,?V2
   \   00003A   8882         MOV       DPL,R0
   \   00003C   8983         MOV       DPH,R1
   \   00003E   A3           INC       DPTR
   \   00003F   A3           INC       DPTR
   \   000040   F0           MOVX      @DPTR,A
   \   000041   A3           INC       DPTR
   \   000042   ED           MOV       A,R5
   \   000043   12....       LCALL     ?Subroutine19 & 0xFFFF
   \                     ??CrossCallReturnLabel_11:
   \   000046   EE           MOV       A,R6
   \   000047   2403         ADD       A,#0x3
   \   000049   FE           MOV       R6,A
   \   00004A   5001         JNC       ??zclParseInDiscAttrsRspCmd_3
   \   00004C   0F           INC       R7
   \                     ??zclParseInDiscAttrsRspCmd_3:
   \   00004D   05..         INC       ?V0
   \                     ??zclParseInDiscAttrsRspCmd_1:
   \   00004F   E5..         MOV       A,?V0
   \   000051   C3           CLR       C
   \   000052   95..         SUBB      A,?V1
   \   000054   40D7         JC        ??zclParseInDiscAttrsRspCmd_2
   4285            }
   4286          
   4287            return ( (void *)pDiscoverRspCmd );
   \                     ??zclParseInDiscAttrsRspCmd_0:
   \   000056   02....       LJMP      ??Subroutine180_0 & 0xFFFF
   4288          }

   \                                 In  segment BANKED_CODE, align 1, keep-with-next
   \                     ?Subroutine14:
   \   000000   12....       LCALL     ?Subroutine153 & 0xFFFF
   \                     ??CrossCallReturnLabel_398:
   \   000003   12....       LCALL     ?Subroutine145 & 0xFFFF
   \                     ??CrossCallReturnLabel_380:
   \   000006   8A82         MOV       DPL,R2
   \   000008   8B83         MOV       DPH,R3
   \   00000A   A3           INC       DPTR
   \   00000B   22           RET

   \                                 In  segment BANKED_CODE, align 1, keep-with-next
   \                     ?Subroutine127:
   \   000000   75F003       MOV       B,#0x3
   \   000003   A4           MUL       AB
   \   000004   A9F0         MOV       R1,B
   \   000006                REQUIRE ??Subroutine203_0
   \   000006                ; // Fall through to label ??Subroutine203_0

   \                                 In  segment BANKED_CODE, align 1, keep-with-next
   \                     ?Subroutine74:
   \   000000   8A82         MOV       DPL,R2
   \   000002   8B83         MOV       DPH,R3
   \   000004   A3           INC       DPTR
   \   000005   A3           INC       DPTR
   \   000006   A3           INC       DPTR
   \   000007   E0           MOVX      A,@DPTR
   \   000008   FE           MOV       R6,A
   \   000009   A3           INC       DPTR
   \   00000A   E0           MOVX      A,@DPTR
   \   00000B   FF           MOV       R7,A
   \   00000C   8A82         MOV       DPL,R2
   \   00000E   8B83         MOV       DPH,R3
   \   000010   A3           INC       DPTR
   \   000011   E0           MOVX      A,@DPTR
   \   000012   24FF         ADD       A,#-0x1
   \   000014   22           RET

   \                                 In  segment BANKED_CODE, align 1, keep-with-next
   \                     ?Subroutine19:
   \   000000   12....       LCALL     ?Subroutine147 & 0xFFFF
   \                     ??CrossCallReturnLabel_252:
   \   000003   8882         MOV       DPL,R0
   \   000005   8983         MOV       DPH,R1
   \   000007   A3           INC       DPTR
   \   000008   A3           INC       DPTR
   \   000009   A3           INC       DPTR
   \   00000A   A3           INC       DPTR
   \   00000B   F0           MOVX      @DPTR,A
   \   00000C   22           RET
   4289          
   4290          /*********************************************************************
   4291           * @fn      zclParseInDiscCmdsCmd
   4292           *
   4293           * @brief   Parse the "Profile" Discovery Commands
   4294           *
   4295           *      NOTE: THIS FUNCTION ALLOCATES THE RETURN BUFFER, SO THE CALLING
   4296           *            FUNCTION IS RESPONSIBLE TO FREE THE MEMORY.
   4297           *
   4298           * @param   pCmd - pointer to incoming data to parse
   4299           *
   4300           * @return  pointer to the parsed command structure
   4301           */

   \                                 In  segment BANKED_CODE, align 1, keep-with-next
   4302          void *zclParseInDiscCmdsCmd( zclParseCmd_t *pCmd )
   \                     zclParseInDiscCmdsCmd:
   4303          {
   \   000000                REQUIRE ?V0
   \   000000                REQUIRE ?V1
   \   000000   74F6         MOV       A,#-0xa
   \   000002   12....       LCALL     ?BANKED_ENTER_XDATA
   \   000005                ; Saved register size: 10
   \   000005                ; Auto size: 0
   4304            zclDiscoverCmdsCmd_t *pDiscoverCmd;
   4305            uint8 *pBuf = pCmd->pData;
   \   000005   12....       LCALL     ?Subroutine61 & 0xFFFF
   4306          
   4307            pDiscoverCmd = (zclDiscoverCmdsCmd_t *)zcl_mem_alloc( sizeof ( zclDiscoverCmdsCmd_t ) );
   4308            if ( pDiscoverCmd != NULL )
   \                     ??CrossCallReturnLabel_90:
   \   000008   6003         JZ        ??CrossCallReturnLabel_16
   4309            {
   4310              pDiscoverCmd->startCmdID = *pBuf++;
   \   00000A   12....       LCALL     ?Subroutine21 & 0xFFFF
   4311              pDiscoverCmd->maxCmdID = *pBuf++;
   4312            }
   4313          
   4314            return ( (void *)pDiscoverCmd );
   \                     ??CrossCallReturnLabel_16:
   \   00000D   02....       LJMP      ?Subroutine3 & 0xFFFF
   4315          }
   4316          
   4317          /*********************************************************************
   4318           * @fn      zclParseInDiscCmdsRspCmd
   4319           *
   4320           * @brief   Parse the Discover Commands Response Command
   4321           *
   4322           *      NOTE: THIS FUNCTION ALLOCATES THE RETURN BUFFER, SO THE CALLING
   4323           *            FUNCTION IS RESPONSIBLE TO FREE THE MEMORY.
   4324           *
   4325           * @param   pCmd - pointer to incoming data to parse
   4326           *
   4327           * @return  pointer to the parsed command structure
   4328           */
   4329          #define ZCLDISCRSPCMD_DATALEN(a)  ((a)-1) // data len - Discovery Complete

   \                                 In  segment BANKED_CODE, align 1, keep-with-next
   4330          static void *zclParseInDiscCmdsRspCmd( zclParseCmd_t *pCmd )
   \                     zclParseInDiscCmdsRspCmd:
   4331          {
   \   000000                REQUIRE ?V0
   \   000000                REQUIRE ?V2
   \   000000                REQUIRE ?V3
   \   000000   74F4         MOV       A,#-0xc
   \   000002   12....       LCALL     ?BANKED_ENTER_XDATA
   \   000005                ; Saved register size: 12
   \   000005                ; Auto size: 0
   4332            zclDiscoverCmdsCmdRsp_t *pDiscoverRspCmd;
   4333            uint8 *pBuf = pCmd->pData;
   \   000005   8A82         MOV       DPL,R2
   \   000007   8B83         MOV       DPH,R3
   \   000009   A3           INC       DPTR
   \   00000A   A3           INC       DPTR
   \   00000B   A3           INC       DPTR
   \   00000C   12....       LCALL     ??Subroutine209_0 & 0xFFFF
   4334            uint8 numCmds = ZCLDISCRSPCMD_DATALEN(pCmd->dataLen);  // length of command ID variable array
   \                     ??CrossCallReturnLabel_458:
   \   00000F   8A82         MOV       DPL,R2
   \   000011   8B83         MOV       DPH,R3
   \   000013   A3           INC       DPTR
   \   000014   E0           MOVX      A,@DPTR
   \   000015   14           DEC       A
   \   000016   F5..         MOV       ?V0,A
   4335          
   4336              // allocate memory for size of structure plus variable array
   4337            pDiscoverRspCmd = (zclDiscoverCmdsCmdRsp_t *)zcl_mem_alloc( sizeof ( zclDiscoverCmdsCmdRsp_t ) +
   4338                              ( numCmds * sizeof(uint8) ) );
   \   000018                ; Setup parameters for call to function osal_mem_alloc
   \   000018   2405         ADD       A,#0x5
   \   00001A   FA           MOV       R2,A
   \   00001B   E4           CLR       A
   \   00001C   3400         ADDC      A,#0x0
   \   00001E   FB           MOV       R3,A
   \   00001F   12....       LCALL     ??Subroutine204_0 & 0xFFFF
   4339            if ( pDiscoverRspCmd != NULL )
   \                     ??CrossCallReturnLabel_410:
   \   000022   6032         JZ        ??zclParseInDiscCmdsRspCmd_0
   4340            {
   4341              uint8 i;
   4342              pDiscoverRspCmd->discComplete = *pBuf++;
   \   000024   12....       LCALL     ?Subroutine14 & 0xFFFF
   4343              pDiscoverRspCmd->numCmd = numCmds;
   \                     ??CrossCallReturnLabel_5:
   \   000027   A3           INC       DPTR
   \   000028   E5..         MOV       A,?V0
   \   00002A   F0           MOVX      @DPTR,A
   4344          
   4345              for ( i = 0; i < numCmds; i++ )
   \   00002B   7800         MOV       R0,#0x0
   \   00002D   8021         SJMP      ??zclParseInDiscCmdsRspCmd_1
   4346              {
   4347                pDiscoverRspCmd->pCmdID[i] = *pBuf++;
   \                     ??zclParseInDiscCmdsRspCmd_2:
   \   00002F   8E82         MOV       DPL,R6
   \   000031   8F83         MOV       DPH,R7
   \   000033   E0           MOVX      A,@DPTR
   \   000034   C0E0         PUSH      A
   \   000036   E8           MOV       A,R0
   \   000037   FC           MOV       R4,A
   \   000038   8A82         MOV       DPL,R2
   \   00003A   8B83         MOV       DPH,R3
   \   00003C   A3           INC       DPTR
   \   00003D   A3           INC       DPTR
   \   00003E   A3           INC       DPTR
   \   00003F   E0           MOVX      A,@DPTR
   \   000040   2C           ADD       A,R4
   \   000041   F9           MOV       R1,A
   \   000042   A3           INC       DPTR
   \   000043   E0           MOVX      A,@DPTR
   \   000044   3400         ADDC      A,#0x0
   \   000046   8982         MOV       DPL,R1
   \   000048   F583         MOV       DPH,A
   \   00004A   D0E0         POP       A
   \   00004C   12....       LCALL     ??Subroutine199_0 & 0xFFFF
   4348              }
   \                     ??CrossCallReturnLabel_376:
   \   00004F   08           INC       R0
   \                     ??zclParseInDiscCmdsRspCmd_1:
   \   000050   E8           MOV       A,R0
   \   000051   C3           CLR       C
   \   000052   95..         SUBB      A,?V0
   \   000054   40D9         JC        ??zclParseInDiscCmdsRspCmd_2
   4349            }
   4350          
   4351            return ( (void *)pDiscoverRspCmd );
   \                     ??zclParseInDiscCmdsRspCmd_0:
   \   000056   02....       LJMP      ??Subroutine180_0 & 0xFFFF
   4352          }
   4353          
   4354          /*********************************************************************
   4355           * @fn      zclParseInDiscAttrsExtRspCmd
   4356           *
   4357           * @brief   Parse the "Profile" Discovery Extended Attributes Response Commands
   4358           *
   4359           *      NOTE: THIS FUNCTION ALLOCATES THE RETURN BUFFER, SO THE CALLING
   4360           *            FUNCTION IS RESPONSIBLE TO FREE THE MEMORY.
   4361           *
   4362           * @param   pCmd - pointer to incoming data to parse
   4363           *
   4364           * @return  pointer to the parsed command structure
   4365           */
   4366          #define ZCLDISCRSPCMD_DATALEN(a)  ((a)-1) // data len - Discovery Complete

   \                                 In  segment BANKED_CODE, align 1, keep-with-next
   4367          static void *zclParseInDiscAttrsExtRspCmd( zclParseCmd_t *pCmd )
   \                     zclParseInDiscAttrsExtRspCmd:
   4368          {
   \   000000                REQUIRE ?V0
   \   000000                REQUIRE ?V1
   \   000000                REQUIRE ?V2
   \   000000                REQUIRE ?V3
   \   000000                REQUIRE ?V4
   \   000000                REQUIRE ?V5
   \   000000   74F2         MOV       A,#-0xe
   \   000002   12....       LCALL     ?BANKED_ENTER_XDATA
   \   000005                ; Saved register size: 14
   \   000005                ; Auto size: 0
   4369            zclDiscoverAttrsExtRsp_t *pDiscoverRspCmd;
   4370            uint8 i;
   4371            uint8 *pBuf = pCmd->pData;
   \   000005   12....       LCALL     ?Subroutine74 & 0xFFFF
   4372            uint8 numAttrs = ZCLDISCRSPCMD_DATALEN(pCmd->dataLen) / ( 2 + 1 + 1 ); // Attr ID + Data Type + Access Control
   \                     ??CrossCallReturnLabel_119:
   \   000008   F5..         MOV       ?V0,A
   \   00000A   A3           INC       DPTR
   \   00000B   E0           MOVX      A,@DPTR
   \   00000C   34FF         ADDC      A,#-0x1
   \   00000E   F5..         MOV       ?V1,A
   \   000010   7402         MOV       A,#0x2
   \   000012   78..         MOV       R0,#?V0
   \   000014   12....       LCALL     ?US_SHR
   \   000017   E5..         MOV       A,?V0
   \   000019   F5..         MOV       ?V0,A
   4373          
   4374            pDiscoverRspCmd = (zclDiscoverAttrsExtRsp_t *)zcl_mem_alloc( sizeof ( zclDiscoverAttrsExtRsp_t ) +
   4375                              ( numAttrs * sizeof(zclExtAttrInfo_t) ) );
   \   00001B                ; Setup parameters for call to function osal_mem_alloc
   \   00001B   F5..         MOV       ?V2,A
   \   00001D   75..00       MOV       ?V3,#0x0
   \   000020   7402         MOV       A,#0x2
   \   000022   78..         MOV       R0,#?V2
   \   000024   12....       LCALL     ?S_SHL
   \   000027   E5..         MOV       A,?V2
   \   000029   12....       LCALL     ??Subroutine203_0 & 0xFFFF
   \                     ??CrossCallReturnLabel_403:
   \   00002C   35..         ADDC      A,?V3
   \   00002E   FB           MOV       R3,A
   \   00002F   12....       LCALL     ??Subroutine204_0 & 0xFFFF
   4376          
   4377            if ( pDiscoverRspCmd != NULL )
   \                     ??CrossCallReturnLabel_411:
   \   000032   6053         JZ        ??zclParseInDiscAttrsExtRspCmd_0
   4378            {
   4379              pDiscoverRspCmd->discComplete = *pBuf++;
   \   000034   12....       LCALL     ?Subroutine14 & 0xFFFF
   4380              pDiscoverRspCmd->numAttr = numAttrs;
   \                     ??CrossCallReturnLabel_6:
   \   000037   E5..         MOV       A,?V0
   \   000039   F0           MOVX      @DPTR,A
   4381          
   4382              for ( i = 0; i < numAttrs; i++ )
   \   00003A   7C00         MOV       R4,#0x0
   \   00003C   8043         SJMP      ??zclParseInDiscAttrsExtRspCmd_1
   4383              {
   4384                pDiscoverRspCmd->aExtAttrInfo[i].attrID = BUILD_UINT16( pBuf[0], pBuf[1] );
   \                     ??zclParseInDiscAttrsExtRspCmd_2:
   \   00003E   EC           MOV       A,R4
   \   00003F   F5..         MOV       ?V2,A
   \   000041   75..00       MOV       ?V3,#0x0
   \   000044   7402         MOV       A,#0x2
   \   000046   78..         MOV       R0,#?V2
   \   000048   12....       LCALL     ?S_SHL
   \   00004B   EA           MOV       A,R2
   \   00004C   25..         ADD       A,?V2
   \   00004E   F8           MOV       R0,A
   \   00004F   EB           MOV       A,R3
   \   000050   35..         ADDC      A,?V3
   \   000052   F9           MOV       R1,A
   \   000053   8E82         MOV       DPL,R6
   \   000055   8F83         MOV       DPH,R7
   \   000057   E0           MOVX      A,@DPTR
   \   000058   F5..         MOV       ?V4,A
   \   00005A   A3           INC       DPTR
   \   00005B   E0           MOVX      A,@DPTR
   \   00005C   F5..         MOV       ?V3,A
   \   00005E   E5..         MOV       A,?V4
   \   000060   8882         MOV       DPL,R0
   \   000062   8983         MOV       DPH,R1
   \   000064   A3           INC       DPTR
   \   000065   A3           INC       DPTR
   \   000066   F0           MOVX      @DPTR,A
   \   000067   A3           INC       DPTR
   \   000068   E5..         MOV       A,?V3
   \   00006A   12....       LCALL     ?Subroutine19 & 0xFFFF
   4385                pBuf += 2;
   4386                pDiscoverRspCmd->aExtAttrInfo[i].attrDataType = *pBuf++;
   4387                pDiscoverRspCmd->aExtAttrInfo[i].attrAccessControl = *pBuf++;
   \                     ??CrossCallReturnLabel_12:
   \   00006D   8E82         MOV       DPL,R6
   \   00006F   8F83         MOV       DPH,R7
   \   000071   A3           INC       DPTR
   \   000072   A3           INC       DPTR
   \   000073   A3           INC       DPTR
   \   000074   12....       LCALL     ?Subroutine95 & 0xFFFF
   4388              }
   \                     ??CrossCallReturnLabel_152:
   \   000077   A3           INC       DPTR
   \   000078   F0           MOVX      @DPTR,A
   \   000079   EE           MOV       A,R6
   \   00007A   2404         ADD       A,#0x4
   \   00007C   FE           MOV       R6,A
   \   00007D   5001         JNC       ??zclParseInDiscAttrsExtRspCmd_3
   \   00007F   0F           INC       R7
   \                     ??zclParseInDiscAttrsExtRspCmd_3:
   \   000080   0C           INC       R4
   \                     ??zclParseInDiscAttrsExtRspCmd_1:
   \   000081   EC           MOV       A,R4
   \   000082   C3           CLR       C
   \   000083   95..         SUBB      A,?V0
   \   000085   40B7         JC        ??zclParseInDiscAttrsExtRspCmd_2
   4389            }
   4390          
   4391            return ( (void *)pDiscoverRspCmd );
   \                     ??zclParseInDiscAttrsExtRspCmd_0:
   \   000087   02....       LJMP      ?Subroutine4 & 0xFFFF
   4392          }

   \                                 In  segment BANKED_CODE, align 1, keep-with-next
   \                     ?Subroutine95:
   \   000000   12....       LCALL     ?Subroutine157 & 0xFFFF
   \                     ??CrossCallReturnLabel_269:
   \   000003   A3           INC       DPTR
   \   000004   A3           INC       DPTR
   \   000005   A3           INC       DPTR
   \   000006   22           RET
   4393          #endif // ZCL_DISCOVER
   4394          
   4395          #ifdef ZCL_READ
   4396          /*********************************************************************
   4397           * @fn      zclProcessInReadCmd
   4398           *
   4399           * @brief   Process the "Profile" Read Command
   4400           *
   4401           * @param   pInMsg - incoming message to process
   4402           *
   4403           * @return  TRUE if command processed. FALSE, otherwise.
   4404           */

   \                                 In  segment BANKED_CODE, align 1, keep-with-next
   4405          static uint8 zclProcessInReadCmd( zclIncoming_t *pInMsg )
   \                     zclProcessInReadCmd:
   4406          {
   \   000000                REQUIRE ?V0
   \   000000                REQUIRE ?V1
   \   000000                REQUIRE ?V2
   \   000000                REQUIRE ?V3
   \   000000                REQUIRE ?V4
   \   000000                REQUIRE ?V5
   \   000000                REQUIRE ?V6
   \   000000                REQUIRE ?V7
   \   000000                REQUIRE ?V8
   \   000000                REQUIRE ?V9
   \   000000                REQUIRE ?V10
   \   000000                REQUIRE ?V11
   \   000000                REQUIRE ?V12
   \   000000                REQUIRE ?V13
   \   000000                REQUIRE ?V14
   \   000000                REQUIRE ?V15
   \   000000   74E8         MOV       A,#-0x18
   \   000002   12....       LCALL     ?BANKED_ENTER_XDATA
   \   000005                ; Saved register size: 24
   \   000005                ; Auto size: 8
   \   000005   74F8         MOV       A,#-0x8
   \   000007   12....       LCALL     ?ALLOC_XSTACK8
   \   00000A   12....       LCALL     ?Subroutine129 & 0xFFFF
   4407            zclReadCmd_t *readCmd;
   4408            zclReadRspCmd_t *readRspCmd;
   4409            zclAttrRec_t attrRec;
   4410            uint16 len;
   4411            uint8 i;
   4412            uint8 attrFound;
   4413          
   4414            readCmd = (zclReadCmd_t *)pInMsg->attrCmd;
   \                     ??CrossCallReturnLabel_221:
   \   00000D   E0           MOVX      A,@DPTR
   \   00000E   F5..         MOV       ?V10,A
   \   000010   A3           INC       DPTR
   \   000011   E0           MOVX      A,@DPTR
   \   000012   F5..         MOV       ?V11,A
   4415          
   4416            // calculate the length of the response status record
   4417            len = sizeof( zclReadRspCmd_t ) + (readCmd->numAttr * sizeof( zclReadRspStatus_t ));
   4418          
   4419            readRspCmd = zcl_mem_alloc( len );
   \   000014                ; Setup parameters for call to function osal_mem_alloc
   \   000014   85..82       MOV       DPL,?V10
   \   000017   F583         MOV       DPH,A
   \   000019   E0           MOVX      A,@DPTR
   \   00001A   75F006       MOV       B,#0x6
   \   00001D   A4           MUL       AB
   \   00001E   A9F0         MOV       R1,B
   \   000020   2401         ADD       A,#0x1
   \   000022   FA           MOV       R2,A
   \   000023   E4           CLR       A
   \   000024   39           ADDC      A,R1
   \   000025   12....       LCALL     ??Subroutine228_0 & 0xFFFF
   4420            if ( readRspCmd == NULL )
   \                     ??CrossCallReturnLabel_562:
   \   000028   7005         JNZ       ??zclProcessInReadCmd_0
   4421            {
   4422              return FALSE; // EMBEDDED RETURN
   \   00002A   7900         MOV       R1,#0x0
   \   00002C   02....       LJMP      ??zclProcessInReadCmd_1 & 0xFFFF
   4423            }
   4424          
   4425            readRspCmd->numAttr = readCmd->numAttr;
   \                     ??zclProcessInReadCmd_0:
   \   00002F   85..82       MOV       DPL,?V10
   \   000032   85..83       MOV       DPH,?V11
   \   000035   12....       LCALL     ?Subroutine79 & 0xFFFF
   4426            for ( i = 0; i < readCmd->numAttr; i++ )
   \                     ??CrossCallReturnLabel_127:
   \   000038   75..00       MOV       ?V2,#0x0
   \   00003B   EE           MOV       A,R6
   \   00003C   2402         ADD       A,#0x2
   \   00003E   F5..         MOV       ?V14,A
   \   000040   E4           CLR       A
   \   000041   3F           ADDC      A,R7
   \   000042   F5..         MOV       ?V15,A
   \   000044   800B         SJMP      ??zclProcessInReadCmd_2
   4427            {
   4428              zclReadRspStatus_t *statusRec = &(readRspCmd->attrList[i]);
   4429          
   4430              statusRec->attrID = readCmd->attrID[i];
   4431              
   4432              attrFound = zclFindAttrRec( pInMsg->msg->endPoint, pInMsg->msg->clusterId, readCmd->attrID[i], &attrRec );
   4433              
   4434              //Validate the attribute is found and the access control
   4435              if ( ( attrFound == TRUE ) && 
   4436                   (  (attrRec.attr.accessControl & ACCESS_GLOBAL) || 
   4437                      (GET_BIT( &attrRec.attr.accessControl, ACCESS_CONTROL_MASK ) == pInMsg->hdr.fc.direction ) ) )
   4438              {
   4439                if ( zcl_AccessCtrlRead( attrRec.attr.accessControl ) )
   4440                {
   4441                  statusRec->status = zclAuthorizeRead( pInMsg->msg->endPoint,
   4442                                                        &(pInMsg->msg->srcAddr), &attrRec );
   4443                  if ( statusRec->status == ZCL_STATUS_SUCCESS )
   4444                  {
   4445                    statusRec->data = attrRec.attr.dataPtr;
   4446                    statusRec->dataType = attrRec.attr.dataType;
   4447                  }
   4448                }
   4449                else
   4450                {
   4451                  statusRec->status = ZCL_STATUS_WRITE_ONLY;
   4452                }
   4453              }
   4454              else
   4455              {
   4456                statusRec->status = ZCL_STATUS_UNSUPPORTED_ATTRIBUTE;
   \                     ??zclProcessInReadCmd_3:
   \   000046   85..82       MOV       DPL,?V6
   \   000049   85..83       MOV       DPH,?V7
   \   00004C   7486         MOV       A,#-0x7a
   \                     ??zclProcessInReadCmd_4:
   \   00004E   F0           MOVX      @DPTR,A
   4457              }
   \                     ??zclProcessInReadCmd_5:
   \   00004F   05..         INC       ?V2
   \                     ??zclProcessInReadCmd_2:
   \   000051   85..82       MOV       DPL,?V10
   \   000054   85..83       MOV       DPH,?V11
   \   000057   12....       LCALL     ??Subroutine225_0 & 0xFFFF
   \                     ??CrossCallReturnLabel_529:
   \   00005A   4003         JC        $+5
   \   00005C   02....       LJMP      ??zclProcessInReadCmd_6 & 0xFFFF
   \   00005F   A8..         MOV       R0,?V2
   \   000061   E8           MOV       A,R0
   \   000062   75F006       MOV       B,#0x6
   \   000065   A4           MUL       AB
   \   000066   FA           MOV       R2,A
   \   000067   ABF0         MOV       R3,B
   \   000069   E5..         MOV       A,?V0
   \   00006B   2A           ADD       A,R2
   \   00006C   F582         MOV       DPL,A
   \   00006E   E5..         MOV       A,?V1
   \   000070   3B           ADDC      A,R3
   \   000071   F583         MOV       DPH,A
   \   000073   A3           INC       DPTR
   \   000074   8582..       MOV       ?V4,DPL
   \   000077   8583..       MOV       ?V5,DPH
   \   00007A   E8           MOV       A,R0
   \   00007B   28           ADD       A,R0
   \   00007C   F8           MOV       R0,A
   \   00007D   E4           CLR       A
   \   00007E   33           RLC       A
   \   00007F   F9           MOV       R1,A
   \   000080   E5..         MOV       A,?V10
   \   000082   28           ADD       A,R0
   \   000083   F582         MOV       DPL,A
   \   000085   E5..         MOV       A,?V11
   \   000087   12....       LCALL     ?Subroutine133 & 0xFFFF
   \                     ??CrossCallReturnLabel_230:
   \   00008A   12....       LCALL     ?Subroutine58 & 0xFFFF
   \                     ??CrossCallReturnLabel_76:
   \   00008D   12....       LCALL     ??Subroutine197_0 & 0xFFFF
   \                     ??CrossCallReturnLabel_368:
   \   000090   E5..         MOV       A,?V4
   \   000092   2402         ADD       A,#0x2
   \   000094   F5..         MOV       ?V6,A
   \   000096   E4           CLR       A
   \   000097   35..         ADDC      A,?V5
   \   000099   F5..         MOV       ?V7,A
   \   00009B   12....       LCALL     ?Subroutine52 & 0xFFFF
   \                     ??CrossCallReturnLabel_468:
   \   00009E                ; Setup parameters for call to function zclFindAttrRec
   \   00009E   A8..         MOV       R0,?XSP + 0
   \   0000A0   A9..         MOV       R1,?XSP + 1
   \   0000A2   88..         MOV       ?V12,R0
   \   0000A4   89..         MOV       ?V13,R1
   \   0000A6   78..         MOV       R0,#?V12
   \   0000A8   12....       LCALL     ?PUSH_XSTACK_I_TWO
   \   0000AB   8A82         MOV       DPL,R2
   \   0000AD   8B83         MOV       DPH,R3
   \   0000AF   12....       LCALL     ??Subroutine212_0 & 0xFFFF
   \                     ??CrossCallReturnLabel_472:
   \   0000B2   85..82       MOV       DPL,?V8
   \   0000B5   85..83       MOV       DPH,?V9
   \   0000B8   12....       LCALL     ??Subroutine206_0 & 0xFFFF
   \                     ??CrossCallReturnLabel_450:
   \   0000BB   12....       LCALL     ?Subroutine120 & 0xFFFF
   \                     ??CrossCallReturnLabel_211:
   \   0000BE   12....       LCALL     ??Subroutine181_0 & 0xFFFF
   \                     ??CrossCallReturnLabel_299:
   \   0000C1   12....       LCALL     ?DEALLOC_XSTACK8
   \   0000C4   E9           MOV       A,R1
   \   0000C5   6401         XRL       A,#0x1
   \   0000C7   6003         JZ        $+5
   \   0000C9   02....       LJMP      ??zclProcessInReadCmd_3 & 0xFFFF
   \   0000CC   7405         MOV       A,#0x5
   \   0000CE   12....       LCALL     ?XSTACK_DISP0_8
   \   0000D1   E0           MOVX      A,@DPTR
   \   0000D2   A2E6         MOV       C,0xE0 /* A   */.6
   \   0000D4   401A         JC        ??zclProcessInReadCmd_7
   \   0000D6   85..82       MOV       DPL,?V14
   \   0000D9   85..83       MOV       DPH,?V15
   \   0000DC   12....       LCALL     ?Subroutine86 & 0xFFFF
   \                     ??CrossCallReturnLabel_140:
   \   0000DF   7405         MOV       A,#0x5
   \   0000E1   12....       LCALL     ?XSTACK_DISP0_8
   \   0000E4   E0           MOVX      A,@DPTR
   \   0000E5   A2E7         MOV       C,0xE0 /* A   */.7
   \   0000E7   20F001       JB        B.0,??zclProcessInReadCmd_8
   \   0000EA   B3           CPL       C
   \                     ??zclProcessInReadCmd_8:
   \   0000EB   4003         JC        $+5
   \   0000ED   02....       LJMP      ??zclProcessInReadCmd_3 & 0xFFFF
   \                     ??zclProcessInReadCmd_7:
   \   0000F0   A2E0         MOV       C,0xE0 /* A   */.0
   \   0000F2   5061         JNC       ??zclProcessInReadCmd_9
   \   0000F4   8E82         MOV       DPL,R6
   \   0000F6   8F83         MOV       DPH,R7
   \   0000F8   12....       LCALL     ??Subroutine205_0 & 0xFFFF
   \                     ??CrossCallReturnLabel_415:
   \   0000FB   E8           MOV       A,R0
   \   0000FC   2406         ADD       A,#0x6
   \   0000FE   F5..         MOV       ?V8,A
   \   000100   E4           CLR       A
   \   000101   39           ADDC      A,R1
   \   000102   F5..         MOV       ?V9,A
   \   000104   7405         MOV       A,#0x5
   \   000106   12....       LCALL     ?XSTACK_DISP0_8
   \   000109   E0           MOVX      A,@DPTR
   \   00010A   A2E4         MOV       C,0xE0 /* A   */.4
   \   00010C   5018         JNC       ??zclProcessInReadCmd_10
   \   00010E                ; Setup parameters for call to function zclGetAuthorizeCB
   \   00010E   12....       LCALL     ?Subroutine121 & 0xFFFF
   \                     ??CrossCallReturnLabel_213:
   \   000111   12....       LCALL     ?Subroutine141 & 0xFFFF
   \                     ??CrossCallReturnLabel_242:
   \   000114   6010         JZ        ??zclProcessInReadCmd_10
   \   000116                ; Setup parameters for indirect call
   \   000116   7901         MOV       R1,#0x1
   \   000118   AC..         MOV       R4,?XSP + 0
   \   00011A   AD..         MOV       R5,?XSP + 1
   \   00011C   AA..         MOV       R2,?V8
   \   00011E   AB..         MOV       R3,?V9
   \   000120   12....       LCALL     ?CALL_IND
   \   000123   E9           MOV       A,R1
   \   000124   8002         SJMP      ??zclProcessInReadCmd_11
   \                     ??zclProcessInReadCmd_10:
   \   000126   7400         MOV       A,#0x0
   \                     ??zclProcessInReadCmd_11:
   \   000128   85..82       MOV       DPL,?V6
   \   00012B   85..83       MOV       DPH,?V7
   \   00012E   F0           MOVX      @DPTR,A
   \   00012F   6003         JZ        $+5
   \   000131   02....       LJMP      ??zclProcessInReadCmd_5 & 0xFFFF
   \   000134   7406         MOV       A,#0x6
   \   000136   12....       LCALL     ?XSTACK_DISP0_8
   \   000139   12....       LCALL     ?Subroutine58 & 0xFFFF
   \                     ??CrossCallReturnLabel_77:
   \   00013C   A3           INC       DPTR
   \   00013D   A3           INC       DPTR
   \   00013E   A3           INC       DPTR
   \   00013F   A3           INC       DPTR
   \   000140   12....       LCALL     ??Subroutine197_0 & 0xFFFF
   \                     ??CrossCallReturnLabel_369:
   \   000143   7404         MOV       A,#0x4
   \   000145   12....       LCALL     ?XSTACK_DISP0_8
   \   000148   E0           MOVX      A,@DPTR
   \   000149   85..82       MOV       DPL,?V4
   \   00014C   85..83       MOV       DPH,?V5
   \   00014F   A3           INC       DPTR
   \   000150   A3           INC       DPTR
   \   000151   A3           INC       DPTR
   \   000152   02....       LJMP      ??zclProcessInReadCmd_4 & 0xFFFF
   \                     ??zclProcessInReadCmd_9:
   \   000155   85..82       MOV       DPL,?V6
   \   000158   85..83       MOV       DPH,?V7
   \   00015B   748F         MOV       A,#-0x71
   \   00015D   02....       LJMP      ??zclProcessInReadCmd_4 & 0xFFFF
   4458            }
   4459          
   4460            // Build and send Read Response command
   4461            zcl_SendReadRsp( pInMsg->msg->endPoint, &(pInMsg->msg->srcAddr), pInMsg->msg->clusterId,
   4462                             readRspCmd, !pInMsg->hdr.fc.direction,
   4463                             true, pInMsg->hdr.transSeqNum );
   \                     ??zclProcessInReadCmd_6:
   \   000160   12....       LCALL     ?Subroutine52 & 0xFFFF
   \                     ??CrossCallReturnLabel_469:
   \   000163                ; Setup parameters for call to function zcl_SendReadRsp
   \   000163   12....       LCALL     ?Subroutine48 & 0xFFFF
   \                     ??CrossCallReturnLabel_510:
   \   000166   12....       LCALL     ?PUSH_XSTACK_I_ONE
   \   000169   75..01       MOV       ?V2,#0x1
   \   00016C   78..         MOV       R0,#?V2
   \   00016E   12....       LCALL     ?PUSH_XSTACK_I_ONE
   \   000171   85..82       MOV       DPL,?V14
   \   000174   85..83       MOV       DPH,?V15
   \   000177   12....       LCALL     ?Subroutine50 & 0xFFFF
   \                     ??CrossCallReturnLabel_62:
   \   00017A   12....       LCALL     ?PUSH_XSTACK_I_ONE
   \   00017D   78..         MOV       R0,#?V0
   \   00017F   12....       LCALL     ?PUSH_XSTACK_I_TWO
   \   000182   85..82       MOV       DPL,?V8
   \   000185   85..83       MOV       DPH,?V9
   \   000188   12....       LCALL     ?Subroutine94 & 0xFFFF
   \                     ??CrossCallReturnLabel_478:
   \   00018B   E5..         MOV       A,?V8
   \   00018D   12....       LCALL     ??Subroutine231_0 & 0xFFFF
   \                     ??CrossCallReturnLabel_570:
   \   000190   35..         ADDC      A,?V9
   \   000192   FB           MOV       R3,A
   \   000193   12....       LCALL     ?Subroutine120 & 0xFFFF
   \                     ??CrossCallReturnLabel_212:
   \   000196   12....       LCALL     `??zcl_SendReadRsp::?relay`; Banked call to: zcl_SendReadRsp
   \   000199   7405         MOV       A,#0x5
   \   00019B   12....       LCALL     ?DEALLOC_XSTACK8
   4464            zcl_mem_free( readRspCmd );
   \   00019E                ; Setup parameters for call to function osal_mem_free
   \   00019E   AA..         MOV       R2,?V0
   \   0001A0   AB..         MOV       R3,?V1
   \   0001A2   12....       LCALL     `??osal_mem_free::?relay`; Banked call to: osal_mem_free
   4465          
   4466            return TRUE;
   \   0001A5   7901         MOV       R1,#0x1
   \                     ??zclProcessInReadCmd_1:
   \   0001A7   7408         MOV       A,#0x8
   \   0001A9   02....       LJMP      ?Subroutine5 & 0xFFFF
   4467          }

   \                                 In  segment BANKED_CODE, align 1, keep-with-next
   \                     ?Subroutine120:
   \   000000   E5..         MOV       A,?V8
   \   000002   12....       LCALL     ?Subroutine171 & 0xFFFF
   \                     ??CrossCallReturnLabel_546:
   \   000005   35..         ADDC      A,?V9
   \   000007   F583         MOV       DPH,A
   \   000009   E0           MOVX      A,@DPTR
   \   00000A   F9           MOV       R1,A
   \   00000B   22           RET

   \                                 In  segment BANKED_CODE, align 1, keep-with-next
   \                     ?Subroutine86:
   \   000000   12....       LCALL     ?Subroutine177 & 0xFFFF
   \                     ??CrossCallReturnLabel_550:
   \   000003   A2E0         MOV       C,0xE0 /* A   */.0
   \   000005   92F0         MOV       B.0,C
   \   000007   22           RET

   \                                 In  segment BANKED_CODE, align 1, keep-with-next
   \                     ?Subroutine52:
   \   000000   8E82         MOV       DPL,R6
   \   000002   8F83         MOV       DPH,R7
   \   000004                REQUIRE ??Subroutine210_0
   \   000004                ; // Fall through to label ??Subroutine210_0

   \                                 In  segment BANKED_CODE, align 1, keep-with-next
   \                     ?Subroutine50:
   \   000000   12....       LCALL     ?Subroutine160 & 0xFFFF
   \                     ??CrossCallReturnLabel_536:
   \   000003   F5..         MOV       ?V2,A
   \   000005   78..         MOV       R0,#?V2
   \   000007   22           RET

   \                                 In  segment BANKED_CODE, align 1, keep-with-next
   \                     ?Subroutine48:
   \   000000   8E82         MOV       DPL,R6
   \   000002   8F83         MOV       DPH,R7
   \   000004                REQUIRE ??Subroutine220_0
   \   000004                ; // Fall through to label ??Subroutine220_0

   \                                 In  segment BANKED_CODE, align 1, keep-with-next
   \                     ??Subroutine220_0:
   \   000000   A3           INC       DPTR
   \   000001   A3           INC       DPTR
   \   000002   A3           INC       DPTR
   \   000003   A3           INC       DPTR
   \   000004   A3           INC       DPTR
   \   000005   A3           INC       DPTR
   \   000006                REQUIRE ??Subroutine221_0
   \   000006                ; // Fall through to label ??Subroutine221_0

   \                                 In  segment BANKED_CODE, align 1, keep-with-next
   \                     ?Subroutine169:
   \   000000   EA           MOV       A,R2
   \   000001   FE           MOV       R6,A
   \   000002   EB           MOV       A,R3
   \   000003   FF           MOV       R7,A
   \   000004                REQUIRE ??Subroutine224_0
   \   000004                ; // Fall through to label ??Subroutine224_0

   \                                 In  segment BANKED_CODE, align 1, keep-with-next
   \                     ??Subroutine224_0:
   \   000000   EA           MOV       A,R2
   \   000001   240C         ADD       A,#0xc
   \   000003   F582         MOV       DPL,A
   \   000005   E4           CLR       A
   \   000006   22           RET

   \                                 In  segment BANKED_CODE, align 1, keep-with-next
   \                     ??Subroutine231_0:
   \   000000   2406         ADD       A,#0x6
   \   000002   FA           MOV       R2,A
   \   000003   E4           CLR       A
   \   000004   22           RET

   \                                 In  segment BANKED_CODE, align 1, keep-with-next
   \                     ?Subroutine129:
   \   000000   12....       LCALL     ?Subroutine169 & 0xFFFF
   \                     ??CrossCallReturnLabel_525:
   \   000003   3F           ADDC      A,R7
   \   000004   F583         MOV       DPH,A
   \   000006   22           RET
   4468          #endif // ZCL_READ
   4469          
   4470          #ifdef ZCL_WRITE
   4471          /*********************************************************************
   4472           * @fn      processInWriteCmd
   4473           *
   4474           * @brief   Process the "Profile" Write and Write No Response Commands
   4475           *
   4476           * @param   pInMsg - incoming message to process
   4477           *
   4478           * @return  TRUE if command processed. FALSE, otherwise.
   4479           */

   \                                 In  segment BANKED_CODE, align 1, keep-with-next
   4480          static uint8 zclProcessInWriteCmd( zclIncoming_t *pInMsg )
   \                     zclProcessInWriteCmd:
   4481          {
   \   000000                REQUIRE ?V0
   \   000000                REQUIRE ?V1
   \   000000                REQUIRE ?V2
   \   000000                REQUIRE ?V3
   \   000000                REQUIRE ?V4
   \   000000                REQUIRE ?V5
   \   000000                REQUIRE ?V6
   \   000000                REQUIRE ?V7
   \   000000                REQUIRE ?V8
   \   000000                REQUIRE ?V9
   \   000000                REQUIRE ?V10
   \   000000                REQUIRE ?V11
   \   000000                REQUIRE ?V12
   \   000000                REQUIRE ?V13
   \   000000                REQUIRE ?V14
   \   000000                REQUIRE ?V15
   \   000000   74E8         MOV       A,#-0x18
   \   000002   12....       LCALL     ?BANKED_ENTER_XDATA
   \   000005                ; Saved register size: 24
   \   000005                ; Auto size: 10
   \   000005   74F6         MOV       A,#-0xa
   \   000007   12....       LCALL     ?ALLOC_XSTACK8
   \   00000A   8A..         MOV       ?V2,R2
   \   00000C   8B..         MOV       ?V3,R3
   4482            zclWriteCmd_t *writeCmd;
   4483            zclWriteRspCmd_t *writeRspCmd;
   4484            uint8 sendRsp = FALSE;
   \   00000E   C2..         CLR       ?VB.0
   4485            uint8 j = 0;
   \   000010   7E00         MOV       R6,#0x0
   4486            uint8 i;
   4487          
   4488            writeCmd = (zclWriteCmd_t *)pInMsg->attrCmd;
   \   000012   12....       LCALL     ??Subroutine224_0 & 0xFFFF
   \                     ??CrossCallReturnLabel_526:
   \   000015   35..         ADDC      A,?V3
   \   000017   F583         MOV       DPH,A
   \   000019   E0           MOVX      A,@DPTR
   \   00001A   F5..         MOV       ?V14,A
   \   00001C   A3           INC       DPTR
   \   00001D   E0           MOVX      A,@DPTR
   \   00001E   F5..         MOV       ?V15,A
   4489            if ( pInMsg->hdr.commandID == ZCL_CMD_WRITE )
   \   000020   8A82         MOV       DPL,R2
   \   000022   8B83         MOV       DPH,R3
   \   000024   A3           INC       DPTR
   \   000025   A3           INC       DPTR
   \   000026   A3           INC       DPTR
   \   000027   A3           INC       DPTR
   \   000028   A3           INC       DPTR
   \   000029   A3           INC       DPTR
   \   00002A   A3           INC       DPTR
   \   00002B   E0           MOVX      A,@DPTR
   \   00002C   6402         XRL       A,#0x2
   \   00002E   7018         JNZ       ??zclProcessInWriteCmd_0
   4490            {
   4491              // We need to send a response back - allocate space for it
   4492              writeRspCmd = (zclWriteRspCmd_t *)zcl_mem_alloc( sizeof( zclWriteRspCmd_t )
   4493                      + sizeof( zclWriteRspStatus_t ) * writeCmd->numAttr );
   \   000030                ; Setup parameters for call to function osal_mem_alloc
   \   000030   85..82       MOV       DPL,?V14
   \   000033   85..83       MOV       DPH,?V15
   \   000036   12....       LCALL     ?Subroutine64 & 0xFFFF
   \                     ??CrossCallReturnLabel_101:
   \   000039   8A..         MOV       ?V4,R2
   \   00003B   8B..         MOV       ?V5,R3
   4494              if ( writeRspCmd == NULL )
   \   00003D   EA           MOV       A,R2
   \   00003E   4B           ORL       A,R3
   \   00003F   7005         JNZ       ??zclProcessInWriteCmd_1
   4495              {
   4496                return FALSE; // EMBEDDED RETURN
   \   000041   7900         MOV       R1,#0x0
   \   000043   02....       LJMP      ??zclProcessInWriteCmd_2 & 0xFFFF
   4497              }
   4498          
   4499              sendRsp = TRUE;
   \                     ??zclProcessInWriteCmd_1:
   \   000046   D2..         SETB      ?VB.0
   4500            }
   4501          
   4502            for ( i = 0; i < writeCmd->numAttr; i++ )
   \                     ??zclProcessInWriteCmd_0:
   \   000048   7F00         MOV       R7,#0x0
   \   00004A   8010         SJMP      ??zclProcessInWriteCmd_3
   4503            {
   4504              zclAttrRec_t attrRec;
   4505              zclWriteRec_t *statusRec = &(writeCmd->attrList[i]);
   4506          
   4507              if ( zclFindAttrRec( pInMsg->msg->endPoint, pInMsg->msg->clusterId,
   4508                                   statusRec->attrID, &attrRec ) )
   4509              {
   4510                if ( GET_BIT( &attrRec.attr.accessControl, ACCESS_CONTROLEXT_MASK ) != pInMsg->hdr.fc.direction )
   4511                {
   4512                  writeRspCmd->attrList[j].status = ZCL_STATUS_UNSUPPORTED_ATTRIBUTE;
   4513                  writeRspCmd->attrList[j++].attrID = statusRec->attrID;
   4514                  break;
   4515                }
   4516                if ( statusRec->dataType == attrRec.attr.dataType )
   4517                {
   4518                  uint8 status;
   4519          
   4520                  // Write the new attribute value
   4521                  if ( attrRec.attr.dataPtr != NULL )
   4522                  {
   4523                    //Handle special case for Identify
   4524                    if((pInMsg->msg->clusterId == ZCL_CLUSTER_ID_GEN_IDENTIFY) && (statusRec->attrID == ATTRID_IDENTIFY_TIME))
   4525                    {
   4526                      uint16 identifyTime; 
   4527                            
   4528                      osal_memcpy((uint8*)&identifyTime,statusRec->attrData,sizeof(uint16));
   4529                                  
   4530                      bdb_ZclIdentifyCmdInd(identifyTime, pInMsg->msg->endPoint);
   4531                      
   4532                      status = ZCL_STATUS_SUCCESS;
   4533                    }          
   4534                    else
   4535                    {                
   4536                      status = zclWriteAttrData( pInMsg->msg->endPoint, &(pInMsg->msg->srcAddr),
   4537                                                 &attrRec, statusRec );
   4538                    }
   4539                  }
   4540                  else // Use CB
   4541                  {
   4542                    status = zclWriteAttrDataUsingCB( pInMsg->msg->endPoint, &(pInMsg->msg->srcAddr),
   4543                                                      &attrRec, statusRec->attrData );
   4544                  }
   4545          
   4546                  // If successful, a write attribute status record shall NOT be generated
   4547                  if ( sendRsp && status != ZCL_STATUS_SUCCESS )
   4548                  {
   4549                    // Attribute is read only - move on to the next write attribute record
   4550                    writeRspCmd->attrList[j].status = status;
   4551                    writeRspCmd->attrList[j++].attrID = statusRec->attrID;
   4552                  }
   4553                }
   4554                else
   4555                {
   4556                  // Attribute data type is incorrect - move on to the next write attribute record
   4557                  if ( sendRsp )
   4558                  {
   4559                    writeRspCmd->attrList[j].status = ZCL_STATUS_INVALID_DATA_TYPE;
   4560                    writeRspCmd->attrList[j++].attrID = statusRec->attrID;
   4561                  }
   4562                }
   4563              }
   4564              else
   4565              {
   4566                // Attribute is not supported - move on to the next write attribute record
   4567                if ( sendRsp )
   \                     ??zclProcessInWriteCmd_4:
   \   00004C   A2..         MOV       C,?VB.0
   \   00004E   500B         JNC       ??CrossCallReturnLabel_7
   4568                {
   4569                  writeRspCmd->attrList[j].status = ZCL_STATUS_UNSUPPORTED_ATTRIBUTE;
   \   000050   85..82       MOV       DPL,?V12
   \   000053   85..83       MOV       DPH,?V13
   \   000056   7486         MOV       A,#-0x7a
   4570                  writeRspCmd->attrList[j++].attrID = statusRec->attrID;
   4571                }
   4572              }
   \                     ??zclProcessInWriteCmd_5:
   \   000058   12....       LCALL     ?Subroutine16 & 0xFFFF
   \                     ??CrossCallReturnLabel_7:
   \   00005B   0F           INC       R7
   \                     ??zclProcessInWriteCmd_3:
   \   00005C   85..82       MOV       DPL,?V14
   \   00005F   85..83       MOV       DPH,?V15
   \   000062   E0           MOVX      A,@DPTR
   \   000063   F8           MOV       R0,A
   \   000064   EF           MOV       A,R7
   \   000065   C3           CLR       C
   \   000066   98           SUBB      A,R0
   \   000067   4003         JC        $+5
   \   000069   02....       LJMP      ??CrossCallReturnLabel_8 & 0xFFFF
   \   00006C   EF           MOV       A,R7
   \   00006D   75F005       MOV       B,#0x5
   \   000070   A4           MUL       AB
   \   000071   F8           MOV       R0,A
   \   000072   A9F0         MOV       R1,B
   \   000074   E5..         MOV       A,?V14
   \   000076   28           ADD       A,R0
   \   000077   F582         MOV       DPL,A
   \   000079   E5..         MOV       A,?V15
   \   00007B   39           ADDC      A,R1
   \   00007C   F583         MOV       DPH,A
   \   00007E   A3           INC       DPTR
   \   00007F   8582..       MOV       ?V0,DPL
   \   000082   8583..       MOV       ?V1,DPH
   \   000085   EE           MOV       A,R6
   \   000086   75F003       MOV       B,#0x3
   \   000089   A4           MUL       AB
   \   00008A   F8           MOV       R0,A
   \   00008B   A9F0         MOV       R1,B
   \   00008D   E5..         MOV       A,?V4
   \   00008F   28           ADD       A,R0
   \   000090   F582         MOV       DPL,A
   \   000092   E5..         MOV       A,?V5
   \   000094   39           ADDC      A,R1
   \   000095   F583         MOV       DPH,A
   \   000097   E582         MOV       A,DPL
   \   000099   2402         ADD       A,#0x2
   \   00009B   F5..         MOV       ?V8,A
   \   00009D   E4           CLR       A
   \   00009E   3583         ADDC      A,DPH
   \   0000A0   F5..         MOV       ?V9,A
   \   0000A2   A3           INC       DPTR
   \   0000A3   8582..       MOV       ?V12,DPL
   \   0000A6   8583..       MOV       ?V13,DPH
   \   0000A9   12....       LCALL     ?Subroutine106 & 0xFFFF
   \                     ??CrossCallReturnLabel_491:
   \   0000AC                ; Setup parameters for call to function zclFindAttrRec
   \   0000AC   7402         MOV       A,#0x2
   \   0000AE   12....       LCALL     ?XSTACK_DISP100_8
   \   0000B1   88..         MOV       ?V10,R0
   \   0000B3   89..         MOV       ?V11,R1
   \   0000B5   78..         MOV       R0,#?V10
   \   0000B7   12....       LCALL     ?PUSH_XSTACK_I_TWO
   \   0000BA   85..82       MOV       DPL,?V0
   \   0000BD   85..83       MOV       DPH,?V1
   \   0000C0   12....       LCALL     ??Subroutine222_0 & 0xFFFF
   \                     ??CrossCallReturnLabel_514:
   \   0000C3   12....       LCALL     ?DEALLOC_XSTACK8
   \   0000C6   E9           MOV       A,R1
   \   0000C7   6083         JZ        ??zclProcessInWriteCmd_4
   \   0000C9   85..82       MOV       DPL,?V2
   \   0000CC   85..83       MOV       DPH,?V3
   \   0000CF   A3           INC       DPTR
   \   0000D0   A3           INC       DPTR
   \   0000D1   12....       LCALL     ?Subroutine86 & 0xFFFF
   \                     ??CrossCallReturnLabel_141:
   \   0000D4   7407         MOV       A,#0x7
   \   0000D6   12....       LCALL     ?XSTACK_DISP0_8
   \   0000D9   E0           MOVX      A,@DPTR
   \   0000DA   A2E7         MOV       C,0xE0 /* A   */.7
   \   0000DC   20F001       JB        B.0,??zclProcessInWriteCmd_6
   \   0000DF   B3           CPL       C
   \                     ??zclProcessInWriteCmd_6:
   \   0000E0   406F         JC        ??zclProcessInWriteCmd_7
   \   0000E2   85..82       MOV       DPL,?V12
   \   0000E5   85..83       MOV       DPH,?V13
   \   0000E8   7486         MOV       A,#-0x7a
   \   0000EA   12....       LCALL     ?Subroutine16 & 0xFFFF
   4573            } // for loop
   4574          
   4575            if ( sendRsp )
   \                     ??CrossCallReturnLabel_8:
   \   0000ED   A2..         MOV       C,?VB.0
   \   0000EF   5059         JNC       ??zclProcessInWriteCmd_8
   4576            {
   4577              writeRspCmd->numAttr = j;
   \   0000F1   EE           MOV       A,R6
   \   0000F2   85..82       MOV       DPL,?V4
   \   0000F5   85..83       MOV       DPH,?V5
   \   0000F8   F0           MOVX      @DPTR,A
   4578              if ( writeRspCmd->numAttr == 0 )
   \   0000F9   700B         JNZ       ??zclProcessInWriteCmd_9
   4579              {
   4580                // Since all records were written successful, include a single status record
   4581                // in the resonse command with the status field set to SUCCESS and the
   4582                // attribute ID field omitted.
   4583                writeRspCmd->attrList[0].status = ZCL_STATUS_SUCCESS;
   \   0000FB   A3           INC       DPTR
   \   0000FC   E4           CLR       A
   \   0000FD   F0           MOVX      @DPTR,A
   4584                writeRspCmd->numAttr = 1;
   \   0000FE   85..82       MOV       DPL,?V4
   \   000101   85..83       MOV       DPH,?V5
   \   000104   04           INC       A
   \   000105   F0           MOVX      @DPTR,A
   4585              }
   4586          
   4587              zcl_SendWriteRsp( pInMsg->msg->endPoint, &(pInMsg->msg->srcAddr),
   4588                                pInMsg->msg->clusterId, writeRspCmd, !pInMsg->hdr.fc.direction,
   4589                                true, pInMsg->hdr.transSeqNum );
   \                     ??zclProcessInWriteCmd_9:
   \   000106   85..82       MOV       DPL,?V2
   \   000109   85..83       MOV       DPH,?V3
   \   00010C   12....       LCALL     ??Subroutine209_0 & 0xFFFF
   \                     ??CrossCallReturnLabel_459:
   \   00010F                ; Setup parameters for call to function zcl_SendWriteRsp
   \   00010F   85..82       MOV       DPL,?V2
   \   000112   85..83       MOV       DPH,?V3
   \   000115   A3           INC       DPTR
   \   000116   A3           INC       DPTR
   \   000117   A3           INC       DPTR
   \   000118   A3           INC       DPTR
   \   000119   A3           INC       DPTR
   \   00011A   A3           INC       DPTR
   \   00011B   12....       LCALL     ?Subroutine63 & 0xFFFF
   \                     ??CrossCallReturnLabel_100:
   \   00011E   12....       LCALL     ?PUSH_XSTACK_I_ONE
   \   000121   75..01       MOV       ?V0,#0x1
   \   000124   78..         MOV       R0,#?V0
   \   000126   12....       LCALL     ?PUSH_XSTACK_I_ONE
   \   000129   85..82       MOV       DPL,?V2
   \   00012C   85..83       MOV       DPH,?V3
   \   00012F   A3           INC       DPTR
   \   000130   A3           INC       DPTR
   \   000131   E0           MOVX      A,@DPTR
   \   000132   12....       LCALL     ?Subroutine131 & 0xFFFF
   \                     ??CrossCallReturnLabel_226:
   \   000135   12....       LCALL     ?PUSH_XSTACK_I_ONE
   \   000138   78..         MOV       R0,#?V4
   \   00013A   12....       LCALL     ?PUSH_XSTACK_I_TWO
   \   00013D   12....       LCALL     ?Subroutine46 & 0xFFFF
   \                     ??CrossCallReturnLabel_58:
   \   000140   12....       LCALL     ?DEALLOC_XSTACK8
   4590              zcl_mem_free( writeRspCmd );
   \   000143                ; Setup parameters for call to function osal_mem_free
   \   000143   AA..         MOV       R2,?V4
   \   000145   AB..         MOV       R3,?V5
   \   000147   12....       LCALL     `??osal_mem_free::?relay`; Banked call to: osal_mem_free
   4591            }
   4592          
   4593            return TRUE;
   \                     ??zclProcessInWriteCmd_8:
   \   00014A   7901         MOV       R1,#0x1
   \                     ??zclProcessInWriteCmd_2:
   \   00014C   740A         MOV       A,#0xa
   \   00014E   02....       LJMP      ?Subroutine5 & 0xFFFF
   \                     ??zclProcessInWriteCmd_7:
   \   000151   85..82       MOV       DPL,?V0
   \   000154   85..83       MOV       DPH,?V1
   \   000157   A3           INC       DPTR
   \   000158   A3           INC       DPTR
   \   000159   E0           MOVX      A,@DPTR
   \   00015A   F8           MOV       R0,A
   \   00015B   7406         MOV       A,#0x6
   \   00015D   12....       LCALL     ?XSTACK_DISP0_8
   \   000160   E0           MOVX      A,@DPTR
   \   000161   68           XRL       A,R0
   \   000162   6003         JZ        $+5
   \   000164   02....       LJMP      ??zclProcessInWriteCmd_10 & 0xFFFF
   \   000167   12....       LCALL     ?Subroutine106 & 0xFFFF
   \                     ??CrossCallReturnLabel_492:
   \   00016A   7408         MOV       A,#0x8
   \   00016C   12....       LCALL     ?XSTACK_DISP0_8
   \   00016F   12....       LCALL     ??Subroutine196_0 & 0xFFFF
   \                     ??CrossCallReturnLabel_357:
   \   000172   6069         JZ        ??zclProcessInWriteCmd_11
   \   000174   85..82       MOV       DPL,?V6
   \   000177   85..83       MOV       DPH,?V7
   \   00017A   A3           INC       DPTR
   \   00017B   A3           INC       DPTR
   \   00017C   A3           INC       DPTR
   \   00017D   A3           INC       DPTR
   \   00017E   E0           MOVX      A,@DPTR
   \   00017F   6403         XRL       A,#0x3
   \   000181   7002         JNZ       ??zclProcessInWriteCmd_12
   \   000183   A3           INC       DPTR
   \   000184   E0           MOVX      A,@DPTR
   \                     ??zclProcessInWriteCmd_12:
   \   000185   7047         JNZ       ??zclProcessInWriteCmd_13
   \   000187   85..82       MOV       DPL,?V0
   \   00018A   85..83       MOV       DPH,?V1
   \   00018D   12....       LCALL     ??Subroutine196_0 & 0xFFFF
   \                     ??CrossCallReturnLabel_358:
   \   000190   703C         JNZ       ??zclProcessInWriteCmd_13
   \   000192                ; Setup parameters for call to function osal_memcpy
   \   000192   85..82       MOV       DPL,?V0
   \   000195   85..83       MOV       DPH,?V1
   \   000198   A3           INC       DPTR
   \   000199   A3           INC       DPTR
   \   00019A   A3           INC       DPTR
   \   00019B   12....       LCALL     ??Subroutine210_0 & 0xFFFF
   \                     ??CrossCallReturnLabel_466:
   \   00019E   75..00       MOV       ?V10,#0x0
   \   0001A1   78..         MOV       R0,#?V8
   \   0001A3   12....       LCALL     ?PUSH_XSTACK_I_THREE
   \   0001A6   7C02         MOV       R4,#0x2
   \   0001A8   7D00         MOV       R5,#0x0
   \   0001AA   7403         MOV       A,#0x3
   \   0001AC   12....       LCALL     ?XSTACK_DISP101_8
   \   0001AF   12....       LCALL     ??Subroutine200_0 & 0xFFFF
   \                     ??CrossCallReturnLabel_388:
   \   0001B2   12....       LCALL     ?DEALLOC_XSTACK8
   \   0001B5                ; Setup parameters for call to function bdb_ZclIdentifyCmdInd
   \   0001B5   85..82       MOV       DPL,?V2
   \   0001B8   85..83       MOV       DPH,?V3
   \   0001BB   12....       LCALL     ?Subroutine69 & 0xFFFF
   \                     ??CrossCallReturnLabel_109:
   \   0001BE   F9           MOV       R1,A
   \   0001BF   85..82       MOV       DPL,?XSP + 0
   \   0001C2   85..83       MOV       DPH,?XSP + 1
   \   0001C5   12....       LCALL     ??Subroutine208_0 & 0xFFFF
   \                     ??CrossCallReturnLabel_446:
   \   0001C8   12....       LCALL     `??bdb_ZclIdentifyCmdInd::?relay`; Banked call to: bdb_ZclIdentifyCmdInd
   \   0001CB   02....       LJMP      ??CrossCallReturnLabel_7 & 0xFFFF
   \                     ??zclProcessInWriteCmd_13:
   \   0001CE                ; Setup parameters for call to function zclWriteAttrData
   \   0001CE   78..         MOV       R0,#?V0
   \   0001D0   12....       LCALL     ?PUSH_XSTACK_I_TWO
   \   0001D3   7404         MOV       A,#0x4
   \   0001D5   12....       LCALL     ?XSTACK_DISP102_8
   \   0001D8   12....       LCALL     ?Subroutine119 & 0xFFFF
   \                     ??CrossCallReturnLabel_209:
   \   0001DB   801F         SJMP      ??CrossCallReturnLabel_185
   \                     ??zclProcessInWriteCmd_11:
   \   0001DD                ; Setup parameters for call to function zclWriteAttrDataUsingCB
   \   0001DD   85..82       MOV       DPL,?V0
   \   0001E0   85..83       MOV       DPH,?V1
   \   0001E3   A3           INC       DPTR
   \   0001E4   A3           INC       DPTR
   \   0001E5   A3           INC       DPTR
   \   0001E6   12....       LCALL     ?PUSH_XSTACK8_X_TWO
   \   0001E9   7404         MOV       A,#0x4
   \   0001EB   12....       LCALL     ?XSTACK_DISP102_8
   \   0001EE   12....       LCALL     ?Subroutine172 & 0xFFFF
   \                     ??CrossCallReturnLabel_576:
   \   0001F1   35..         ADDC      A,?V7
   \   0001F3   FB           MOV       R3,A
   \   0001F4   12....       LCALL     ?Subroutine122 & 0xFFFF
   \                     ??CrossCallReturnLabel_485:
   \   0001F7   35..         ADDC      A,?V7
   \   0001F9   12....       LCALL     ?Subroutine107 & 0xFFFF
   \                     ??CrossCallReturnLabel_185:
   \   0001FC   7402         MOV       A,#0x2
   \   0001FE   12....       LCALL     ?DEALLOC_XSTACK8
   \   000201   E9           MOV       A,R1
   \   000202   A2..         MOV       C,?VB.0
   \   000204   4003         JC        $+5
   \   000206   02....       LJMP      ??CrossCallReturnLabel_7 & 0xFFFF
   \   000209   7003         JNZ       $+5
   \   00020B   02....       LJMP      ??CrossCallReturnLabel_7 & 0xFFFF
   \   00020E   85..82       MOV       DPL,?V12
   \   000211   85..83       MOV       DPH,?V13
   \   000214   02....       LJMP      ??zclProcessInWriteCmd_5 & 0xFFFF
   \                     ??zclProcessInWriteCmd_10:
   \   000217   A2..         MOV       C,?VB.0
   \   000219   4003         JC        $+5
   \   00021B   02....       LJMP      ??CrossCallReturnLabel_7 & 0xFFFF
   \   00021E   85..82       MOV       DPL,?V12
   \   000221   85..83       MOV       DPH,?V13
   \   000224   748D         MOV       A,#-0x73
   \   000226   02....       LJMP      ??zclProcessInWriteCmd_5 & 0xFFFF
   4594          }

   \                                 In  segment BANKED_CODE, align 1, keep-with-next
   \                     ?Subroutine16:
   \   000000   F0           MOVX      @DPTR,A
   \   000001   85..82       MOV       DPL,?V0
   \   000004   85..83       MOV       DPH,?V1
   \   000007   12....       LCALL     ?Subroutine165 & 0xFFFF
   \                     ??CrossCallReturnLabel_422:
   \   00000A   85..82       MOV       DPL,?V8
   \   00000D   85..83       MOV       DPH,?V9
   \   000010   E8           MOV       A,R0
   \   000011   F0           MOVX      @DPTR,A
   \   000012   A3           INC       DPTR
   \   000013   E9           MOV       A,R1
   \   000014   F0           MOVX      @DPTR,A
   \   000015   0E           INC       R6
   \   000016   22           RET

   \                                 In  segment BANKED_CODE, align 1, keep-with-next
   \                     ?Subroutine107:
   \   000000   F583         MOV       DPH,A
   \   000002   E0           MOVX      A,@DPTR
   \   000003   F9           MOV       R1,A
   \   000004   12....       LCALL     `??zclWriteAttrDataUsingCB::?relay`; Banked call to: zclWriteAttrDataUsingCB
   \   000007   22           RET

   \                                 In  segment BANKED_CODE, align 1, keep-with-next
   \                     ?Subroutine122:
   \   000000   E5..         MOV       A,?V6
   \   000002                REQUIRE ??Subroutine216_0
   \   000002                ; // Fall through to label ??Subroutine216_0

   \                                 In  segment BANKED_CODE, align 1, keep-with-next
   \                     ?Subroutine119:
   \   000000   12....       LCALL     ?Subroutine172 & 0xFFFF
   \                     ??CrossCallReturnLabel_577:
   \   000003   35..         ADDC      A,?V7
   \   000005   FB           MOV       R3,A
   \   000006   12....       LCALL     ?Subroutine170 & 0xFFFF
   \                     ??CrossCallReturnLabel_515:
   \   000009   12....       LCALL     `??zclWriteAttrData::?relay`; Banked call to: zclWriteAttrData
   \   00000C   22           RET

   \                                 In  segment BANKED_CODE, align 1, keep-with-next
   \                     ?Subroutine106:
   \   000000   85..82       MOV       DPL,?V2
   \   000003   85..83       MOV       DPH,?V3
   \   000006                REQUIRE ??Subroutine217_0
   \   000006                ; // Fall through to label ??Subroutine217_0

   \                                 In  segment BANKED_CODE, align 1, keep-with-next
   \                     ?Subroutine64:
   \   000000   E0           MOVX      A,@DPTR
   \   000001   75F003       MOV       B,#0x3
   \   000004   A4           MUL       AB
   \   000005   A9F0         MOV       R1,B
   \   000007   2401         ADD       A,#0x1
   \   000009   FA           MOV       R2,A
   \   00000A   E4           CLR       A
   \   00000B   39           ADDC      A,R1
   \   00000C   FB           MOV       R3,A
   \   00000D   12....       LCALL     `??osal_mem_alloc::?relay`; Banked call to: osal_mem_alloc
   \   000010   22           RET

   \                                 In  segment BANKED_CODE, align 1, keep-with-next
   \                     ?Subroutine46:
   \   000000   8E82         MOV       DPL,R6
   \   000002   8F83         MOV       DPH,R7
   \   000004   12....       LCALL     ?Subroutine151 & 0xFFFF
   \                     ??CrossCallReturnLabel_519:
   \   000007   EE           MOV       A,R6
   \   000008   12....       LCALL     ??Subroutine231_0 & 0xFFFF
   \                     ??CrossCallReturnLabel_574:
   \   00000B   3F           ADDC      A,R7
   \   00000C   FB           MOV       R3,A
   \   00000D   EE           MOV       A,R6
   \   00000E   12....       LCALL     ?Subroutine171 & 0xFFFF
   \                     ??CrossCallReturnLabel_544:
   \   000011   3F           ADDC      A,R7
   \   000012   F583         MOV       DPH,A
   \   000014   E0           MOVX      A,@DPTR
   \   000015   F9           MOV       R1,A
   \   000016   12....       LCALL     `??zcl_SendWriteRsp::?relay`; Banked call to: zcl_SendWriteRsp
   \   000019   7405         MOV       A,#0x5
   \   00001B   22           RET

   \                                 In  segment BANKED_CODE, align 1, keep-with-next
   \                     ??Subroutine222_0:
   \   000000   12....       LCALL     ??Subroutine223_0 & 0xFFFF
   \                     ??CrossCallReturnLabel_523:
   \   000003   85..82       MOV       DPL,?V6
   \   000006   85..83       MOV       DPH,?V7
   \   000009   12....       LCALL     ?Subroutine162 & 0xFFFF
   \                     ??CrossCallReturnLabel_582:
   \   00000C   12....       LCALL     ?Subroutine170 & 0xFFFF
   \                     ??CrossCallReturnLabel_516:
   \   00000F   12....       LCALL     `??zclFindAttrRec::?relay`; Banked call to: zclFindAttrRec
   \   000012   7402         MOV       A,#0x2
   \   000014   22           RET

   \                                 In  segment BANKED_CODE, align 1, keep-with-next
   \                     ?Subroutine170:
   \   000000   E5..         MOV       A,?V6
   \   000002   12....       LCALL     ?Subroutine178 & 0xFFFF
   \                     ??CrossCallReturnLabel_555:
   \   000005   35..         ADDC      A,?V7
   \   000007   F583         MOV       DPH,A
   \   000009   E0           MOVX      A,@DPTR
   \   00000A   F9           MOV       R1,A
   \   00000B   22           RET

   \                                 In  segment BANKED_CODE, align 1, keep-with-next
   \                     ?Subroutine172:
   \   000000   E5..         MOV       A,?V6
   \   000002                REQUIRE ??Subroutine231_0
   \   000002                ; // Fall through to label ??Subroutine231_0

   \                                 In  segment BANKED_CODE, align 1, keep-with-next
   \                     ?Subroutine162:
   \   000000   A3           INC       DPTR
   \   000001   A3           INC       DPTR
   \   000002   A3           INC       DPTR
   \   000003   A3           INC       DPTR
   \   000004                REQUIRE ??Subroutine232_0
   \   000004                ; // Fall through to label ??Subroutine232_0
   4595          
   4596          /*********************************************************************
   4597           * @fn      zclRevertWriteUndividedCmd
   4598           *
   4599           * @brief   Revert the "Profile" Write Undevided Command
   4600           *
   4601           * @param   pInMsg - incoming message to process
   4602           * @param   curWriteRec - old data
   4603           * @param   numAttr - number of attributes to be reverted
   4604           *
   4605           * @return  none
   4606           */

   \                                 In  segment BANKED_CODE, align 1, keep-with-next
   4607          static void zclRevertWriteUndividedCmd( zclIncoming_t *pInMsg,
   \                     zclRevertWriteUndividedCmd:
   4608                                              zclWriteRec_t *curWriteRec, uint16 numAttr )
   4609          {
   \   000000                REQUIRE ?V0
   \   000000                REQUIRE ?V2
   \   000000                REQUIRE ?V3
   \   000000                REQUIRE ?V4
   \   000000                REQUIRE ?V5
   \   000000                REQUIRE ?V6
   \   000000                REQUIRE ?V7
   \   000000                REQUIRE ?V8
   \   000000                REQUIRE ?V9
   \   000000                REQUIRE ?V10
   \   000000                REQUIRE ?V11
   \   000000   74EC         MOV       A,#-0x14
   \   000002   12....       LCALL     ?BANKED_ENTER_XDATA
   \   000005                ; Saved register size: 20
   \   000005                ; Auto size: 8
   \   000005   74F8         MOV       A,#-0x8
   \   000007   12....       LCALL     ?ALLOC_XSTACK8
   \   00000A   8A..         MOV       ?V2,R2
   \   00000C   8B..         MOV       ?V3,R3
   \   00000E   8C..         MOV       ?V10,R4
   \   000010   8D..         MOV       ?V11,R5
   4610            uint8 i;
   4611          
   4612            for ( i = 0; i < numAttr; i++ )
   \   000012   75..00       MOV       ?V0,#0x0
   \   000015   741C         MOV       A,#0x1c
   \   000017   12....       LCALL     ?XSTACK_DISP0_8
   \   00001A   12....       LCALL     ??Subroutine210_0 & 0xFFFF
   \                     ??CrossCallReturnLabel_467:
   \   00001D   802C         SJMP      ??zclRevertWriteUndividedCmd_0
   4613            {
   4614              zclAttrRec_t attrRec;
   4615              zclWriteRec_t *statusRec = &(curWriteRec[i]);
   4616          
   4617              if ( !zclFindAttrRec( pInMsg->msg->endPoint, pInMsg->msg->clusterId,
   4618                                    statusRec->attrID, &attrRec ) )
   4619              {
   4620                break; // should never happen
   4621              }
   4622          
   4623              if ( attrRec.attr.dataPtr != NULL )
   4624              {
   4625                // Just copy the old data back - no need to validate the data
   4626                uint16 dataLen = zclGetAttrDataLength( attrRec.attr.dataType, statusRec->attrData );
   4627                zcl_memcpy( attrRec.attr.dataPtr, statusRec->attrData, dataLen );
   4628              }
   4629              else // Use CB
   4630              {
   4631                // Write the old data back
   4632                zclWriteAttrDataUsingCB( pInMsg->msg->endPoint, &(pInMsg->msg->srcAddr),
   4633                                         &attrRec, statusRec->attrData );
   \                     ??zclRevertWriteUndividedCmd_1:
   \   00001F   85..82       MOV       DPL,?V2
   \   000022   85..83       MOV       DPH,?V3
   \   000025   12....       LCALL     ??Subroutine209_0 & 0xFFFF
   4634              }
   \                     ??CrossCallReturnLabel_460:
   \   000028                ; Setup parameters for call to function zclWriteAttrDataUsingCB
   \   000028   8A..         MOV       ?V4,R2
   \   00002A   8B..         MOV       ?V5,R3
   \   00002C   78..         MOV       R0,#?V4
   \   00002E   12....       LCALL     ?PUSH_XSTACK_I_TWO
   \   000031   7402         MOV       A,#0x2
   \   000033   12....       LCALL     ?XSTACK_DISP102_8
   \   000036   EE           MOV       A,R6
   \   000037   12....       LCALL     ??Subroutine231_0 & 0xFFFF
   \                     ??CrossCallReturnLabel_571:
   \   00003A   3F           ADDC      A,R7
   \   00003B   FB           MOV       R3,A
   \   00003C   EE           MOV       A,R6
   \   00003D   12....       LCALL     ??Subroutine216_0 & 0xFFFF
   \                     ??CrossCallReturnLabel_481:
   \   000040   3F           ADDC      A,R7
   \   000041   12....       LCALL     ?Subroutine107 & 0xFFFF
   \                     ??CrossCallReturnLabel_186:
   \   000044   7402         MOV       A,#0x2
   \   000046   12....       LCALL     ?DEALLOC_XSTACK8
   \                     ??zclRevertWriteUndividedCmd_2:
   \   000049   05..         INC       ?V0
   \                     ??zclRevertWriteUndividedCmd_0:
   \   00004B   C3           CLR       C
   \   00004C   E5..         MOV       A,?V0
   \   00004E   95..         SUBB      A,?V8
   \   000050   E4           CLR       A
   \   000051   95..         SUBB      A,?V9
   \   000053   4003         JC        $+5
   \   000055   02....       LJMP      ??zclRevertWriteUndividedCmd_3 & 0xFFFF
   \   000058   E5..         MOV       A,?V0
   \   00005A   75F005       MOV       B,#0x5
   \   00005D   A4           MUL       AB
   \   00005E   F8           MOV       R0,A
   \   00005F   A9F0         MOV       R1,B
   \   000061   E5..         MOV       A,?V10
   \   000063   28           ADD       A,R0
   \   000064   FE           MOV       R6,A
   \   000065   E5..         MOV       A,?V11
   \   000067   39           ADDC      A,R1
   \   000068   FF           MOV       R7,A
   \   000069   85..82       MOV       DPL,?V2
   \   00006C   85..83       MOV       DPH,?V3
   \   00006F   12....       LCALL     ?Subroutine114 & 0xFFFF
   \                     ??CrossCallReturnLabel_205:
   \   000072                ; Setup parameters for call to function zclFindAttrRec
   \   000072   A8..         MOV       R0,?XSP + 0
   \   000074   A9..         MOV       R1,?XSP + 1
   \   000076   88..         MOV       ?V6,R0
   \   000078   89..         MOV       ?V7,R1
   \   00007A   78..         MOV       R0,#?V6
   \   00007C   12....       LCALL     ?PUSH_XSTACK_I_TWO
   \   00007F   8E82         MOV       DPL,R6
   \   000081   8F83         MOV       DPH,R7
   \   000083   12....       LCALL     ??Subroutine212_0 & 0xFFFF
   \                     ??CrossCallReturnLabel_473:
   \   000086   85..82       MOV       DPL,?V4
   \   000089   85..83       MOV       DPH,?V5
   \   00008C   12....       LCALL     ??Subroutine206_0 & 0xFFFF
   \                     ??CrossCallReturnLabel_451:
   \   00008F   E5..         MOV       A,?V4
   \   000091   12....       LCALL     ??Subroutine216_0 & 0xFFFF
   \                     ??CrossCallReturnLabel_482:
   \   000094   35..         ADDC      A,?V5
   \   000096   F583         MOV       DPH,A
   \   000098   E0           MOVX      A,@DPTR
   \   000099   12....       LCALL     ?Subroutine128 & 0xFFFF
   \                     ??CrossCallReturnLabel_297:
   \   00009C   12....       LCALL     ?DEALLOC_XSTACK8
   \   00009F   E9           MOV       A,R1
   \   0000A0   6045         JZ        ??zclRevertWriteUndividedCmd_3
   \   0000A2   EE           MOV       A,R6
   \   0000A3   2403         ADD       A,#0x3
   \   0000A5   F5..         MOV       ?V4,A
   \   0000A7   E4           CLR       A
   \   0000A8   3F           ADDC      A,R7
   \   0000A9   F5..         MOV       ?V5,A
   \   0000AB   85..82       MOV       DPL,?V4
   \   0000AE   F583         MOV       DPH,A
   \   0000B0   12....       LCALL     ??Subroutine208_0 & 0xFFFF
   \                     ??CrossCallReturnLabel_447:
   \   0000B3   7406         MOV       A,#0x6
   \   0000B5   12....       LCALL     ?XSTACK_DISP0_8
   \   0000B8   12....       LCALL     ??Subroutine209_0 & 0xFFFF
   \                     ??CrossCallReturnLabel_461:
   \   0000BB   EE           MOV       A,R6
   \   0000BC   4F           ORL       A,R7
   \   0000BD   7003         JNZ       $+5
   \   0000BF   02....       LJMP      ??zclRevertWriteUndividedCmd_1 & 0xFFFF
   \   0000C2                ; Setup parameters for call to function zclGetAttrDataLength
   \   0000C2   7404         MOV       A,#0x4
   \   0000C4   12....       LCALL     ?XSTACK_DISP0_8
   \   0000C7   12....       LCALL     ??Subroutine184_0 & 0xFFFF
   \                     ??CrossCallReturnLabel_304:
   \   0000CA   8A..         MOV       ?V6,R2
   \   0000CC   8B..         MOV       ?V7,R3
   \   0000CE   AC..         MOV       R4,?V6
   \   0000D0   AD..         MOV       R5,?V7
   \   0000D2                ; Setup parameters for call to function osal_memcpy
   \   0000D2   85..82       MOV       DPL,?V4
   \   0000D5   85..83       MOV       DPH,?V5
   \   0000D8   12....       LCALL     ?Subroutine54 & 0xFFFF
   4635            } // for loop
   \                     ??CrossCallReturnLabel_70:
   \   0000DB   12....       LCALL     ?PUSH_XSTACK_I_THREE
   \   0000DE   12....       LCALL     ?Subroutine135 & 0xFFFF
   \                     ??CrossCallReturnLabel_382:
   \   0000E1   12....       LCALL     ?DEALLOC_XSTACK8
   \   0000E4   02....       LJMP      ??zclRevertWriteUndividedCmd_2 & 0xFFFF
   4636          }
   \                     ??zclRevertWriteUndividedCmd_3:
   \   0000E7   7408         MOV       A,#0x8
   \   0000E9   80..         SJMP      ??Subroutine213_0

   \                                 In  segment BANKED_CODE, align 1, keep-with-next
   \                     ??Subroutine213_0:
   \   000000   12....       LCALL     ?DEALLOC_XSTACK8
   \   000003                REQUIRE ??Subroutine214_0
   \   000003                ; // Fall through to label ??Subroutine214_0

   \                                 In  segment BANKED_CODE, align 1, keep-with-next
   \                     ?Subroutine114:
   \   000000   12....       LCALL     ?Subroutine176 & 0xFFFF
   \                     ??CrossCallReturnLabel_431:
   \   000003   88..         MOV       ?V4,R0
   \   000005   F5..         MOV       ?V5,A
   \   000007   22           RET
   4637          
   4638          /*********************************************************************
   4639           * @fn      zclProcessInWriteUndividedCmd
   4640           *
   4641           * @brief   Process the "Profile" Write Undivided Command
   4642           *
   4643           * @param   pInMsg - incoming message to process
   4644           *
   4645           * @return  TRUE if command processed. FALSE, otherwise.
   4646           */

   \                                 In  segment BANKED_CODE, align 1, keep-with-next
   4647          static uint8 zclProcessInWriteUndividedCmd( zclIncoming_t *pInMsg )
   \                     zclProcessInWriteUndividedCmd:
   4648          {
   \   000000                REQUIRE ?V0
   \   000000                REQUIRE ?V1
   \   000000                REQUIRE ?V2
   \   000000                REQUIRE ?V3
   \   000000                REQUIRE ?V4
   \   000000                REQUIRE ?V5
   \   000000                REQUIRE ?V6
   \   000000                REQUIRE ?V7
   \   000000                REQUIRE ?V8
   \   000000                REQUIRE ?V9
   \   000000                REQUIRE ?V10
   \   000000                REQUIRE ?V11
   \   000000                REQUIRE ?V12
   \   000000                REQUIRE ?V13
   \   000000                REQUIRE ?V14
   \   000000                REQUIRE ?V15
   \   000000   74E8         MOV       A,#-0x18
   \   000002   12....       LCALL     ?BANKED_ENTER_XDATA
   \   000005                ; Saved register size: 24
   \   000005                ; Auto size: 12
   \   000005   74F4         MOV       A,#-0xc
   \   000007   12....       LCALL     ?ALLOC_XSTACK8
   \   00000A   8A..         MOV       ?V4,R2
   \   00000C   8B..         MOV       ?V5,R3
   4649            zclWriteCmd_t *writeCmd;
   4650            zclWriteRspCmd_t *writeRspCmd;
   4651            zclAttrRec_t attrRec;
   4652            uint16 dataLen;
   4653            uint16 curLen = 0;
   \   00000E   75..00       MOV       ?V8,#0x0
   \   000011   75..00       MOV       ?V9,#0x0
   4654            uint8 j = 0;
   \   000014   7E00         MOV       R6,#0x0
   4655            uint8 i;
   4656          
   4657            writeCmd = (zclWriteCmd_t *)pInMsg->attrCmd;
   \   000016   12....       LCALL     ??Subroutine224_0 & 0xFFFF
   \                     ??CrossCallReturnLabel_527:
   \   000019   35..         ADDC      A,?V5
   \   00001B   F583         MOV       DPH,A
   \   00001D   12....       LCALL     ??Subroutine205_0 & 0xFFFF
   \                     ??CrossCallReturnLabel_416:
   \   000020   7402         MOV       A,#0x2
   \   000022   12....       LCALL     ?XSTACK_DISP0_8
   \   000025   12....       LCALL     ??Subroutine197_0 & 0xFFFF
   4658          
   4659            // Allocate space for Write Response Command
   4660            writeRspCmd = (zclWriteRspCmd_t *)zcl_mem_alloc( sizeof( zclWriteRspCmd_t )
   4661                             + sizeof( zclWriteRspStatus_t )* writeCmd->numAttr );
   \                     ??CrossCallReturnLabel_370:
   \   000028                ; Setup parameters for call to function osal_mem_alloc
   \   000028   7402         MOV       A,#0x2
   \   00002A   12....       LCALL     ?XSTACK_DISP0_8
   \   00002D   12....       LCALL     ?Subroutine150 & 0xFFFF
   \                     ??CrossCallReturnLabel_260:
   \   000030   12....       LCALL     ?Subroutine64 & 0xFFFF
   \                     ??CrossCallReturnLabel_102:
   \   000033   8A..         MOV       ?V0,R2
   \   000035   8B..         MOV       ?V1,R3
   4662            if ( writeRspCmd == NULL )
   \   000037   EA           MOV       A,R2
   \   000038   4B           ORL       A,R3
   \   000039   7003         JNZ       $+5
   \   00003B   02....       LJMP      ??zclProcessInWriteUndividedCmd_0 & 0xFFFF
   4663            {
   4664              return FALSE; // EMBEDDED RETURN
   4665            }
   4666          
   4667            // If any attribute cannot be written, no attribute values are changed. Hence,
   4668            // make sure all the attributes are supported and writable
   4669            for ( i = 0; i < writeCmd->numAttr; i++ )
   \   00003E   7F00         MOV       R7,#0x0
   \   000040   803C         SJMP      ??zclProcessInWriteUndividedCmd_1
   4670            {
   4671              zclWriteRec_t *statusRec = &(writeCmd->attrList[i]);
   4672          
   4673              if ( !zclFindAttrRec( pInMsg->msg->endPoint, pInMsg->msg->clusterId,
   4674                                    statusRec->attrID, &attrRec ) )
   4675              {
   4676                // Attribute is not supported - stop here
   4677                writeRspCmd->attrList[j].status = ZCL_STATUS_UNSUPPORTED_ATTRIBUTE;
   4678                writeRspCmd->attrList[j++].attrID = statusRec->attrID;
   4679                break;
   4680              }
   4681          
   4682              if ( statusRec->dataType != attrRec.attr.dataType )
   4683              {
   4684                // Attribute data type is incorrect - stope here
   4685                writeRspCmd->attrList[j].status = ZCL_STATUS_INVALID_DATA_TYPE;
   4686                writeRspCmd->attrList[j++].attrID = statusRec->attrID;
   4687                break;
   4688              }
   4689          
   4690              if ( !zcl_AccessCtrlWrite( attrRec.attr.accessControl ) )
   4691              {
   4692                // Attribute is not writable - stop here
   4693                writeRspCmd->attrList[j].status = ZCL_STATUS_READ_ONLY;
   4694                writeRspCmd->attrList[j++].attrID = statusRec->attrID;
   4695                break;
   4696              }
   4697          
   4698              if ( zcl_AccessCtrlAuthWrite( attrRec.attr.accessControl ) )
   4699              {
   4700                // Not authorized to write - stop here
   4701                writeRspCmd->attrList[j].status = ZCL_STATUS_NOT_AUTHORIZED;
   4702                writeRspCmd->attrList[j++].attrID = statusRec->attrID;
   4703                break;
   4704              }
   4705          
   4706              // Attribute Data length
   4707              if ( attrRec.attr.dataPtr != NULL )
   4708              {
   4709                dataLen = zclGetAttrDataLength( attrRec.attr.dataType, attrRec.attr.dataPtr );
   4710              }
   4711              else // Use CB
   4712              {
   4713                dataLen = zclGetAttrDataLengthUsingCB( pInMsg->msg->endPoint, pInMsg->msg->clusterId,
   4714                                                       statusRec->attrID );
   \                     ??zclProcessInWriteUndividedCmd_2:
   \   000042   12....       LCALL     ?Subroutine57 & 0xFFFF
   4715              }
   \                     ??CrossCallReturnLabel_494:
   \   000045   12....       LCALL     ??Subroutine212_0 & 0xFFFF
   \                     ??CrossCallReturnLabel_474:
   \   000048   8882         MOV       DPL,R0
   \   00004A   8983         MOV       DPH,R1
   \   00004C   12....       LCALL     ??Subroutine206_0 & 0xFFFF
   \                     ??CrossCallReturnLabel_452:
   \   00004F   12....       LCALL     ?Subroutine121 & 0xFFFF
   \                     ??CrossCallReturnLabel_214:
   \   000052   12....       LCALL     `??zclGetAttrDataLengthUsingCB::?relay`; Banked call to: zclGetAttrDataLengthUsingCB
   \                     ??zclProcessInWriteUndividedCmd_3:
   \   000055   85..82       MOV       DPL,?XSP + 0
   \   000058   85..83       MOV       DPH,?XSP + 1
   \   00005B   12....       LCALL     ??Subroutine234_0 & 0xFFFF
   4716          
   4717              // add padding if needed
   4718              if ( PADDING_NEEDED( dataLen ) )
   \                     ??CrossCallReturnLabel_591:
   \   00005E   85..82       MOV       DPL,?XSP + 0
   \   000061   85..83       MOV       DPH,?XSP + 1
   \   000064   E0           MOVX      A,@DPTR
   \   000065   A2E0         MOV       C,0xE0 /* A   */.0
   \   000067   5003         JNC       ??CrossCallReturnLabel_235
   4719              {
   4720                dataLen++;
   \   000069   12....       LCALL     ?Subroutine138 & 0xFFFF
   4721              }
   4722          
   4723              curLen += dataLen;
   \                     ??CrossCallReturnLabel_235:
   \   00006C   85..82       MOV       DPL,?XSP + 0
   \   00006F   85..83       MOV       DPH,?XSP + 1
   \   000072   E0           MOVX      A,@DPTR
   \   000073   25..         ADD       A,?V8
   \   000075   F5..         MOV       ?V8,A
   \   000077   A3           INC       DPTR
   \   000078   E0           MOVX      A,@DPTR
   \   000079   35..         ADDC      A,?V9
   \   00007B   F5..         MOV       ?V9,A
   \   00007D   0F           INC       R7
   \                     ??zclProcessInWriteUndividedCmd_1:
   \   00007E   7402         MOV       A,#0x2
   \   000080   12....       LCALL     ?XSTACK_DISP0_8
   \   000083   12....       LCALL     ?Subroutine73 & 0xFFFF
   \                     ??CrossCallReturnLabel_116:
   \   000086   5042         JNC       ??zclProcessInWriteUndividedCmd_4
   \   000088   EF           MOV       A,R7
   \   000089   75F005       MOV       B,#0x5
   \   00008C   A4           MUL       AB
   \   00008D   F8           MOV       R0,A
   \   00008E   A9F0         MOV       R1,B
   \   000090   7402         MOV       A,#0x2
   \   000092   12....       LCALL     ?XSTACK_DISP0_8
   \   000095   12....       LCALL     ?Subroutine65 & 0xFFFF
   \                     ??CrossCallReturnLabel_103:
   \   000098   12....       LCALL     ?Subroutine105 & 0xFFFF
   \                     ??CrossCallReturnLabel_183:
   \   00009B   12....       LCALL     ?XSTACK_DISP100_8
   \   00009E   88..         MOV       ?V10,R0
   \   0000A0   89..         MOV       ?V11,R1
   \   0000A2   78..         MOV       R0,#?V10
   \   0000A4   12....       LCALL     ?PUSH_XSTACK_I_TWO
   \   0000A7   12....       LCALL     ?Subroutine42 & 0xFFFF
   \                     ??CrossCallReturnLabel_512:
   \   0000AA   12....       LCALL     ?DEALLOC_XSTACK8
   \   0000AD   E9           MOV       A,R1
   \   0000AE   704A         JNZ       ??zclProcessInWriteUndividedCmd_5
   \   0000B0   85..82       MOV       DPL,?V0
   \   0000B3   85..83       MOV       DPH,?V1
   \   0000B6   A3           INC       DPTR
   \   0000B7   7486         MOV       A,#-0x7a
   \                     ??zclProcessInWriteUndividedCmd_6:
   \   0000B9   F0           MOVX      @DPTR,A
   \   0000BA   12....       LCALL     ?Subroutine89 & 0xFFFF
   \                     ??CrossCallReturnLabel_420:
   \   0000BD   85..82       MOV       DPL,?V0
   \   0000C0   85..83       MOV       DPH,?V1
   \   0000C3   A3           INC       DPTR
   \   0000C4   A3           INC       DPTR
   \   0000C5   12....       LCALL     ??Subroutine197_0 & 0xFFFF
   \                     ??CrossCallReturnLabel_371:
   \   0000C8   7E01         MOV       R6,#0x1
   4724            } // for loop
   4725          
   4726            writeRspCmd->numAttr = j;
   \                     ??zclProcessInWriteUndividedCmd_4:
   \   0000CA   EE           MOV       A,R6
   \   0000CB   85..82       MOV       DPL,?V0
   \   0000CE   85..83       MOV       DPH,?V1
   \   0000D1   F0           MOVX      @DPTR,A
   4727            if ( writeRspCmd->numAttr == 0 ) // All attributes can be written
   \   0000D2   6003         JZ        $+5
   \   0000D4   02....       LJMP      ??zclProcessInWriteUndividedCmd_7 & 0xFFFF
   4728            {
   4729              uint8 *curDataPtr;
   4730              zclWriteRec_t *curWriteRec;
   4731          
   4732              // calculate the length of the current data header
   4733              uint8 hdrLen = j * sizeof( zclWriteRec_t );
   \   0000D7   75F005       MOV       B,#0x5
   \   0000DA   A4           MUL       AB
   \   0000DB   FF           MOV       R7,A
   4734          
   4735              // Allocate space to keep a copy of the current data
   4736              curWriteRec = (zclWriteRec_t *) zcl_mem_alloc( hdrLen + curLen );
   \   0000DC                ; Setup parameters for call to function osal_mem_alloc
   \   0000DC   25..         ADD       A,?V8
   \   0000DE   FA           MOV       R2,A
   \   0000DF   E4           CLR       A
   \   0000E0   35..         ADDC      A,?V9
   \   0000E2   FB           MOV       R3,A
   \   0000E3   12....       LCALL     `??osal_mem_alloc::?relay`; Banked call to: osal_mem_alloc
   \   0000E6   8A..         MOV       ?V14,R2
   \   0000E8   8B..         MOV       ?V15,R3
   4737              if ( curWriteRec == NULL )
   \   0000EA   EA           MOV       A,R2
   \   0000EB   4B           ORL       A,R3
   \   0000EC   705C         JNZ       ??zclProcessInWriteUndividedCmd_8
   4738              {
   4739                zcl_mem_free(writeRspCmd );
   \   0000EE                ; Setup parameters for call to function osal_mem_free
   \   0000EE   AA..         MOV       R2,?V0
   \   0000F0   AB..         MOV       R3,?V1
   \   0000F2   12....       LCALL     `??osal_mem_free::?relay`; Banked call to: osal_mem_free
   4740                return FALSE; // EMBEDDED RETURN
   \                     ??zclProcessInWriteUndividedCmd_0:
   \   0000F5   7900         MOV       R1,#0x0
   \   0000F7   02....       LJMP      ??zclProcessInWriteUndividedCmd_9 & 0xFFFF
   4741              }
   \                     ??zclProcessInWriteUndividedCmd_5:
   \   0000FA   7408         MOV       A,#0x8
   \   0000FC   12....       LCALL     ?XSTACK_DISP0_8
   \   0000FF   12....       LCALL     ??Subroutine219_0 & 0xFFFF
   \                     ??CrossCallReturnLabel_496:
   \   000102   A3           INC       DPTR
   \   000103   A3           INC       DPTR
   \   000104   E0           MOVX      A,@DPTR
   \   000105   69           XRL       A,R1
   \   000106   600B         JZ        ??zclProcessInWriteUndividedCmd_10
   \   000108   85..82       MOV       DPL,?V0
   \   00010B   85..83       MOV       DPH,?V1
   \   00010E   A3           INC       DPTR
   \   00010F   748D         MOV       A,#-0x73
   \   000111   80A6         SJMP      ??zclProcessInWriteUndividedCmd_6
   \                     ??zclProcessInWriteUndividedCmd_10:
   \   000113   7409         MOV       A,#0x9
   \   000115   12....       LCALL     ?XSTACK_DISP0_8
   \   000118   E0           MOVX      A,@DPTR
   \   000119   A2E1         MOV       C,0xE0 /* A   */.1
   \   00011B   400B         JC        ??zclProcessInWriteUndividedCmd_11
   \   00011D   85..82       MOV       DPL,?V0
   \   000120   85..83       MOV       DPH,?V1
   \   000123   A3           INC       DPTR
   \   000124   7488         MOV       A,#-0x78
   \   000126   8091         SJMP      ??zclProcessInWriteUndividedCmd_6
   \                     ??zclProcessInWriteUndividedCmd_11:
   \   000128   A2E5         MOV       C,0xE0 /* A   */.5
   \   00012A   500B         JNC       ??zclProcessInWriteUndividedCmd_12
   \   00012C   85..82       MOV       DPL,?V0
   \   00012F   85..83       MOV       DPH,?V1
   \   000132   A3           INC       DPTR
   \   000133   747E         MOV       A,#0x7e
   \   000135   8082         SJMP      ??zclProcessInWriteUndividedCmd_6
   \                     ??zclProcessInWriteUndividedCmd_12:
   \   000137   740A         MOV       A,#0xa
   \   000139   12....       LCALL     ?XSTACK_DISP0_8
   \   00013C   12....       LCALL     ??Subroutine185_0 & 0xFFFF
   \                     ??CrossCallReturnLabel_317:
   \   00013F   7003         JNZ       $+5
   \   000141   02....       LJMP      ??zclProcessInWriteUndividedCmd_2 & 0xFFFF
   \   000144                ; Setup parameters for call to function zclGetAttrDataLength
   \   000144   12....       LCALL     `??zclGetAttrDataLength::?relay`; Banked call to: zclGetAttrDataLength
   \   000147   02....       LJMP      ??zclProcessInWriteUndividedCmd_3 & 0xFFFF
   4742          
   4743              curDataPtr = (uint8 *)((uint8 *)curWriteRec + hdrLen);
   \                     ??zclProcessInWriteUndividedCmd_8:
   \   00014A   EA           MOV       A,R2
   \   00014B   2F           ADD       A,R7
   \   00014C   F5..         MOV       ?V8,A
   \   00014E   E4           CLR       A
   \   00014F   3B           ADDC      A,R3
   \   000150   F5..         MOV       ?V9,A
   4744          
   4745              // Write the new data over
   4746              for ( i = 0; i < writeCmd->numAttr; i++ )
   \   000152   7F00         MOV       R7,#0x0
   \   000154   8022         SJMP      ??zclProcessInWriteUndividedCmd_13
   4747              {
   4748                uint8 status;
   4749                zclWriteRec_t *statusRec = &(writeCmd->attrList[i]);
   4750                zclWriteRec_t *curStatusRec = &(curWriteRec[i]);
   4751          
   4752                if ( !zclFindAttrRec( pInMsg->msg->endPoint, pInMsg->msg->clusterId,
   4753                                      statusRec->attrID, &attrRec ) )
   4754                {
   4755                  break; // should never happen
   4756                }
   4757          
   4758                // Keep a copy of the current data before before writing the new data over
   4759                curStatusRec->attrID = statusRec->attrID;
   4760                curStatusRec->attrData = curDataPtr;
   4761          
   4762                if ( attrRec.attr.dataPtr != NULL )
   4763                {
   4764                  // Read the current value
   4765                  zclReadAttrData( curDataPtr, &attrRec, &dataLen );
   4766          
   4767                  // Write the new attribute value
   4768                  status = zclWriteAttrData( pInMsg->msg->endPoint, &(pInMsg->msg->srcAddr),
   4769                                             &attrRec, statusRec );
   4770                }
   4771                else // Use CBs
   4772                {
   4773                  // Read the current value
   4774                  zclReadAttrDataUsingCB( pInMsg->msg->endPoint, pInMsg->msg->clusterId,
   4775                                          statusRec->attrID, curDataPtr, &dataLen );
   4776                  // Write the new attribute value
   4777                  status = zclWriteAttrDataUsingCB( pInMsg->msg->endPoint, &(pInMsg->msg->srcAddr),
   4778                                                    &attrRec, statusRec->attrData );
   4779                }
   4780          
   4781                // If successful, a write attribute status record shall NOT be generated
   4782                if ( status != ZCL_STATUS_SUCCESS )
   4783                {
   4784                  writeRspCmd->attrList[j].status = status;
   4785                  writeRspCmd->attrList[j++].attrID = statusRec->attrID;
   4786          
   4787                  // Since this write failed, we need to revert all the pervious writes
   4788                  zclRevertWriteUndividedCmd( pInMsg, curWriteRec, i);
   4789                  break;
   4790                }
   4791          
   4792                // add padding if needed
   4793                if ( PADDING_NEEDED( dataLen ) )
   \                     ??zclProcessInWriteUndividedCmd_14:
   \   000156   85..82       MOV       DPL,?XSP + 0
   \   000159   85..83       MOV       DPH,?XSP + 1
   \   00015C   E0           MOVX      A,@DPTR
   \   00015D   A2E0         MOV       C,0xE0 /* A   */.0
   \   00015F   5003         JNC       ??CrossCallReturnLabel_236
   4794                {
   4795                  dataLen++;
   \   000161   12....       LCALL     ?Subroutine138 & 0xFFFF
   4796                }
   4797          
   4798                curDataPtr += dataLen;
   \                     ??CrossCallReturnLabel_236:
   \   000164   85..82       MOV       DPL,?XSP + 0
   \   000167   85..83       MOV       DPH,?XSP + 1
   \   00016A   12....       LCALL     ??Subroutine205_0 & 0xFFFF
   \                     ??CrossCallReturnLabel_417:
   \   00016D   E5..         MOV       A,?V8
   \   00016F   28           ADD       A,R0
   \   000170   F5..         MOV       ?V8,A
   \   000172   E5..         MOV       A,?V9
   \   000174   39           ADDC      A,R1
   \   000175   F5..         MOV       ?V9,A
   \   000177   0F           INC       R7
   \                     ??zclProcessInWriteUndividedCmd_13:
   \   000178   7402         MOV       A,#0x2
   \   00017A   12....       LCALL     ?XSTACK_DISP0_8
   \   00017D   12....       LCALL     ?Subroutine73 & 0xFFFF
   \                     ??CrossCallReturnLabel_117:
   \   000180   4003         JC        $+5
   \   000182   02....       LJMP      ??zclProcessInWriteUndividedCmd_15 & 0xFFFF
   \   000185   EF           MOV       A,R7
   \   000186   75F005       MOV       B,#0x5
   \   000189   A4           MUL       AB
   \   00018A   F8           MOV       R0,A
   \   00018B   A9F0         MOV       R1,B
   \   00018D   7402         MOV       A,#0x2
   \   00018F   12....       LCALL     ?XSTACK_DISP0_8
   \   000192   12....       LCALL     ?Subroutine65 & 0xFFFF
   \                     ??CrossCallReturnLabel_104:
   \   000195   E5..         MOV       A,?V14
   \   000197   28           ADD       A,R0
   \   000198   F5..         MOV       ?V12,A
   \   00019A   E5..         MOV       A,?V15
   \   00019C   39           ADDC      A,R1
   \   00019D   F5..         MOV       ?V13,A
   \   00019F   12....       LCALL     ?Subroutine105 & 0xFFFF
   \                     ??CrossCallReturnLabel_184:
   \   0001A2   12....       LCALL     ?XSTACK_DISP100_8
   \   0001A5   88..         MOV       ?V10,R0
   \   0001A7   89..         MOV       ?V11,R1
   \   0001A9   78..         MOV       R0,#?V10
   \   0001AB   12....       LCALL     ?PUSH_XSTACK_I_TWO
   \   0001AE   12....       LCALL     ?Subroutine42 & 0xFFFF
   \                     ??CrossCallReturnLabel_513:
   \   0001B1   12....       LCALL     ?DEALLOC_XSTACK8
   \   0001B4   E9           MOV       A,R1
   \   0001B5   7003         JNZ       $+5
   \   0001B7   02....       LJMP      ??zclProcessInWriteUndividedCmd_15 & 0xFFFF
   \   0001BA   12....       LCALL     ?Subroutine89 & 0xFFFF
   \                     ??CrossCallReturnLabel_421:
   \   0001BD   85..82       MOV       DPL,?V12
   \   0001C0   85..83       MOV       DPH,?V13
   \   0001C3   12....       LCALL     ??Subroutine197_0 & 0xFFFF
   \                     ??CrossCallReturnLabel_372:
   \   0001C6   85..82       MOV       DPL,?V12
   \   0001C9   85..83       MOV       DPH,?V13
   \   0001CC   A3           INC       DPTR
   \   0001CD   A3           INC       DPTR
   \   0001CE   A3           INC       DPTR
   \   0001CF   E5..         MOV       A,?V8
   \   0001D1   F0           MOVX      @DPTR,A
   \   0001D2   A3           INC       DPTR
   \   0001D3   E5..         MOV       A,?V9
   \   0001D5   F0           MOVX      @DPTR,A
   \   0001D6   740A         MOV       A,#0xa
   \   0001D8   12....       LCALL     ?XSTACK_DISP0_8
   \   0001DB   12....       LCALL     ??Subroutine196_0 & 0xFFFF
   \                     ??CrossCallReturnLabel_359:
   \   0001DE   6036         JZ        ??zclProcessInWriteUndividedCmd_16
   \   0001E0                ; Setup parameters for call to function zclReadAttrData
   \   0001E0   A8..         MOV       R0,?XSP + 0
   \   0001E2   A9..         MOV       R1,?XSP + 1
   \   0001E4   88..         MOV       ?V6,R0
   \   0001E6   89..         MOV       ?V7,R1
   \   0001E8   78..         MOV       R0,#?V6
   \   0001EA   12....       LCALL     ?PUSH_XSTACK_I_TWO
   \   0001ED   7406         MOV       A,#0x6
   \   0001EF   12....       LCALL     ?XSTACK_DISP102_8
   \   0001F2   AA..         MOV       R2,?V8
   \   0001F4   AB..         MOV       R3,?V9
   \   0001F6   12....       LCALL     `??zclReadAttrData::?relay`; Banked call to: zclReadAttrData
   \   0001F9   7402         MOV       A,#0x2
   \   0001FB   12....       LCALL     ?DEALLOC_XSTACK8
   \   0001FE   85..82       MOV       DPL,?V4
   \   000201   85..83       MOV       DPH,?V5
   \   000204   12....       LCALL     ??Subroutine217_0 & 0xFFFF
   \                     ??CrossCallReturnLabel_489:
   \   000207                ; Setup parameters for call to function zclWriteAttrData
   \   000207   78..         MOV       R0,#?V2
   \   000209   12....       LCALL     ?PUSH_XSTACK_I_TWO
   \   00020C   7406         MOV       A,#0x6
   \   00020E   12....       LCALL     ?XSTACK_DISP102_8
   \   000211   12....       LCALL     ?Subroutine119 & 0xFFFF
   \                     ??CrossCallReturnLabel_210:
   \   000214   805A         SJMP      ??CrossCallReturnLabel_187
   \                     ??zclProcessInWriteUndividedCmd_16:
   \   000216   85..82       MOV       DPL,?V4
   \   000219   85..83       MOV       DPH,?V5
   \   00021C   12....       LCALL     ??Subroutine217_0 & 0xFFFF
   \                     ??CrossCallReturnLabel_490:
   \   00021F                ; Setup parameters for call to function zclReadAttrDataUsingCB
   \   00021F   A8..         MOV       R0,?XSP + 0
   \   000221   A9..         MOV       R1,?XSP + 1
   \   000223   88..         MOV       ?V10,R0
   \   000225   89..         MOV       ?V11,R1
   \   000227   78..         MOV       R0,#?V10
   \   000229   12....       LCALL     ?PUSH_XSTACK_I_TWO
   \   00022C   78..         MOV       R0,#?V8
   \   00022E   12....       LCALL     ?PUSH_XSTACK_I_TWO
   \   000231   85..82       MOV       DPL,?V2
   \   000234   85..83       MOV       DPH,?V3
   \   000237   12....       LCALL     ??Subroutine212_0 & 0xFFFF
   \                     ??CrossCallReturnLabel_475:
   \   00023A   85..82       MOV       DPL,?V6
   \   00023D   85..83       MOV       DPH,?V7
   \   000240   12....       LCALL     ??Subroutine206_0 & 0xFFFF
   \                     ??CrossCallReturnLabel_453:
   \   000243   12....       LCALL     ?Subroutine122 & 0xFFFF
   \                     ??CrossCallReturnLabel_486:
   \   000246   35..         ADDC      A,?V7
   \   000248   F583         MOV       DPH,A
   \   00024A   E0           MOVX      A,@DPTR
   \   00024B   F9           MOV       R1,A
   \   00024C   12....       LCALL     `??zclReadAttrDataUsingCB::?relay`; Banked call to: zclReadAttrDataUsingCB
   \   00024F   7404         MOV       A,#0x4
   \   000251   12....       LCALL     ?DEALLOC_XSTACK8
   \   000254   12....       LCALL     ?Subroutine57 & 0xFFFF
   \                     ??CrossCallReturnLabel_495:
   \   000257   A3           INC       DPTR
   \   000258   A3           INC       DPTR
   \   000259   A3           INC       DPTR
   \   00025A   12....       LCALL     ?PUSH_XSTACK8_X_TWO
   \   00025D   7406         MOV       A,#0x6
   \   00025F   12....       LCALL     ?XSTACK_DISP102_8
   \   000262   E8           MOV       A,R0
   \   000263   12....       LCALL     ??Subroutine231_0 & 0xFFFF
   \                     ??CrossCallReturnLabel_572:
   \   000266   39           ADDC      A,R1
   \   000267   FB           MOV       R3,A
   \   000268   E8           MOV       A,R0
   \   000269   12....       LCALL     ??Subroutine216_0 & 0xFFFF
   \                     ??CrossCallReturnLabel_483:
   \   00026C   39           ADDC      A,R1
   \   00026D   12....       LCALL     ?Subroutine107 & 0xFFFF
   \                     ??CrossCallReturnLabel_187:
   \   000270   7402         MOV       A,#0x2
   \   000272   12....       LCALL     ?DEALLOC_XSTACK8
   \   000275   E9           MOV       A,R1
   \   000276   FA           MOV       R2,A
   \   000277   EA           MOV       A,R2
   \   000278   7003         JNZ       $+5
   \   00027A   02....       LJMP      ??zclProcessInWriteUndividedCmd_14 & 0xFFFF
   \   00027D   EE           MOV       A,R6
   \   00027E   75F003       MOV       B,#0x3
   \   000281   A4           MUL       AB
   \   000282   F8           MOV       R0,A
   \   000283   A9F0         MOV       R1,B
   \   000285   E5..         MOV       A,?V0
   \   000287   28           ADD       A,R0
   \   000288   F8           MOV       R0,A
   \   000289   E5..         MOV       A,?V1
   \   00028B   39           ADDC      A,R1
   \   00028C   F9           MOV       R1,A
   \   00028D   EA           MOV       A,R2
   \   00028E   8882         MOV       DPL,R0
   \   000290   8983         MOV       DPH,R1
   \   000292   A3           INC       DPTR
   \   000293   F0           MOVX      @DPTR,A
   \   000294   85..82       MOV       DPL,?V2
   \   000297   85..83       MOV       DPH,?V3
   \   00029A   12....       LCALL     ?Subroutine35 & 0xFFFF
   \                     ??CrossCallReturnLabel_594:
   \   00029D   0E           INC       R6
   \   00029E                ; Setup parameters for call to function zclRevertWriteUndividedCmd
   \   00029E   EF           MOV       A,R7
   \   00029F   F5..         MOV       ?V2,A
   \   0002A1   75..00       MOV       ?V3,#0x0
   \   0002A4   78..         MOV       R0,#?V2
   \   0002A6   12....       LCALL     ?PUSH_XSTACK_I_TWO
   \   0002A9   AC..         MOV       R4,?V14
   \   0002AB   AD..         MOV       R5,?V15
   \   0002AD   AA..         MOV       R2,?V4
   \   0002AF   AB..         MOV       R3,?V5
   \   0002B1   12....       LCALL     `??zclRevertWriteUndividedCmd::?relay`; Banked call to: zclRevertWriteUndividedCmd
   \   0002B4   7402         MOV       A,#0x2
   \   0002B6   12....       LCALL     ?DEALLOC_XSTACK8
   4799              } // for loop
   4800          
   4801              writeRspCmd->numAttr = j;
   \                     ??zclProcessInWriteUndividedCmd_15:
   \   0002B9   EE           MOV       A,R6
   \   0002BA   85..82       MOV       DPL,?V0
   \   0002BD   85..83       MOV       DPH,?V1
   \   0002C0   F0           MOVX      @DPTR,A
   4802              if ( writeRspCmd->numAttr  == 0 )
   \   0002C1   7007         JNZ       ??zclProcessInWriteUndividedCmd_17
   4803              {
   4804                // Since all records were written successful, include a single status record
   4805                // in the resonse command with the status field set to SUCCESS and the
   4806                // attribute ID field omitted.
   4807                writeRspCmd->attrList[0].status = ZCL_STATUS_SUCCESS;
   \   0002C3   A3           INC       DPTR
   \   0002C4   E4           CLR       A
   \   0002C5   12....       LCALL     ?Subroutine29 & 0xFFFF
   4808                writeRspCmd->numAttr = 1;
   4809              }
   \                     ??CrossCallReturnLabel_34:
   \   0002C8   04           INC       A
   \   0002C9   F0           MOVX      @DPTR,A
   4810          
   4811              zcl_mem_free( curWriteRec );
   \                     ??zclProcessInWriteUndividedCmd_17:
   \   0002CA                ; Setup parameters for call to function osal_mem_free
   \   0002CA   AA..         MOV       R2,?V14
   \   0002CC   AB..         MOV       R3,?V15
   \   0002CE   12....       LCALL     `??osal_mem_free::?relay`; Banked call to: osal_mem_free
   4812            }
   4813          
   4814            zcl_SendWriteRsp( pInMsg->msg->endPoint, &(pInMsg->msg->srcAddr),
   4815                              pInMsg->msg->clusterId, writeRspCmd, !pInMsg->hdr.fc.direction,
   4816                              true, pInMsg->hdr.transSeqNum );
   \                     ??zclProcessInWriteUndividedCmd_7:
   \   0002D1   12....       LCALL     ?Subroutine75 & 0xFFFF
   \                     ??CrossCallReturnLabel_463:
   \   0002D4                ; Setup parameters for call to function zcl_SendWriteRsp
   \   0002D4   85..82       MOV       DPL,?V4
   \   0002D7   85..83       MOV       DPH,?V5
   \   0002DA   12....       LCALL     ??Subroutine220_0 & 0xFFFF
   \                     ??CrossCallReturnLabel_509:
   \   0002DD   12....       LCALL     ?PUSH_XSTACK_I_ONE
   \   0002E0   75..01       MOV       ?V2,#0x1
   \   0002E3   78..         MOV       R0,#?V2
   \   0002E5   12....       LCALL     ?PUSH_XSTACK_I_ONE
   \   0002E8   85..82       MOV       DPL,?V4
   \   0002EB   85..83       MOV       DPH,?V5
   \   0002EE   A3           INC       DPTR
   \   0002EF   A3           INC       DPTR
   \   0002F0   12....       LCALL     ?Subroutine50 & 0xFFFF
   \                     ??CrossCallReturnLabel_63:
   \   0002F3   12....       LCALL     ?PUSH_XSTACK_I_ONE
   \   0002F6   78..         MOV       R0,#?V0
   \   0002F8   12....       LCALL     ?PUSH_XSTACK_I_TWO
   \   0002FB   12....       LCALL     ?Subroutine46 & 0xFFFF
   \                     ??CrossCallReturnLabel_59:
   \   0002FE   12....       LCALL     ?DEALLOC_XSTACK8
   4817            zcl_mem_free( writeRspCmd );
   \   000301                ; Setup parameters for call to function osal_mem_free
   \   000301   AA..         MOV       R2,?V0
   \   000303   AB..         MOV       R3,?V1
   \   000305   12....       LCALL     `??osal_mem_free::?relay`; Banked call to: osal_mem_free
   4818          
   4819            return TRUE;
   \   000308   7901         MOV       R1,#0x1
   \                     ??zclProcessInWriteUndividedCmd_9:
   \   00030A   740C         MOV       A,#0xc
   \   00030C                REQUIRE ?Subroutine5
   \   00030C                ; // Fall through to label ?Subroutine5
   4820          }

   \                                 In  segment BANKED_CODE, align 1, keep-with-next
   \                     ?Subroutine138:
   \   000000   2401         ADD       A,#0x1
   \   000002   F0           MOVX      @DPTR,A
   \   000003   A3           INC       DPTR
   \   000004   E0           MOVX      A,@DPTR
   \   000005   3400         ADDC      A,#0x0
   \   000007   F0           MOVX      @DPTR,A
   \   000008   22           RET

   \                                 In  segment BANKED_CODE, align 1, keep-with-next
   \                     ?Subroutine121:
   \   000000   E8           MOV       A,R0
   \   000001   12....       LCALL     ?Subroutine171 & 0xFFFF
   \                     ??CrossCallReturnLabel_547:
   \   000004   39           ADDC      A,R1
   \   000005   F583         MOV       DPH,A
   \   000007   E0           MOVX      A,@DPTR
   \   000008   F9           MOV       R1,A
   \   000009   22           RET

   \                                 In  segment BANKED_CODE, align 1, keep-with-next
   \                     ?Subroutine105:
   \   000000   85..82       MOV       DPL,?V4
   \   000003   85..83       MOV       DPH,?V5
   \   000006   E0           MOVX      A,@DPTR
   \   000007   F5..         MOV       ?V6,A
   \   000009   A3           INC       DPTR
   \   00000A   E0           MOVX      A,@DPTR
   \   00000B   F5..         MOV       ?V7,A
   \   00000D                ; Setup parameters for call to function zclFindAttrRec
   \   00000D                ; Setup parameters for call to function zclFindAttrRec
   \   00000D   7404         MOV       A,#0x4
   \   00000F   22           RET

   \                                 In  segment BANKED_CODE, align 1, keep-with-next
   \                     ?Subroutine73:
   \   000000   12....       LCALL     ?Subroutine150 & 0xFFFF
   \                     ??CrossCallReturnLabel_263:
   \   000003   E0           MOVX      A,@DPTR
   \   000004   F8           MOV       R0,A
   \   000005   EF           MOV       A,R7
   \   000006   C3           CLR       C
   \   000007   98           SUBB      A,R0
   \   000008   22           RET

   \                                 In  segment BANKED_CODE, align 1, keep-with-next
   \                     ?Subroutine65:
   \   000000   E0           MOVX      A,@DPTR
   \   000001   28           ADD       A,R0
   \   000002   FA           MOV       R2,A
   \   000003   A3           INC       DPTR
   \   000004   E0           MOVX      A,@DPTR
   \   000005   39           ADDC      A,R1
   \   000006   8A82         MOV       DPL,R2
   \   000008   F583         MOV       DPH,A
   \   00000A   A3           INC       DPTR
   \   00000B   8582..       MOV       ?V2,DPL
   \   00000E   8583..       MOV       ?V3,DPH
   \   000011   22           RET

   \                                 In  segment BANKED_CODE, align 1, keep-with-next
   \                     ?Subroutine57:
   \   000000   85..82       MOV       DPL,?V4
   \   000003   85..83       MOV       DPH,?V5
   \   000006                REQUIRE ??Subroutine218_0
   \   000006                ; // Fall through to label ??Subroutine218_0

   \                                 In  segment BANKED_CODE, align 1, keep-with-next
   \                     ?Subroutine42:
   \   000000   85..82       MOV       DPL,?V2
   \   000003   85..83       MOV       DPH,?V3
   \   000006                REQUIRE ??Subroutine222_0
   \   000006                ; // Fall through to label ??Subroutine222_0

   \                                 In  segment BANKED_CODE, align 1, keep-with-next
   \                     ?Subroutine35:
   \   000000   12....       LCALL     ?Subroutine161 & 0xFFFF
   \                     ??CrossCallReturnLabel_275:
   \   000003                REQUIRE ??Subroutine233_0
   \   000003                ; // Fall through to label ??Subroutine233_0
   4821          #endif // ZCL_WRITE
   4822          
   4823          #ifdef ZCL_DISCOVER
   4824          /*********************************************************************
   4825           * @fn      zclProcessInDiscAttrs
   4826           *
   4827           * @brief   Process the "Profile" Discover Attributes Commands
   4828           *
   4829           * @param   pInMsg - incoming message to process
   4830           *
   4831           * @return  TRUE if command processed. FALSE, otherwise.
   4832           */

   \                                 In  segment BANKED_CODE, align 1, keep-with-next
   4833          static uint8 zclProcessInDiscAttrs( zclIncoming_t *pInMsg )
   \                     zclProcessInDiscAttrs:
   4834          {
   \   000000                REQUIRE ?V0
   \   000000                REQUIRE ?V1
   \   000000                REQUIRE ?V2
   \   000000                REQUIRE ?V4
   \   000000                REQUIRE ?V5
   \   000000                REQUIRE ?V6
   \   000000                REQUIRE ?V7
   \   000000   74F0         MOV       A,#-0x10
   \   000002   12....       LCALL     ?BANKED_ENTER_XDATA
   \   000005                ; Saved register size: 16
   \   000005                ; Auto size: 10
   \   000005   74F6         MOV       A,#-0xa
   \   000007   12....       LCALL     ?ALLOC_XSTACK8
   \   00000A   12....       LCALL     ?Subroutine169 & 0xFFFF
   4835            zclDiscoverAttrsCmd_t *pDiscoverCmd;
   4836            zclAttrRec_t attrRec;
   4837            uint16 attrID;
   4838            uint8 numAttrs;
   4839            uint8 i;
   4840          
   4841            pDiscoverCmd = (zclDiscoverAttrsCmd_t *)pInMsg->attrCmd;
   \                     ??CrossCallReturnLabel_524:
   \   00000D   3F           ADDC      A,R7
   \   00000E   12....       LCALL     ?Subroutine67 & 0xFFFF
   4842          
   4843            // Find out the number of attributes supported within the specified range
   4844            for ( i = 0, attrID = pDiscoverCmd->startAttr; i < pDiscoverCmd->maxAttrIDs; i++, attrID++ )
   \                     ??CrossCallReturnLabel_392:
   \   000011   75..00       MOV       ?V2,#0x0
   \   000014   85..82       MOV       DPL,?V0
   \   000017   F583         MOV       DPH,A
   \   000019   12....       LCALL     ??Subroutine205_0 & 0xFFFF
   \                     ??CrossCallReturnLabel_418:
   \   00001C   85..82       MOV       DPL,?XSP + 0
   \   00001F   85..83       MOV       DPH,?XSP + 1
   \   000022   E8           MOV       A,R0
   \   000023   F0           MOVX      @DPTR,A
   \   000024   A3           INC       DPTR
   \   000025   E9           MOV       A,R1
   \   000026   8010         SJMP      ??zclProcessInDiscAttrs_0
   \                     ??zclProcessInDiscAttrs_1:
   \   000028   05..         INC       ?V2
   \   00002A   85..82       MOV       DPL,?XSP + 0
   \   00002D   85..83       MOV       DPH,?XSP + 1
   \   000030   E0           MOVX      A,@DPTR
   \   000031   2401         ADD       A,#0x1
   \   000033   F0           MOVX      @DPTR,A
   \   000034   A3           INC       DPTR
   \   000035   E0           MOVX      A,@DPTR
   \   000036   3400         ADDC      A,#0x0
   \                     ??zclProcessInDiscAttrs_0:
   \   000038   12....       LCALL     ?Subroutine29 & 0xFFFF
   \                     ??CrossCallReturnLabel_35:
   \   00003B   A3           INC       DPTR
   \   00003C   A3           INC       DPTR
   \   00003D   12....       LCALL     ??Subroutine225_0 & 0xFFFF
   \                     ??CrossCallReturnLabel_530:
   \   000040   5032         JNC       ??zclProcessInDiscAttrs_2
   4845            {
   4846              // finds the next attribute on this endpoint/cluster after the range.
   4847              // attributes must be in numerical order in the list.
   4848              if ( !zclFindNextAttrRec( pInMsg->msg->endPoint, pInMsg->msg->clusterId, pInMsg->hdr.fc.direction, &attrID, &attrRec ) )
   \   000042   8E82         MOV       DPL,R6
   \   000044   8F83         MOV       DPH,R7
   \   000046   12....       LCALL     ?Subroutine114 & 0xFFFF
   4849              {
   4850                break;
   4851              }
   4852            }
   \                     ??CrossCallReturnLabel_206:
   \   000049                ; Setup parameters for call to function zclFindNextAttrRec
   \   000049   7402         MOV       A,#0x2
   \   00004B   12....       LCALL     ?XSTACK_DISP100_8
   \   00004E   88..         MOV       ?V6,R0
   \   000050   89..         MOV       ?V7,R1
   \   000052   78..         MOV       R0,#?V6
   \   000054   12....       LCALL     ?PUSH_XSTACK_I_TWO
   \   000057   7402         MOV       A,#0x2
   \   000059   12....       LCALL     ?XSTACK_DISP100_8
   \   00005C   88..         MOV       ?V6,R0
   \   00005E   89..         MOV       ?V7,R1
   \   000060   78..         MOV       R0,#?V6
   \   000062   12....       LCALL     ?PUSH_XSTACK_I_TWO
   \   000065   8E82         MOV       DPL,R6
   \   000067   8F83         MOV       DPH,R7
   \   000069   A3           INC       DPTR
   \   00006A   A3           INC       DPTR
   \   00006B   12....       LCALL     ??Subroutine227_0 & 0xFFFF
   \                     ??CrossCallReturnLabel_540:
   \   00006E   12....       LCALL     ?DEALLOC_XSTACK8
   \   000071   E9           MOV       A,R1
   \   000072   70B4         JNZ       ??zclProcessInDiscAttrs_1
   4853          
   4854            numAttrs = i;  // store range of attributes in buffer
   4855          
   4856              // Process message for either attributes or extended attributes
   4857            if( pInMsg->hdr.commandID == ZCL_CMD_DISCOVER_ATTRS )
   \                     ??zclProcessInDiscAttrs_2:
   \   000074   8E82         MOV       DPL,R6
   \   000076   8F83         MOV       DPH,R7
   \   000078   A3           INC       DPTR
   \   000079   A3           INC       DPTR
   \   00007A   A3           INC       DPTR
   \   00007B   A3           INC       DPTR
   \   00007C   A3           INC       DPTR
   \   00007D   A3           INC       DPTR
   \   00007E   A3           INC       DPTR
   \   00007F   E0           MOVX      A,@DPTR
   \   000080   F8           MOV       R0,A
   \   000081   740C         MOV       A,#0xc
   \   000083   68           XRL       A,R0
   \   000084   700F         JNZ       ??zclProcessInDiscAttrs_3
   4858            {
   4859              zclProcessInDiscAttrsCmd( pInMsg, pDiscoverCmd, numAttrs );
   \   000086                ; Setup parameters for call to function zclProcessInDiscAttrsCmd
   \   000086   A9..         MOV       R1,?V2
   \   000088   AC..         MOV       R4,?V0
   \   00008A   AD..         MOV       R5,?V1
   \   00008C   EE           MOV       A,R6
   \   00008D   FA           MOV       R2,A
   \   00008E   EF           MOV       A,R7
   \   00008F   FB           MOV       R3,A
   \   000090   12....       LCALL     `??zclProcessInDiscAttrsCmd::?relay`; Banked call to: zclProcessInDiscAttrsCmd
   \   000093   8012         SJMP      ??zclProcessInDiscAttrs_4
   4860            }
   4861            else if ( pInMsg->hdr.commandID == ZCL_CMD_DISCOVER_ATTRS_EXT )
   \                     ??zclProcessInDiscAttrs_3:
   \   000095   7415         MOV       A,#0x15
   \   000097   68           XRL       A,R0
   \   000098   700D         JNZ       ??zclProcessInDiscAttrs_4
   4862            {
   4863              zclProcessInDiscAttrsExtCmd( pInMsg, pDiscoverCmd, numAttrs );
   \   00009A                ; Setup parameters for call to function zclProcessInDiscAttrsExtCmd
   \   00009A   A9..         MOV       R1,?V2
   \   00009C   AC..         MOV       R4,?V0
   \   00009E   AD..         MOV       R5,?V1
   \   0000A0   EE           MOV       A,R6
   \   0000A1   FA           MOV       R2,A
   \   0000A2   EF           MOV       A,R7
   \   0000A3   FB           MOV       R3,A
   \   0000A4   12....       LCALL     `??zclProcessInDiscAttrsExtCmd::?relay`; Banked call to: zclProcessInDiscAttrsExtCmd
   4864            }
   4865          
   4866            return TRUE;
   \                     ??zclProcessInDiscAttrs_4:
   \   0000A7   7901         MOV       R1,#0x1
   \   0000A9   740A         MOV       A,#0xa
   \   0000AB   02....       LJMP      ?Subroutine8 & 0xFFFF
   4867          }

   \                                 In  segment BANKED_CODE, align 1, keep-with-next
   \                     ??Subroutine227_0:
   \   000000   12....       LCALL     ?Subroutine155 & 0xFFFF
   \                     ??CrossCallReturnLabel_543:
   \   000003   FC           MOV       R4,A
   \   000004   85..82       MOV       DPL,?V4
   \   000007   85..83       MOV       DPH,?V5
   \   00000A   12....       LCALL     ?Subroutine162 & 0xFFFF
   \                     ??CrossCallReturnLabel_583:
   \   00000D   E5..         MOV       A,?V4
   \   00000F   12....       LCALL     ?Subroutine171 & 0xFFFF
   \                     ??CrossCallReturnLabel_549:
   \   000012   35..         ADDC      A,?V5
   \   000014   F583         MOV       DPH,A
   \   000016   E0           MOVX      A,@DPTR
   \   000017   F9           MOV       R1,A
   \   000018   12....       LCALL     `??zclFindNextAttrRec::?relay`; Banked call to: zclFindNextAttrRec
   \   00001B   7404         MOV       A,#0x4
   \   00001D   22           RET

   \                                 In  segment BANKED_CODE, align 1, keep-with-next
   \                     ?Subroutine155:
   \   000000   12....       LCALL     ?Subroutine177 & 0xFFFF
   \                     ??CrossCallReturnLabel_552:
   \   000003   5401         ANL       A,#0x1
   \   000005   22           RET
   4868          
   4869          /*********************************************************************
   4870           * @fn      zclProcessInDiscAttrsCmd
   4871           *
   4872           * @brief   Process the Discover Attributes Command
   4873           *
   4874           * @param   pInMsg - incoming message to process
   4875           *
   4876           * @param   pDiscoverCmd - structure from requesting command
   4877           *
   4878           * @param   attrLenBuf - describes the amount of attributes to be processed
   4879           *
   4880           * @return  none
   4881           */

   \                                 In  segment BANKED_CODE, align 1, keep-with-next
   \                     ?Subroutine28:
   \   000000   75..00       MOV       ?V2,#0x0
   \   000003   85..82       MOV       DPL,?V4
   \   000006   85..83       MOV       DPH,?V5
   \   000009   12....       LCALL     ?Subroutine165 & 0xFFFF
   \                     ??CrossCallReturnLabel_423:
   \   00000C   85..82       MOV       DPL,?XSP + 0
   \   00000F   85..83       MOV       DPH,?XSP + 1
   \   000012                REQUIRE ??Subroutine197_0
   \   000012                ; // Fall through to label ??Subroutine197_0

   \                                 In  segment BANKED_CODE, align 1, keep-with-next
   \                     ?Subroutine6:
   \   000000   740A         MOV       A,#0xa
   \   000002                REQUIRE ??Subroutine213_0
   \   000002                ; // Fall through to label ??Subroutine213_0

   \                                 In  segment BANKED_CODE, align 1, keep-with-next
   4882          static void zclProcessInDiscAttrsCmd( zclIncoming_t *pInMsg, zclDiscoverAttrsCmd_t *pDiscoverCmd, uint8 numAttrs )
   \                     zclProcessInDiscAttrsCmd:
   4883          {
   \   000000                REQUIRE ?V0
   \   000000                REQUIRE ?V1
   \   000000                REQUIRE ?V2
   \   000000                REQUIRE ?V3
   \   000000                REQUIRE ?V4
   \   000000                REQUIRE ?V5
   \   000000                REQUIRE ?V6
   \   000000                REQUIRE ?V7
   \   000000                REQUIRE ?V8
   \   000000                REQUIRE ?V9
   \   000000                REQUIRE ?V10
   \   000000                REQUIRE ?V11
   \   000000   74EC         MOV       A,#-0x14
   \   000002   12....       LCALL     ?BANKED_ENTER_XDATA
   \   000005                ; Saved register size: 20
   \   000005                ; Auto size: 10
   \   000005   74F6         MOV       A,#-0xa
   \   000007   12....       LCALL     ?ALLOC_XSTACK8
   \   00000A   8A..         MOV       ?V6,R2
   \   00000C   8B..         MOV       ?V7,R3
   \   00000E   8C..         MOV       ?V4,R4
   \   000010   8D..         MOV       ?V5,R5
   \   000012   E9           MOV       A,R1
   \   000013   FE           MOV       R6,A
   4884            zclDiscoverAttrsRspCmd_t *pDiscoverRsp;
   4885            uint8 discComplete = TRUE;
   \   000014   7F01         MOV       R7,#0x1
   4886            zclAttrRec_t attrRec;
   4887            uint16 attrID;
   4888            uint8 i;
   4889          
   4890            // Allocate space for the response command
   4891            pDiscoverRsp = (zclDiscoverAttrsRspCmd_t *)zcl_mem_alloc( sizeof (zclDiscoverAttrsRspCmd_t)
   4892                                                                    + sizeof ( zclDiscoverAttrInfo_t ) * numAttrs );
   \   000016                ; Setup parameters for call to function osal_mem_alloc
   \   000016   12....       LCALL     ?Subroutine127 & 0xFFFF
   \                     ??CrossCallReturnLabel_406:
   \   000019   39           ADDC      A,R1
   \   00001A   12....       LCALL     ??Subroutine228_0 & 0xFFFF
   4893            if ( pDiscoverRsp == NULL )
   \                     ??CrossCallReturnLabel_563:
   \   00001D   7003         JNZ       $+5
   \   00001F   02....       LJMP      ??zclProcessInDiscAttrsCmd_0 & 0xFFFF
   4894            {
   4895              return; // EMBEDDED RETURN
   4896            }
   4897          
   4898            if ( numAttrs != 0 )
   \   000022   12....       LCALL     ?Subroutine126 & 0xFFFF
   \                     ??CrossCallReturnLabel_219:
   \   000025   6077         JZ        ??zclProcessInDiscAttrsCmd_1
   4899            {
   4900              for ( i = 0, attrID = pDiscoverCmd->startAttr; i < numAttrs; i++, attrID++ )
   \   000027   12....       LCALL     ?Subroutine28 & 0xFFFF
   4901              {
   4902                if ( !zclFindNextAttrRec( pInMsg->msg->endPoint, pInMsg->msg->clusterId, pInMsg->hdr.fc.direction, &attrID, &attrRec ) )
   \                     ??CrossCallReturnLabel_373:
   \   00002A   12....       LCALL     ?Subroutine98 & 0xFFFF
   \                     ??CrossCallReturnLabel_164:
   \   00002D   12....       LCALL     ?XSTACK_DISP100_8
   \   000030   88..         MOV       ?V10,R0
   \   000032   89..         MOV       ?V11,R1
   \   000034   78..         MOV       R0,#?V10
   \   000036   12....       LCALL     ?PUSH_XSTACK_I_TWO
   \   000039   7402         MOV       A,#0x2
   \   00003B   12....       LCALL     ?XSTACK_DISP100_8
   \   00003E   88..         MOV       ?V10,R0
   \   000040   89..         MOV       ?V11,R1
   \   000042   78..         MOV       R0,#?V10
   \   000044   12....       LCALL     ?PUSH_XSTACK_I_TWO
   \   000047   12....       LCALL     ?Subroutine41 & 0xFFFF
   \                     ??CrossCallReturnLabel_538:
   \   00004A   12....       LCALL     ?DEALLOC_XSTACK8
   \   00004D   E9           MOV       A,R1
   \   00004E   6026         JZ        ??zclProcessInDiscAttrsCmd_2
   4903                {
   4904                  break; // should not happen, as numAttrs already calculated
   4905                }
   4906          
   4907                pDiscoverRsp->attrList[i].attrID = attrRec.attr.attrId;
   \   000050   E5..         MOV       A,?V2
   \   000052   75F003       MOV       B,#0x3
   \   000055   A4           MUL       AB
   \   000056   F8           MOV       R0,A
   \   000057   A9F0         MOV       R1,B
   \   000059   E5..         MOV       A,?V0
   \   00005B   28           ADD       A,R0
   \   00005C   F8           MOV       R0,A
   \   00005D   E5..         MOV       A,?V1
   \   00005F   39           ADDC      A,R1
   \   000060   F9           MOV       R1,A
   \   000061   7404         MOV       A,#0x4
   \   000063   12....       LCALL     ?XSTACK_DISP0_8
   \   000066   12....       LCALL     ?Subroutine35 & 0xFFFF
   4908                pDiscoverRsp->attrList[i].dataType = attrRec.attr.dataType;
   \                     ??CrossCallReturnLabel_595:
   \   000069   7406         MOV       A,#0x6
   \   00006B   12....       LCALL     ?XSTACK_DISP0_8
   \   00006E   12....       LCALL     ?Subroutine96 & 0xFFFF
   4909              }
   \                     ??CrossCallReturnLabel_159:
   \   000071   12....       LCALL     ?Subroutine17 & 0xFFFF
   \                     ??CrossCallReturnLabel_9:
   \   000074   40B4         JC        ??CrossCallReturnLabel_373
   4910          
   4911              // Are there more attributes to be discovered?
   4912              if ( zclFindNextAttrRec( pInMsg->msg->endPoint, pInMsg->msg->clusterId, pInMsg->hdr.fc.direction, &attrID, &attrRec ) )
   \                     ??zclProcessInDiscAttrsCmd_2:
   \   000076   12....       LCALL     ?Subroutine100 & 0xFFFF
   \                     ??CrossCallReturnLabel_170:
   \   000079   12....       LCALL     ?XSTACK_DISP100_8
   \   00007C   88..         MOV       ?V4,R0
   \   00007E   89..         MOV       ?V5,R1
   \   000080   78..         MOV       R0,#?V4
   \   000082   12....       LCALL     ?PUSH_XSTACK_I_TWO
   \   000085   7402         MOV       A,#0x2
   \   000087   12....       LCALL     ?XSTACK_DISP100_8
   \   00008A   88..         MOV       ?V4,R0
   \   00008C   89..         MOV       ?V5,R1
   \   00008E   78..         MOV       R0,#?V4
   \   000090   12....       LCALL     ?PUSH_XSTACK_I_TWO
   \   000093   12....       LCALL     ?Subroutine45 & 0xFFFF
   \                     ??CrossCallReturnLabel_56:
   \   000096   12....       LCALL     ?DEALLOC_XSTACK8
   \   000099   E9           MOV       A,R1
   \   00009A   6002         JZ        ??zclProcessInDiscAttrsCmd_1
   4913              {
   4914                discComplete = FALSE;
   \   00009C   7F00         MOV       R7,#0x0
   4915              }
   4916            }
   4917          
   4918            pDiscoverRsp->discComplete = discComplete;
   \                     ??zclProcessInDiscAttrsCmd_1:
   \   00009E   12....       LCALL     ?Subroutine13 & 0xFFFF
   4919            pDiscoverRsp->numAttr = numAttrs;
   4920          
   4921            zcl_SendDiscoverAttrsRspCmd( pInMsg->msg->endPoint, &pInMsg->msg->srcAddr,
   4922                                         pInMsg->msg->clusterId, pDiscoverRsp, !(pInMsg->hdr.fc.direction),
   4923                                         true, pInMsg->hdr.transSeqNum );
   \                     ??CrossCallReturnLabel_2:
   \   0000A1   12....       LCALL     ?PUSH_XSTACK_I_ONE
   \   0000A4   75..01       MOV       ?V4,#0x1
   \   0000A7   78..         MOV       R0,#?V4
   \   0000A9   12....       LCALL     ?PUSH_XSTACK_I_ONE
   \   0000AC   12....       LCALL     ?Subroutine49 & 0xFFFF
   \                     ??CrossCallReturnLabel_534:
   \   0000AF   12....       LCALL     ?PUSH_XSTACK_I_ONE
   \   0000B2   78..         MOV       R0,#?V0
   \   0000B4   12....       LCALL     ?PUSH_XSTACK_I_TWO
   \   0000B7   12....       LCALL     ?Subroutine47 & 0xFFFF
   \                     ??CrossCallReturnLabel_60:
   \   0000BA   12....       LCALL     `??zcl_SendDiscoverAttrsRspCmd::?relay`; Banked call to: zcl_SendDiscoverAttrsRspCmd
   \   0000BD   7405         MOV       A,#0x5
   \   0000BF   12....       LCALL     ?DEALLOC_XSTACK8
   4924            zcl_mem_free( pDiscoverRsp );
   \   0000C2                ; Setup parameters for call to function osal_mem_free
   \   0000C2   AA..         MOV       R2,?V0
   \   0000C4   AB..         MOV       R3,?V1
   \   0000C6   12....       LCALL     `??osal_mem_free::?relay`; Banked call to: osal_mem_free
   4925          
   4926            return;
   \                     ??zclProcessInDiscAttrsCmd_0:
   \   0000C9   02....       LJMP      ?Subroutine6 & 0xFFFF
   4927          }

   \                                 In  segment BANKED_CODE, align 1, keep-with-next
   \                     ?Subroutine49:
   \   000000   85..82       MOV       DPL,?V8
   \   000003   85..83       MOV       DPH,?V9
   \   000006                REQUIRE ??Subroutine226_0
   \   000006                ; // Fall through to label ??Subroutine226_0

   \                                 In  segment BANKED_CODE, align 1, keep-with-next
   \                     ?Subroutine41:
   \   000000   85..82       MOV       DPL,?V8
   \   000003   85..83       MOV       DPH,?V9
   \   000006                REQUIRE ??Subroutine227_0
   \   000006                ; // Fall through to label ??Subroutine227_0

   \                                 In  segment BANKED_CODE, align 1, keep-with-next
   \                     ?Subroutine126:
   \   000000   E5..         MOV       A,?V6
   \   000002   2402         ADD       A,#0x2
   \   000004   F5..         MOV       ?V8,A
   \   000006   E4           CLR       A
   \   000007   35..         ADDC      A,?V7
   \   000009   F5..         MOV       ?V9,A
   \   00000B   EE           MOV       A,R6
   \   00000C   22           RET

   \                                 In  segment BANKED_CODE, align 1, keep-with-next
   \                     ?Subroutine100:
   \   000000   12....       LCALL     ?Subroutine152 & 0xFFFF
   \                     ??CrossCallReturnLabel_569:
   \   000003                ; Setup parameters for call to function zclFindNextAttrRec
   \   000003                ; Setup parameters for call to function zclFindNextAttrRec
   \   000003   7402         MOV       A,#0x2
   \   000005   22           RET

   \                                 In  segment BANKED_CODE, align 1, keep-with-next
   \                     ?Subroutine152:
   \   000000   85..82       MOV       DPL,?V6
   \   000003   85..83       MOV       DPH,?V7
   \   000006                REQUIRE ??Subroutine230_0
   \   000006                ; // Fall through to label ??Subroutine230_0

   \                                 In  segment BANKED_CODE, align 1, keep-with-next
   \                     ?Subroutine98:
   \   000000   85..82       MOV       DPL,?V6
   \   000003   85..83       MOV       DPH,?V7
   \   000006   12....       LCALL     ?Subroutine158 & 0xFFFF
   \                     ??CrossCallReturnLabel_271:
   \   000009                ; Setup parameters for call to function zclFindNextAttrRec
   \   000009                ; Setup parameters for call to function zclFindNextAttrRec
   \   000009   7402         MOV       A,#0x2
   \   00000B   22           RET

   \                                 In  segment BANKED_CODE, align 1, keep-with-next
   \                     ?Subroutine47:
   \   000000   85..82       MOV       DPL,?V2
   \   000003   85..83       MOV       DPH,?V3
   \   000006   12....       LCALL     ?Subroutine151 & 0xFFFF
   \                     ??CrossCallReturnLabel_520:
   \   000009   E5..         MOV       A,?V2
   \   00000B   12....       LCALL     ??Subroutine231_0 & 0xFFFF
   \                     ??CrossCallReturnLabel_575:
   \   00000E   35..         ADDC      A,?V3
   \   000010   FB           MOV       R3,A
   \   000011   E5..         MOV       A,?V2
   \   000013   12....       LCALL     ?Subroutine171 & 0xFFFF
   \                     ??CrossCallReturnLabel_545:
   \   000016   35..         ADDC      A,?V3
   \   000018   F583         MOV       DPH,A
   \   00001A   E0           MOVX      A,@DPTR
   \   00001B   F9           MOV       R1,A
   \   00001C   22           RET

   \                                 In  segment BANKED_CODE, align 1, keep-with-next
   \                     ?Subroutine45:
   \   000000   85..82       MOV       DPL,?V8
   \   000003   85..83       MOV       DPH,?V9
   \   000006   12....       LCALL     ?Subroutine155 & 0xFFFF
   \                     ??CrossCallReturnLabel_542:
   \   000009   12....       LCALL     ?Subroutine149 & 0xFFFF
   \                     ??CrossCallReturnLabel_259:
   \   00000C   12....       LCALL     `??zclFindNextAttrRec::?relay`; Banked call to: zclFindNextAttrRec
   \   00000F   7404         MOV       A,#0x4
   \   000011   22           RET

   \                                 In  segment BANKED_CODE, align 1, keep-with-next
   \                     ?Subroutine17:
   \   000000   A3           INC       DPTR
   \   000001   A3           INC       DPTR
   \   000002   A3           INC       DPTR
   \   000003   A3           INC       DPTR
   \   000004   F0           MOVX      @DPTR,A
   \   000005   05..         INC       ?V2
   \   000007   85..82       MOV       DPL,?XSP + 0
   \   00000A   85..83       MOV       DPH,?XSP + 1
   \   00000D   E0           MOVX      A,@DPTR
   \   00000E   2F           ADD       A,R7
   \   00000F   F0           MOVX      @DPTR,A
   \   000010   A3           INC       DPTR
   \   000011   E0           MOVX      A,@DPTR
   \   000012   3400         ADDC      A,#0x0
   \   000014   F0           MOVX      @DPTR,A
   \   000015   E5..         MOV       A,?V2
   \   000017   C3           CLR       C
   \   000018   9E           SUBB      A,R6
   \   000019   22           RET

   \                                 In  segment BANKED_CODE, align 1, keep-with-next
   \                     ?Subroutine13:
   \   000000   EF           MOV       A,R7
   \   000001   85..82       MOV       DPL,?V0
   \   000004   85..83       MOV       DPH,?V1
   \   000007   F0           MOVX      @DPTR,A
   \   000008   EE           MOV       A,R6
   \   000009   A3           INC       DPTR
   \   00000A   F0           MOVX      @DPTR,A
   \   00000B   12....       LCALL     ?Subroutine152 & 0xFFFF
   \                     ??CrossCallReturnLabel_568:
   \   00000E                ; Setup parameters for call to function zcl_SendDiscoverAttrsRspCmd
   \   00000E                ; Setup parameters for call to function zcl_SendDiscoverAttrsExtRsp
   \   00000E   85..82       MOV       DPL,?V6
   \   000011   85..83       MOV       DPH,?V7
   \   000014   A3           INC       DPTR
   \   000015   A3           INC       DPTR
   \   000016   A3           INC       DPTR
   \   000017   A3           INC       DPTR
   \   000018   A3           INC       DPTR
   \   000019   A3           INC       DPTR
   \   00001A   E0           MOVX      A,@DPTR
   \   00001B   F5..         MOV       ?V4,A
   \   00001D   78..         MOV       R0,#?V4
   \   00001F   22           RET

   \                                 In  segment BANKED_CODE, align 1, keep-with-next
   \                     ?Subroutine149:
   \   000000   FC           MOV       R4,A
   \   000001   85..82       MOV       DPL,?V2
   \   000004   85..83       MOV       DPH,?V3
   \   000007   A3           INC       DPTR
   \   000008   A3           INC       DPTR
   \   000009   A3           INC       DPTR
   \   00000A   A3           INC       DPTR
   \   00000B   E0           MOVX      A,@DPTR
   \   00000C   FA           MOV       R2,A
   \   00000D   A3           INC       DPTR
   \   00000E   E0           MOVX      A,@DPTR
   \   00000F   FB           MOV       R3,A
   \   000010   E5..         MOV       A,?V2
   \   000012   12....       LCALL     ?Subroutine178 & 0xFFFF
   \                     ??CrossCallReturnLabel_553:
   \   000015   35..         ADDC      A,?V3
   \   000017   F583         MOV       DPH,A
   \   000019   E0           MOVX      A,@DPTR
   \   00001A   F9           MOV       R1,A
   \   00001B   22           RET
   4928          
   4929          /*********************************************************************
   4930           * @fn      zclProcessInDiscAttrsExtCmd
   4931           *
   4932           * @brief   Process the Discover Attributes Extended Command
   4933           *
   4934           * @param   pInMsg - incoming message to process
   4935           *
   4936           * @param   pDiscoverCmd - structure from requesting command
   4937           *
   4938           * @param   attrLenBuf - describes the amount of attributes to be processed
   4939           *
   4940           * @return  none
   4941           */

   \                                 In  segment BANKED_CODE, align 1, keep-with-next
   4942          static void zclProcessInDiscAttrsExtCmd( zclIncoming_t *pInMsg, zclDiscoverAttrsCmd_t *pDiscoverCmd, uint8 numAttrs )
   \                     zclProcessInDiscAttrsExtCmd:
   4943          {
   \   000000                REQUIRE ?V0
   \   000000                REQUIRE ?V1
   \   000000                REQUIRE ?V2
   \   000000                REQUIRE ?V3
   \   000000                REQUIRE ?V4
   \   000000                REQUIRE ?V5
   \   000000                REQUIRE ?V6
   \   000000                REQUIRE ?V7
   \   000000                REQUIRE ?V8
   \   000000                REQUIRE ?V9
   \   000000                REQUIRE ?V10
   \   000000                REQUIRE ?V11
   \   000000   74EC         MOV       A,#-0x14
   \   000002   12....       LCALL     ?BANKED_ENTER_XDATA
   \   000005                ; Saved register size: 20
   \   000005                ; Auto size: 10
   \   000005   74F6         MOV       A,#-0xa
   \   000007   12....       LCALL     ?ALLOC_XSTACK8
   \   00000A   8A..         MOV       ?V6,R2
   \   00000C   8B..         MOV       ?V7,R3
   \   00000E   8C..         MOV       ?V4,R4
   \   000010   8D..         MOV       ?V5,R5
   \   000012   E9           MOV       A,R1
   \   000013   FE           MOV       R6,A
   4944            zclDiscoverAttrsExtRsp_t *pDiscoverExtRsp;
   4945            uint8 discComplete = TRUE;
   \   000014   7F01         MOV       R7,#0x1
   4946            zclAttrRec_t attrRec;
   4947            uint16 attrID;
   4948            uint8 i;
   4949          
   4950              // Allocate space for the response command
   4951            pDiscoverExtRsp = (zclDiscoverAttrsExtRsp_t *)zcl_mem_alloc( sizeof (zclDiscoverAttrsExtRsp_t)
   4952                                                                   + sizeof ( zclExtAttrInfo_t ) * numAttrs );
   \   000016                ; Setup parameters for call to function osal_mem_alloc
   \   000016   F5..         MOV       ?V0,A
   \   000018   75..00       MOV       ?V1,#0x0
   \   00001B   7402         MOV       A,#0x2
   \   00001D   78..         MOV       R0,#?V0
   \   00001F   12....       LCALL     ?S_SHL
   \   000022   E5..         MOV       A,?V0
   \   000024   12....       LCALL     ??Subroutine203_0 & 0xFFFF
   \                     ??CrossCallReturnLabel_404:
   \   000027   35..         ADDC      A,?V1
   \   000029   12....       LCALL     ??Subroutine228_0 & 0xFFFF
   4953            if ( pDiscoverExtRsp == NULL )
   \                     ??CrossCallReturnLabel_564:
   \   00002C   7003         JNZ       $+5
   \   00002E   02....       LJMP      ??zclProcessInDiscAttrsExtCmd_0 & 0xFFFF
   4954            {
   4955              return; // EMBEDDED RETURN
   4956            }
   4957          
   4958          
   4959            if ( numAttrs != 0 )
   \   000031   12....       LCALL     ?Subroutine126 & 0xFFFF
   \                     ??CrossCallReturnLabel_220:
   \   000034   7003         JNZ       $+5
   \   000036   02....       LJMP      ??zclProcessInDiscAttrsExtCmd_1 & 0xFFFF
   4960            {
   4961              for ( i = 0, attrID = pDiscoverCmd->startAttr; i < numAttrs; i++, attrID++ )
   \   000039   12....       LCALL     ?Subroutine28 & 0xFFFF
   4962              {
   4963                if ( !zclFindNextAttrRec( pInMsg->msg->endPoint, pInMsg->msg->clusterId, pInMsg->hdr.fc.direction, &attrID, &attrRec ) )
   \                     ??CrossCallReturnLabel_374:
   \   00003C   12....       LCALL     ?Subroutine98 & 0xFFFF
   \                     ??CrossCallReturnLabel_165:
   \   00003F   12....       LCALL     ?XSTACK_DISP100_8
   \   000042   88..         MOV       ?V10,R0
   \   000044   89..         MOV       ?V11,R1
   \   000046   78..         MOV       R0,#?V10
   \   000048   12....       LCALL     ?PUSH_XSTACK_I_TWO
   \   00004B   7402         MOV       A,#0x2
   \   00004D   12....       LCALL     ?XSTACK_DISP100_8
   \   000050   88..         MOV       ?V10,R0
   \   000052   89..         MOV       ?V11,R1
   \   000054   78..         MOV       R0,#?V10
   \   000056   12....       LCALL     ?PUSH_XSTACK_I_TWO
   \   000059   12....       LCALL     ?Subroutine41 & 0xFFFF
   \                     ??CrossCallReturnLabel_539:
   \   00005C   12....       LCALL     ?DEALLOC_XSTACK8
   \   00005F   E9           MOV       A,R1
   \   000060   603B         JZ        ??zclProcessInDiscAttrsExtCmd_2
   4964                {
   4965                  break; // Should not happen, as numAttrs already calculated
   4966                }
   4967          
   4968                pDiscoverExtRsp->aExtAttrInfo[i].attrID = attrRec.attr.attrId;
   \   000062   E5..         MOV       A,?V2
   \   000064   F5..         MOV       ?V4,A
   \   000066   75..00       MOV       ?V5,#0x0
   \   000069   7402         MOV       A,#0x2
   \   00006B   78..         MOV       R0,#?V4
   \   00006D   12....       LCALL     ?S_SHL
   \   000070   E5..         MOV       A,?V0
   \   000072   25..         ADD       A,?V4
   \   000074   F8           MOV       R0,A
   \   000075   E5..         MOV       A,?V1
   \   000077   35..         ADDC      A,?V5
   \   000079   F9           MOV       R1,A
   \   00007A   7404         MOV       A,#0x4
   \   00007C   12....       LCALL     ?XSTACK_DISP0_8
   \   00007F   12....       LCALL     ?Subroutine35 & 0xFFFF
   4969                pDiscoverExtRsp->aExtAttrInfo[i].attrDataType = attrRec.attr.dataType;
   \                     ??CrossCallReturnLabel_596:
   \   000082   7406         MOV       A,#0x6
   \   000084   12....       LCALL     ?XSTACK_DISP0_8
   \   000087   12....       LCALL     ?Subroutine95 & 0xFFFF
   \                     ??CrossCallReturnLabel_153:
   \   00008A   F0           MOVX      @DPTR,A
   4970                pDiscoverExtRsp->aExtAttrInfo[i].attrAccessControl = attrRec.attr.accessControl & ACCESS_CONTROLEXT_MASK;
   \   00008B   7407         MOV       A,#0x7
   \   00008D   12....       LCALL     ?XSTACK_DISP0_8
   \   000090   E0           MOVX      A,@DPTR
   \   000091   5407         ANL       A,#0x7
   \   000093   8882         MOV       DPL,R0
   \   000095   8983         MOV       DPH,R1
   \   000097   A3           INC       DPTR
   \   000098   12....       LCALL     ?Subroutine17 & 0xFFFF
   4971              }
   \                     ??CrossCallReturnLabel_10:
   \   00009B   409F         JC        ??CrossCallReturnLabel_374
   4972          
   4973              // Are there more attributes to be discovered?
   4974              if ( zclFindNextAttrRec( pInMsg->msg->endPoint, pInMsg->msg->clusterId, pInMsg->hdr.fc.direction, &attrID, &attrRec ) )
   \                     ??zclProcessInDiscAttrsExtCmd_2:
   \   00009D   12....       LCALL     ?Subroutine100 & 0xFFFF
   \                     ??CrossCallReturnLabel_171:
   \   0000A0   12....       LCALL     ?XSTACK_DISP100_8
   \   0000A3   88..         MOV       ?V4,R0
   \   0000A5   89..         MOV       ?V5,R1
   \   0000A7   78..         MOV       R0,#?V4
   \   0000A9   12....       LCALL     ?PUSH_XSTACK_I_TWO
   \   0000AC   7402         MOV       A,#0x2
   \   0000AE   12....       LCALL     ?XSTACK_DISP100_8
   \   0000B1   88..         MOV       ?V4,R0
   \   0000B3   89..         MOV       ?V5,R1
   \   0000B5   78..         MOV       R0,#?V4
   \   0000B7   12....       LCALL     ?PUSH_XSTACK_I_TWO
   \   0000BA   12....       LCALL     ?Subroutine45 & 0xFFFF
   \                     ??CrossCallReturnLabel_57:
   \   0000BD   12....       LCALL     ?DEALLOC_XSTACK8
   \   0000C0   E9           MOV       A,R1
   \   0000C1   6002         JZ        ??zclProcessInDiscAttrsExtCmd_1
   4975              {
   4976                discComplete = FALSE;
   \   0000C3   7F00         MOV       R7,#0x0
   4977              }
   4978            }
   4979          
   4980            pDiscoverExtRsp->discComplete = discComplete;
   \                     ??zclProcessInDiscAttrsExtCmd_1:
   \   0000C5   12....       LCALL     ?Subroutine13 & 0xFFFF
   4981            pDiscoverExtRsp->numAttr = numAttrs;
   4982          
   4983            zcl_SendDiscoverAttrsExtRsp( pInMsg->msg->endPoint, &pInMsg->msg->srcAddr,
   4984                                         pInMsg->msg->clusterId, pDiscoverExtRsp, !(pInMsg->hdr.fc.direction),
   4985                                         true, pInMsg->hdr.transSeqNum );
   \                     ??CrossCallReturnLabel_3:
   \   0000C8   12....       LCALL     ?PUSH_XSTACK_I_ONE
   \   0000CB   75..01       MOV       ?V4,#0x1
   \   0000CE   78..         MOV       R0,#?V4
   \   0000D0   12....       LCALL     ?PUSH_XSTACK_I_ONE
   \   0000D3   12....       LCALL     ?Subroutine49 & 0xFFFF
   \                     ??CrossCallReturnLabel_535:
   \   0000D6   12....       LCALL     ?PUSH_XSTACK_I_ONE
   \   0000D9   78..         MOV       R0,#?V0
   \   0000DB   12....       LCALL     ?PUSH_XSTACK_I_TWO
   \   0000DE   12....       LCALL     ?Subroutine47 & 0xFFFF
   \                     ??CrossCallReturnLabel_61:
   \   0000E1   12....       LCALL     `??zcl_SendDiscoverAttrsExtRsp::?relay`; Banked call to: zcl_SendDiscoverAttrsExtRsp
   \   0000E4   7405         MOV       A,#0x5
   \   0000E6   12....       LCALL     ?DEALLOC_XSTACK8
   4986          
   4987            zcl_mem_free( pDiscoverExtRsp );
   \   0000E9                ; Setup parameters for call to function osal_mem_free
   \   0000E9   AA..         MOV       R2,?V0
   \   0000EB   AB..         MOV       R3,?V1
   \   0000ED   12....       LCALL     `??osal_mem_free::?relay`; Banked call to: osal_mem_free
   4988          
   4989            return;
   \                     ??zclProcessInDiscAttrsExtCmd_0:
   \   0000F0   02....       LJMP      ?Subroutine6 & 0xFFFF
   4990          }
   4991          
   4992          /*********************************************************************
   4993           * @fn      zclProcessInDiscCmd
   4994           *
   4995           * @brief   Process the "Profile" Discover Command
   4996           *
   4997           * @param   pInMsg - incoming message to process
   4998           *
   4999           * @return  TRUE if command processed. FALSE, otherwise.
   5000           */

   \                                 In  segment BANKED_CODE, align 1, keep-with-next
   5001          static uint8 zclProcessInDiscCmd( zclIncoming_t *pInMsg )
   \                     zclProcessInDiscCmd:
   5002          {
   \   000000                REQUIRE ?V0
   \   000000                REQUIRE ?V1
   \   000000                REQUIRE ?V2
   \   000000                REQUIRE ?V3
   \   000000                REQUIRE ?V4
   \   000000                REQUIRE ?V5
   \   000000                REQUIRE ?V6
   \   000000                REQUIRE ?V7
   \   000000                REQUIRE ?V8
   \   000000                REQUIRE ?V9
   \   000000                REQUIRE ?V10
   \   000000                REQUIRE ?V11
   \   000000   74EC         MOV       A,#-0x14
   \   000002   12....       LCALL     ?BANKED_ENTER_XDATA
   \   000005                ; Saved register size: 20
   \   000005                ; Auto size: 10
   \   000005   74F6         MOV       A,#-0xa
   \   000007   12....       LCALL     ?ALLOC_XSTACK8
   \   00000A   12....       LCALL     ?Subroutine129 & 0xFFFF
   5003            zclDiscoverCmdsCmd_t *pDiscoverCmd;
   5004            zclDiscoverCmdsCmdRsp_t cmdRsp;
   5005            ZStatus_t status;
   5006            zclCommandRec_t cmdRec;
   5007            uint8 cmdID;
   5008            uint8 i;
   5009            uint8 j;
   5010          
   5011            pDiscoverCmd = (zclDiscoverCmdsCmd_t *)pInMsg->attrCmd;
   \                     ??CrossCallReturnLabel_222:
   \   00000D   12....       LCALL     ?Subroutine99 & 0xFFFF
   5012          
   5013            // Find out the number of commands supported within the specified range
   5014            for ( i = 0, cmdID = pDiscoverCmd->startCmdID; i < pDiscoverCmd->maxCmdID; i++, cmdID++ )
   \                     ??CrossCallReturnLabel_169:
   \   000010   75..00       MOV       ?V0,#0x0
   \   000013   85..82       MOV       DPL,?V4
   \   000016   F583         MOV       DPH,A
   \   000018   12....       LCALL     ?Subroutine110 & 0xFFFF
   \                     ??CrossCallReturnLabel_196:
   \   00001B   EA           MOV       A,R2
   \   00001C   2407         ADD       A,#0x7
   \   00001E   F5..         MOV       ?V8,A
   \   000020   E4           CLR       A
   \   000021   3F           ADDC      A,R7
   \   000022   F5..         MOV       ?V9,A
   \   000024   EA           MOV       A,R2
   \   000025   2402         ADD       A,#0x2
   \   000027   F5..         MOV       ?V6,A
   \   000029   E4           CLR       A
   \   00002A   3F           ADDC      A,R7
   \   00002B   F5..         MOV       ?V7,A
   \   00002D   800B         SJMP      ??zclProcessInDiscCmd_0
   \                     ??zclProcessInDiscCmd_1:
   \   00002F   05..         INC       ?V0
   \   000031   85..82       MOV       DPL,?XSP + 0
   \   000034   85..83       MOV       DPH,?XSP + 1
   \   000037   E0           MOVX      A,@DPTR
   \   000038   04           INC       A
   \   000039   F0           MOVX      @DPTR,A
   \                     ??zclProcessInDiscCmd_0:
   \   00003A   85..82       MOV       DPL,?V4
   \   00003D   85..83       MOV       DPH,?V5
   \   000040   A3           INC       DPTR
   \   000041   E0           MOVX      A,@DPTR
   \   000042   F8           MOV       R0,A
   \   000043   E5..         MOV       A,?V0
   \   000045   C3           CLR       C
   \   000046   98           SUBB      A,R0
   \   000047   5026         JNC       ??zclProcessInDiscCmd_2
   5015            {
   5016              if ( !zclFindNextCmdRec( pInMsg->msg->endPoint, pInMsg->msg->clusterId, pInMsg->hdr.commandID, pInMsg->hdr.fc.direction, &cmdID, &cmdRec ) )
   \   000049   12....       LCALL     ?Subroutine68 & 0xFFFF
   5017              {
   5018                break;  // Command not supported
   5019              }
   5020            }
   \                     ??CrossCallReturnLabel_105:
   \   00004C   12....       LCALL     ?XSTACK_DISP100_8
   \   00004F   88..         MOV       ?V10,R0
   \   000051   89..         MOV       ?V11,R1
   \   000053   78..         MOV       R0,#?V10
   \   000055   12....       LCALL     ?PUSH_XSTACK_I_TWO
   \   000058   7402         MOV       A,#0x2
   \   00005A   12....       LCALL     ?XSTACK_DISP100_8
   \   00005D   88..         MOV       ?V10,R0
   \   00005F   89..         MOV       ?V11,R1
   \   000061   78..         MOV       R0,#?V10
   \   000063   12....       LCALL     ?PUSH_XSTACK_I_TWO
   \   000066   12....       LCALL     ?Subroutine40 & 0xFFFF
   \                     ??CrossCallReturnLabel_53:
   \   000069   12....       LCALL     ?DEALLOC_XSTACK8
   \   00006C   E9           MOV       A,R1
   \   00006D   70C0         JNZ       ??zclProcessInDiscCmd_1
   5021          
   5022            // Allocate space for the response command
   5023            cmdRsp.pCmdID = zcl_mem_alloc( i ); // size of number of commands returned
   \                     ??zclProcessInDiscCmd_2:
   \   00006F                ; Setup parameters for call to function osal_mem_alloc
   \   00006F   AA..         MOV       R2,?V0
   \   000071   7B00         MOV       R3,#0x0
   \   000073   12....       LCALL     `??osal_mem_alloc::?relay`; Banked call to: osal_mem_alloc
   \   000076   8B..         MOV       ?V3,R3
   \   000078   A9..         MOV       R1,?V3
   \   00007A   7404         MOV       A,#0x4
   \   00007C   12....       LCALL     ?XSTACK_DISP0_8
   \   00007F   12....       LCALL     ??Subroutine234_0 & 0xFFFF
   5024          
   5025            if ( cmdRsp.pCmdID == NULL )
   \                     ??CrossCallReturnLabel_592:
   \   000082   EA           MOV       A,R2
   \   000083   49           ORL       A,R1
   \   000084   7003         JNZ       $+5
   \   000086   02....       LJMP      ??zclProcessInDiscCmd_3 & 0xFFFF
   5026            {
   5027              return FALSE; // EMBEDDED RETURN
   5028            }
   5029          
   5030            if ( i != 0 )
   \   000089   E5..         MOV       A,?V0
   \   00008B   6061         JZ        ??zclProcessInDiscCmd_4
   5031            {
   5032              for ( j = 0, cmdID = pDiscoverCmd->startCmdID; j < i; j++, cmdID++ )
   \   00008D   75..00       MOV       ?V1,#0x0
   \   000090   85..82       MOV       DPL,?V4
   \   000093   85..83       MOV       DPH,?V5
   \   000096   12....       LCALL     ?Subroutine110 & 0xFFFF
   5033              {
   5034                if ( !zclFindNextCmdRec( pInMsg->msg->endPoint, pInMsg->msg->clusterId, pInMsg->hdr.commandID, pInMsg->hdr.fc.direction, &cmdID, &cmdRec ) )
   \                     ??CrossCallReturnLabel_197:
   \   000099   12....       LCALL     ?Subroutine68 & 0xFFFF
   \                     ??CrossCallReturnLabel_106:
   \   00009C   12....       LCALL     ?XSTACK_DISP100_8
   \   00009F   88..         MOV       ?V4,R0
   \   0000A1   89..         MOV       ?V5,R1
   \   0000A3   78..         MOV       R0,#?V4
   \   0000A5   12....       LCALL     ?PUSH_XSTACK_I_TWO
   \   0000A8   7402         MOV       A,#0x2
   \   0000AA   12....       LCALL     ?XSTACK_DISP100_8
   \   0000AD   88..         MOV       ?V4,R0
   \   0000AF   89..         MOV       ?V5,R1
   \   0000B1   78..         MOV       R0,#?V4
   \   0000B3   12....       LCALL     ?PUSH_XSTACK_I_TWO
   \   0000B6   12....       LCALL     ?Subroutine40 & 0xFFFF
   \                     ??CrossCallReturnLabel_54:
   \   0000B9   12....       LCALL     ?DEALLOC_XSTACK8
   \   0000BC   E9           MOV       A,R1
   \   0000BD   602F         JZ        ??zclProcessInDiscCmd_4
   5035                {
   5036                  break; // Attribute not supported
   5037                }
   5038          
   5039                cmdRsp.pCmdID[j] = cmdRec.cmdID;
   \   0000BF   7408         MOV       A,#0x8
   \   0000C1   12....       LCALL     ?XSTACK_DISP0_8
   \   0000C4   E0           MOVX      A,@DPTR
   \   0000C5   C0E0         PUSH      A
   \   0000C7   A8..         MOV       R0,?V1
   \   0000C9   7404         MOV       A,#0x4
   \   0000CB   12....       LCALL     ?XSTACK_DISP0_8
   \   0000CE   E0           MOVX      A,@DPTR
   \   0000CF   28           ADD       A,R0
   \   0000D0   FA           MOV       R2,A
   \   0000D1   A3           INC       DPTR
   \   0000D2   E0           MOVX      A,@DPTR
   \   0000D3   3400         ADDC      A,#0x0
   \   0000D5   8A82         MOV       DPL,R2
   \   0000D7   F583         MOV       DPH,A
   \   0000D9   D0E0         POP       A
   \   0000DB   F0           MOVX      @DPTR,A
   5040              }
   \   0000DC   05..         INC       ?V1
   \   0000DE   85..82       MOV       DPL,?XSP + 0
   \   0000E1   85..83       MOV       DPH,?XSP + 1
   \   0000E4   E0           MOVX      A,@DPTR
   \   0000E5   04           INC       A
   \   0000E6   F0           MOVX      @DPTR,A
   \   0000E7   E5..         MOV       A,?V1
   \   0000E9   C3           CLR       C
   \   0000EA   95..         SUBB      A,?V0
   \   0000EC   40AB         JC        ??CrossCallReturnLabel_197
   5041            }
   5042          
   5043            // Are there more commands to be discovered?
   5044            if ( zclFindNextCmdRec( pInMsg->msg->endPoint, pInMsg->msg->clusterId, pInMsg->hdr.commandID, pInMsg->hdr.fc.direction, &cmdID, &cmdRec ) )
   \                     ??zclProcessInDiscCmd_4:
   \   0000EE   12....       LCALL     ?Subroutine68 & 0xFFFF
   \                     ??CrossCallReturnLabel_107:
   \   0000F1   12....       LCALL     ?XSTACK_DISP100_8
   \   0000F4   88..         MOV       ?V4,R0
   \   0000F6   89..         MOV       ?V5,R1
   \   0000F8   78..         MOV       R0,#?V4
   \   0000FA   12....       LCALL     ?PUSH_XSTACK_I_TWO
   \   0000FD   7402         MOV       A,#0x2
   \   0000FF   12....       LCALL     ?XSTACK_DISP100_8
   \   000102   88..         MOV       ?V4,R0
   \   000104   89..         MOV       ?V5,R1
   \   000106   78..         MOV       R0,#?V4
   \   000108   12....       LCALL     ?PUSH_XSTACK_I_TWO
   \   00010B   12....       LCALL     ?Subroutine40 & 0xFFFF
   \                     ??CrossCallReturnLabel_55:
   \   00010E   12....       LCALL     ?DEALLOC_XSTACK8
   \   000111   E9           MOV       A,R1
   \   000112   6008         JZ        ??zclProcessInDiscCmd_5
   5045            {
   5046              cmdRsp.discComplete = FALSE;
   \   000114   7401         MOV       A,#0x1
   \   000116   12....       LCALL     ?XSTACK_DISP0_8
   \   000119   E4           CLR       A
   \   00011A   8007         SJMP      ??zclProcessInDiscCmd_6
   5047            }
   5048            else
   5049            {
   5050              cmdRsp.discComplete = TRUE;
   \                     ??zclProcessInDiscCmd_5:
   \   00011C   7401         MOV       A,#0x1
   \   00011E   12....       LCALL     ?XSTACK_DISP0_8
   \   000121   7401         MOV       A,#0x1
   \                     ??zclProcessInDiscCmd_6:
   \   000123   F0           MOVX      @DPTR,A
   5051            }
   5052          
   5053            // pass the command requested
   5054            cmdRsp.cmdType = pInMsg->hdr.commandID;
   \   000124   85..82       MOV       DPL,?V8
   \   000127   85..83       MOV       DPH,?V9
   \   00012A   E0           MOVX      A,@DPTR
   \   00012B   C0E0         PUSH      A
   \   00012D   7402         MOV       A,#0x2
   \   00012F   12....       LCALL     ?XSTACK_DISP0_8
   \   000132   D0E0         POP       A
   \   000134   F0           MOVX      @DPTR,A
   5055          
   5056            // store number of commands returned
   5057            cmdRsp.numCmd = j;
   \   000135   7403         MOV       A,#0x3
   \   000137   12....       LCALL     ?XSTACK_DISP0_8
   \   00013A   E5..         MOV       A,?V1
   \   00013C   12....       LCALL     ?Subroutine26 & 0xFFFF
   5058          
   5059            status = zcl_SendDiscoverCmdsRspCmd( pInMsg->msg->endPoint, &pInMsg->msg->srcAddr,
   5060                                                pInMsg->msg->clusterId, &cmdRsp, !(pInMsg->hdr.fc.direction),
   5061                                                true, pInMsg->hdr.transSeqNum );
   \                     ??CrossCallReturnLabel_30:
   \   00013F   F5..         MOV       ?V0,A
   \   000141   A3           INC       DPTR
   \   000142   E0           MOVX      A,@DPTR
   \   000143   F5..         MOV       ?V1,A
   \   000145                ; Setup parameters for call to function zcl_SendDiscoverCmdsRspCmd
   \   000145   12....       LCALL     ?Subroutine48 & 0xFFFF
   \                     ??CrossCallReturnLabel_511:
   \   000148   12....       LCALL     ?PUSH_XSTACK_I_ONE
   \   00014B   75..01       MOV       ?V2,#0x1
   \   00014E   78..         MOV       R0,#?V2
   \   000150   12....       LCALL     ?PUSH_XSTACK_I_ONE
   \   000153   85..82       MOV       DPL,?V6
   \   000156   85..83       MOV       DPH,?V7
   \   000159   12....       LCALL     ?Subroutine50 & 0xFFFF
   \                     ??CrossCallReturnLabel_64:
   \   00015C   12....       LCALL     ?PUSH_XSTACK_I_ONE
   \   00015F   7404         MOV       A,#0x4
   \   000161   12....       LCALL     ?XSTACK_DISP100_8
   \   000164   88..         MOV       ?V2,R0
   \   000166   89..         MOV       ?V3,R1
   \   000168   78..         MOV       R0,#?V2
   \   00016A   12....       LCALL     ?PUSH_XSTACK_I_TWO
   \   00016D   85..82       MOV       DPL,?V0
   \   000170   85..83       MOV       DPH,?V1
   \   000173   12....       LCALL     ?Subroutine94 & 0xFFFF
   \                     ??CrossCallReturnLabel_479:
   \   000176   E5..         MOV       A,?V0
   \   000178   12....       LCALL     ??Subroutine231_0 & 0xFFFF
   \                     ??CrossCallReturnLabel_573:
   \   00017B   35..         ADDC      A,?V1
   \   00017D   FB           MOV       R3,A
   \   00017E   E5..         MOV       A,?V0
   \   000180   12....       LCALL     ??Subroutine216_0 & 0xFFFF
   \                     ??CrossCallReturnLabel_484:
   \   000183   35..         ADDC      A,?V1
   \   000185   F583         MOV       DPH,A
   \   000187   E0           MOVX      A,@DPTR
   \   000188   F9           MOV       R1,A
   \   000189   12....       LCALL     `??zcl_SendDiscoverCmdsRspCmd::?relay`; Banked call to: zcl_SendDiscoverCmdsRspCmd
   \   00018C   7405         MOV       A,#0x5
   \   00018E   12....       LCALL     ?DEALLOC_XSTACK8
   \   000191   E9           MOV       A,R1
   \   000192   FE           MOV       R6,A
   5062          
   5063            zcl_mem_free( cmdRsp.pCmdID );
   \   000193                ; Setup parameters for call to function osal_mem_free
   \   000193   7404         MOV       A,#0x4
   \   000195   12....       LCALL     ?XSTACK_DISP0_8
   \   000198   12....       LCALL     ?Subroutine91 & 0xFFFF
   5064          
   5065            if ( status == ZSuccess )
   \                     ??CrossCallReturnLabel_149:
   \   00019B   EE           MOV       A,R6
   \   00019C   7004         JNZ       ??zclProcessInDiscCmd_3
   5066            {
   5067              return TRUE;
   \   00019E   7901         MOV       R1,#0x1
   \   0001A0   8002         SJMP      ??zclProcessInDiscCmd_7
   5068            }
   5069            else
   5070            {
   5071              return FALSE;
   \                     ??zclProcessInDiscCmd_3:
   \   0001A2   7900         MOV       R1,#0x0
   5072            }
   \                     ??zclProcessInDiscCmd_7:
   \   0001A4   02....       LJMP      ?Subroutine6 & 0xFFFF
   5073          }

   \                                 In  segment BANKED_CODE, align 1, keep-with-next
   \                     ?Subroutine110:
   \   000000   12....       LCALL     ?Subroutine166 & 0xFFFF
   \                     ??CrossCallReturnLabel_282:
   \   000003   22           RET

   \                                 In  segment BANKED_CODE, align 1, keep-with-next
   \                     ?Subroutine68:
   \   000000   8E82         MOV       DPL,R6
   \   000002   8F83         MOV       DPH,R7
   \   000004   12....       LCALL     ??Subroutine230_0 & 0xFFFF
   \                     ??CrossCallReturnLabel_567:
   \   000007                ; Setup parameters for call to function zclFindNextCmdRec
   \   000007                ; Setup parameters for call to function zclFindNextCmdRec
   \   000007                ; Setup parameters for call to function zclFindNextCmdRec
   \   000007   7406         MOV       A,#0x6
   \   000009   22           RET

   \                                 In  segment BANKED_CODE, align 1, keep-with-next
   \                     ?Subroutine40:
   \   000000   85..82       MOV       DPL,?V6
   \   000003   85..83       MOV       DPH,?V7
   \   000006   12....       LCALL     ?Subroutine155 & 0xFFFF
   \                     ??CrossCallReturnLabel_541:
   \   000009   FD           MOV       R5,A
   \   00000A   85..82       MOV       DPL,?V8
   \   00000D   85..83       MOV       DPH,?V9
   \   000010   E0           MOVX      A,@DPTR
   \   000011   12....       LCALL     ?Subroutine149 & 0xFFFF
   \                     ??CrossCallReturnLabel_258:
   \   000014   12....       LCALL     `??zclFindNextCmdRec::?relay`; Banked call to: zclFindNextCmdRec
   \   000017   7404         MOV       A,#0x4
   \   000019   22           RET
   5074          
   5075          #endif // ZCL_DISCOVER
   5076          
   5077          
   5078          /*********************************************************************
   5079          *********************************************************************/

   Maximum stack usage in bytes:

   ISTACK XSTACK Function
   ------ ------ --------
      0     29   zclAuthorizeWrite
        0     14   -> zclGetAuthorizeCB
      1     39   zclBuildHdr
      2     54   zclFindAttrRec
        0     16   -> zclFindAttrRecsList
      2     16   zclFindAttrRecsList
      0     19   zclFindClusterOption
      2     16   zclFindCmdRec
        0     14   -> zclFindCmdRecsList
      2     16   zclFindCmdRecsList
      0     50   zclFindNextAttrRec
        0     16   -> zclFindAttrRecsList
      1     50   zclFindNextCmdRec
        0     16   -> zclFindCmdRecsList
      0     45   zclGetAttrDataLength
        0      9   -> zclGetDataTypeLength
      0     58   zclGetAttrDataLengthUsingCB
        0     18   -> zclGetReadWriteCB
      0     42   zclGetAuthorizeCB
        0     10   -> zclFindAttrRecsList
      0     46   zclGetClusterOption
        0     10   -> zclFindClusterOption
      0      9   zclGetDataTypeLength
      0     28   zclGetReadWriteCB
        0     10   -> zclFindAttrRecsList
      1     48   zclParseHdr
        0     12   -> osal_memset
      1     10   zclParseInDefaultRspCmd
        0     10   -> osal_mem_alloc
      1     10   zclParseInDiscAttrsCmd
        0     10   -> osal_mem_alloc
      1     14   zclParseInDiscAttrsExtRspCmd
        0     14   -> osal_mem_alloc
      1     12   zclParseInDiscAttrsRspCmd
        0     12   -> osal_mem_alloc
      1     10   zclParseInDiscCmdsCmd
        0     10   -> osal_mem_alloc
      1     12   zclParseInDiscCmdsRspCmd
        0     12   -> osal_mem_alloc
      1     12   zclParseInReadCmd
        0     12   -> osal_mem_alloc
      1     25   zclParseInReadRspCmd
        0     22   -> osal_mem_alloc
        0     25   -> osal_memcpy
        0     22   -> zclGetAttrDataLength
      1     25   zclParseInWriteCmd
        0     22   -> osal_mem_alloc
        0     25   -> osal_memcpy
        0     22   -> zclGetAttrDataLength
      1     16   zclParseInWriteRspCmd
        0     16   -> osal_mem_alloc
      0     30   zclProcessInDiscAttrs
        0     30   -> zclFindNextAttrRec
        0     26   -> zclProcessInDiscAttrsCmd
        0     26   -> zclProcessInDiscAttrsExtCmd
      1     61   zclProcessInDiscAttrsCmd
        0     30   -> osal_mem_alloc
        0     30   -> osal_mem_free
        0     34   -> zclFindNextAttrRec
        0     35   -> zcl_SendDiscoverAttrsRspCmd
      1     61   zclProcessInDiscAttrsExtCmd
        0     30   -> osal_mem_alloc
        0     30   -> osal_mem_free
        0     34   -> zclFindNextAttrRec
        0     35   -> zcl_SendDiscoverAttrsExtRsp
      1     35   zclProcessInDiscCmd
        0     30   -> osal_mem_alloc
        0     30   -> osal_mem_free
        0     34   -> zclFindNextCmdRec
        0     35   -> zcl_SendDiscoverCmdsRspCmd
      1     37   zclProcessInReadCmd
        0     32   -> osal_mem_alloc
        0     32   -> osal_mem_free
        0     34   -> zclFindAttrRec
        0     32   -> zclGetAuthorizeCB
        0     37   -> zcl_SendReadRsp
      1     39   zclProcessInWriteCmd
        0     34   -> bdb_ZclIdentifyCmdInd
        0     34   -> osal_mem_alloc
        0     34   -> osal_mem_free
        0     37   -> osal_memcpy
        0     36   -> zclFindAttrRec
        0     36   -> zclWriteAttrData
        0     36   -> zclWriteAttrDataUsingCB
        0     39   -> zcl_SendWriteRsp
      1     41   zclProcessInWriteUndividedCmd
        0     36   -> osal_mem_alloc
        0     36   -> osal_mem_free
        0     38   -> zclFindAttrRec
        0     36   -> zclGetAttrDataLength
        0     36   -> zclGetAttrDataLengthUsingCB
        0     38   -> zclReadAttrData
        0     40   -> zclReadAttrDataUsingCB
        0     38   -> zclRevertWriteUndividedCmd
        0     38   -> zclWriteAttrData
        0     38   -> zclWriteAttrDataUsingCB
        0     41   -> zcl_SendWriteRsp
      0     56   zclReadAttrData
        0     18   -> osal_memcpy
        0     15   -> zclGetAttrDataLength
      0     60   zclReadAttrDataUsingCB
        0     16   -> zclGetReadWriteCB
      0     69   zclRevertWriteUndividedCmd
        0     31   -> osal_memcpy
        0     30   -> zclFindAttrRec
        0     28   -> zclGetAttrDataLength
        0     30   -> zclWriteAttrDataUsingCB
      1     43   zclSerializeData
        0     19   -> osal_buffer_uint32
        0     18   -> osal_memcpy
      0     46   zclSetSecurityOption
        0     10   -> zclFindClusterOption
      0     56   zclWriteAttrData
        0     18   -> osal_memcpy
        0     15   -> zclAuthorizeWrite
        0     15   -> zclGetAttrDataLength
      0     56   zclWriteAttrDataUsingCB
        0     14   -> zclAuthorizeWrite
        0     14   -> zclGetReadWriteCB
      0     61   zcl_DeviceOperational
        0     23   -> zclFindAttrRec
        0     23   -> zclReadAttrData
      1     12   zcl_HandleExternal
        0     12   -> osal_msg_allocate
        0     12   -> osal_msg_send
        0     12   -> zcl_getExternalFoundationHandler
      2      0   zcl_Init
      1     55   zcl_ProcessMessageMSG
        0     36   -> afFindEndPointDesc
        0     36   -> osal_mem_free
        0     36   -> zclGetClusterOption
        0     36   -> zclParseHdr
        0     36   -> zclSetSecurityOption
        0     38   -> zcl_DeviceOperational
        0     43   -> zcl_SendDefaultRspCmd
      0     32   zcl_ReadAttrData
        0     26   -> zclFindAttrRec
        0     26   -> zclReadAttrData
        0     28   -> zclReadAttrDataUsingCB
      1     74   zcl_SendCommand
        0     39   -> AF_DataRequest
        0     30   -> afFindEndPointDesc
        0     30   -> osal_mem_alloc
        0     30   -> osal_mem_free
        0     33   -> osal_memcpy
        0     30   -> osal_memset
        0     30   -> zclBuildHdr
        0     30   -> zclGetClusterOption
        0     32   -> zcl_DeviceOperational
      1     66   zcl_SendDefaultRspCmd
        0     23   -> zcl_SendCommand
      1     32   zcl_SendDiscoverAttrsCmd
        0     16   -> osal_mem_alloc
        0     16   -> osal_mem_free
        0     27   -> zcl_SendCommand
      1     31   zcl_SendDiscoverAttrsExt
        0     26   -> zcl_SendCommand
      1     70   zcl_SendDiscoverAttrsExtRsp
        0     24   -> osal_mem_alloc
        0     24   -> osal_mem_free
        0     35   -> zcl_SendCommand
      1     70   zcl_SendDiscoverAttrsRspCmd
        0     24   -> osal_mem_alloc
        0     24   -> osal_mem_free
        0     35   -> zcl_SendCommand
      1     31   zcl_SendDiscoverCmdsCmd
        0     25   -> zcl_SendCommand
      1     68   zcl_SendDiscoverCmdsRspCmd
        0     22   -> osal_mem_alloc
        0     22   -> osal_mem_free
        0     33   -> zcl_SendCommand
      1     36   zcl_SendRead
        0     20   -> osal_mem_alloc
        0     20   -> osal_mem_free
        0     31   -> zcl_SendCommand
      1     72   zcl_SendReadRsp
        0     24   -> osal_mem_alloc
        0     24   -> osal_mem_free
        0     24   -> zclGetAttrDataLength
        0     24   -> zclGetAttrDataLengthUsingCB
        0     28   -> zclReadAttrDataUsingCB
        0     24   -> zclSerializeData
        0     35   -> zcl_SendCommand
      1     39   zcl_SendWriteRequest
        0     22   -> osal_mem_alloc
        0     22   -> osal_mem_free
        0     22   -> zclGetAttrDataLength
        0     22   -> zclSerializeData
        0     33   -> zcl_SendCommand
      1     72   zcl_SendWriteRsp
        0     20   -> osal_mem_alloc
        0     20   -> osal_mem_free
        0     31   -> zcl_SendCommand
      1     19   zcl_addExternalFoundationHandler
        0     10   -> osal_mem_alloc
        0     10   -> osal_mem_free
      0     12   zcl_event_loop
        0     12   -> osal_msg_deallocate
        0     12   -> osal_msg_receive
        0     12   -> osal_msg_send
        0     12   -> zcl_ProcessMessageMSG
        0     12   -> zcl_getExternalFoundationHandler
      2     12   zcl_getExternalFoundationHandler
      2      0   zcl_getParsedTransSeqNum
      2      0   zcl_getRawAFMsg
      1     12   zcl_registerAttrList
        0     12   -> osal_mem_alloc
      1     12   zcl_registerClusterOptionList
        0     12   -> osal_mem_alloc
      1     12   zcl_registerCmdList
        0     12   -> osal_mem_alloc
      0      9   zcl_registerForMsg
        0      9   -> zcl_addExternalFoundationHandler
      0      9   zcl_registerForMsgExt
        0      9   -> zcl_addExternalFoundationHandler
      0     14   zcl_registerPlugin
        0     12   -> osal_mem_alloc
      0     14   zcl_registerReadWriteCB
        0     14   -> zclFindAttrRecsList
      2      0   zcl_registerValidateAttrData


   Segment part sizes:

   Bytes  Function/Label
   -----  --------------
      16  ??Subroutine179_0
       5  ??Subroutine180_0
       6  ??Subroutine181_0
       1  ??Subroutine182_0
       2  ??Subroutine183_0
       6  ??Subroutine184_0
       6  ??Subroutine185_0
       5  ??Subroutine186_0
       8  ??Subroutine187_0
       2  ??Subroutine188_0
       6  ??Subroutine189_0
      12  ??Subroutine190_0
       8  ??Subroutine191_0
       5  ??Subroutine192_0
       5  ??Subroutine193_0
       5  ??Subroutine194_0
       2  ??Subroutine195_0
       6  ??Subroutine196_0
       1  ??Subroutine197_0
       5  ??Subroutine198_0
       4  ??Subroutine199_0
       6  ??Subroutine200_0
       8  ??Subroutine201_0
       6  ??Subroutine202_0
       5  ??Subroutine203_0
       6  ??Subroutine204_0
       4  ??Subroutine205_0
       1  ??Subroutine206_0
       3  ??Subroutine207_0
       4  ??Subroutine208_0
       6  ??Subroutine209_0
       8  ??Subroutine210_0
       2  ??Subroutine211_0
       4  ??Subroutine212_0
       3  ??Subroutine213_0
       5  ??Subroutine214_0
       5  ??Subroutine215_0
       4  ??Subroutine216_0
       8  ??Subroutine217_0
       4  ??Subroutine218_0
       9  ??Subroutine219_0
       6  ??Subroutine220_0
       6  ??Subroutine221_0
      21  ??Subroutine222_0
       6  ??Subroutine223_0
       7  ??Subroutine224_0
       7  ??Subroutine225_0
       8  ??Subroutine226_0
      30  ??Subroutine227_0
       1  ??Subroutine228_0
      10  ??Subroutine229_0
       8  ??Subroutine230_0
       5  ??Subroutine231_0
       6  ??Subroutine232_0
       2  ??Subroutine233_0
       6  ??Subroutine234_0
       7  ?Subroutine0
       3  ?Subroutine1
       5  ?Subroutine10
       6  ?Subroutine100
       5  ?Subroutine101
       4  ?Subroutine102
      14  ?Subroutine103
      14  ?Subroutine104
      16  ?Subroutine105
       6  ?Subroutine106
       8  ?Subroutine107
       9  ?Subroutine108
       5  ?Subroutine109
       5  ?Subroutine11
       4  ?Subroutine110
       4  ?Subroutine111
       9  ?Subroutine112
       4  ?Subroutine113
       8  ?Subroutine114
       4  ?Subroutine115
      10  ?Subroutine116
       2  ?Subroutine117
      11  ?Subroutine118
      13  ?Subroutine119
      13  ?Subroutine12
      12  ?Subroutine120
      10  ?Subroutine121
       2  ?Subroutine122
       4  ?Subroutine123
      16  ?Subroutine124
      12  ?Subroutine125
      13  ?Subroutine126
       6  ?Subroutine127
       1  ?Subroutine128
       7  ?Subroutine129
      32  ?Subroutine13
      22  ?Subroutine130
      14  ?Subroutine131
       9  ?Subroutine132
       9  ?Subroutine133
       8  ?Subroutine134
       4  ?Subroutine135
      12  ?Subroutine136
      18  ?Subroutine137
       9  ?Subroutine138
      18  ?Subroutine139
      12  ?Subroutine14
      10  ?Subroutine140
      12  ?Subroutine141
      12  ?Subroutine142
      16  ?Subroutine143
       5  ?Subroutine144
      11  ?Subroutine145
       9  ?Subroutine146
       9  ?Subroutine147
       6  ?Subroutine148
      28  ?Subroutine149
       1  ?Subroutine15
       8  ?Subroutine150
       4  ?Subroutine151
       6  ?Subroutine152
       4  ?Subroutine153
       3  ?Subroutine154
       6  ?Subroutine155
      13  ?Subroutine156
       7  ?Subroutine157
       8  ?Subroutine158
      11  ?Subroutine159
      23  ?Subroutine16
       8  ?Subroutine160
      10  ?Subroutine161
       4  ?Subroutine162
       9  ?Subroutine163
      16  ?Subroutine164
       5  ?Subroutine165
       5  ?Subroutine166
       9  ?Subroutine167
       9  ?Subroutine168
       4  ?Subroutine169
      26  ?Subroutine17
      12  ?Subroutine170
       4  ?Subroutine171
       2  ?Subroutine172
      10  ?Subroutine173
       6  ?Subroutine174
       8  ?Subroutine175
       5  ?Subroutine176
       7  ?Subroutine177
       6  ?Subroutine178
       6  ?Subroutine18
      13  ?Subroutine19
       3  ?Subroutine2
      13  ?Subroutine20
      13  ?Subroutine21
       6  ?Subroutine22
       8  ?Subroutine23
       4  ?Subroutine24
       8  ?Subroutine25
       5  ?Subroutine26
       7  ?Subroutine27
      18  ?Subroutine28
       8  ?Subroutine29
       5  ?Subroutine3
       4  ?Subroutine30
       7  ?Subroutine31
       5  ?Subroutine32
      11  ?Subroutine33
       7  ?Subroutine34
       3  ?Subroutine35
      10  ?Subroutine36
      12  ?Subroutine37
       4  ?Subroutine38
       9  ?Subroutine39
       5  ?Subroutine4
      26  ?Subroutine40
       6  ?Subroutine41
       6  ?Subroutine42
       3  ?Subroutine43
       5  ?Subroutine44
      18  ?Subroutine45
      28  ?Subroutine46
      29  ?Subroutine47
       4  ?Subroutine48
       6  ?Subroutine49
       3  ?Subroutine5
       8  ?Subroutine50
      18  ?Subroutine51
       4  ?Subroutine52
       4  ?Subroutine53
       9  ?Subroutine54
      12  ?Subroutine55
       7  ?Subroutine56
       6  ?Subroutine57
      10  ?Subroutine58
       9  ?Subroutine59
       2  ?Subroutine6
       6  ?Subroutine60
      13  ?Subroutine61
      10  ?Subroutine62
       6  ?Subroutine63
      17  ?Subroutine64
      18  ?Subroutine65
       6  ?Subroutine66
       2  ?Subroutine67
      10  ?Subroutine68
       6  ?Subroutine69
       4  ?Subroutine7
      14  ?Subroutine70
      26  ?Subroutine71
      12  ?Subroutine72
       9  ?Subroutine73
      21  ?Subroutine74
       6  ?Subroutine75
       5  ?Subroutine76
       1  ?Subroutine77
      13  ?Subroutine78
       5  ?Subroutine79
       3  ?Subroutine8
      10  ?Subroutine80
       9  ?Subroutine81
       7  ?Subroutine82
      12  ?Subroutine83
      11  ?Subroutine84
       6  ?Subroutine85
       8  ?Subroutine86
       4  ?Subroutine87
       4  ?Subroutine88
       6  ?Subroutine89
       5  ?Subroutine9
       4  ?Subroutine90
       7  ?Subroutine91
       1  ?Subroutine92
       8  ?Subroutine93
       2  ?Subroutine94
       7  ?Subroutine95
       6  ?Subroutine96
       6  ?Subroutine97
      12  ?Subroutine98
       4  ?Subroutine99
       2  attrList
       2  clusterOptionList
       2  externalEndPointHandlerList
       2  gpCmdList
       2  plugins
       2  rawAFMsg
       1  savedZCLTransSeqNum
      51  zclAuthorizeWrite
     102  zclBuildHdr
      92  zclCmdTable
     128  zclFindAttrRec
      37  zclFindAttrRecsList
     102  zclFindClusterOption
     108  zclFindCmdRec
      37  zclFindCmdRecsList
     186  zclFindNextAttrRec
     242  zclFindNextCmdRec
      63  zclGetAttrDataLength
     100  zclGetAttrDataLengthUsingCB
      22  zclGetAuthorizeCB
      26  zclGetClusterOption
     166  zclGetDataTypeLength
      22  zclGetReadWriteCB
     221  zclParseHdr
      16  zclParseInDefaultRspCmd
      41  zclParseInDiscAttrsCmd
     138  zclParseInDiscAttrsExtRspCmd
      89  zclParseInDiscAttrsRspCmd
      16  zclParseInDiscCmdsCmd
      89  zclParseInDiscCmdsRspCmd
     100  zclParseInReadCmd
     329  zclParseInReadRspCmd
     317  zclParseInWriteCmd
     121  zclParseInWriteRspCmd
     174  zclProcessInDiscAttrs
     204  zclProcessInDiscAttrsCmd
     243  zclProcessInDiscAttrsExtCmd
     423  zclProcessInDiscCmd
     428  zclProcessInReadCmd
     553  zclProcessInWriteCmd
     780  zclProcessInWriteUndividedCmd
      96  zclReadAttrData
      92  zclReadAttrDataUsingCB
     235  zclRevertWriteUndividedCmd
     372  zclSerializeData
      41  zclSetSecurityOption
     141  zclWriteAttrData
     103  zclWriteAttrDataUsingCB
     118  zcl_DeviceOperational
     167  zcl_HandleExternal
       1  zcl_InSeqNum
      12  zcl_Init
    1069  zcl_ProcessMessageMSG
     129  zcl_ReadAttrData
     415  zcl_SendCommand
     127  zcl_SendDefaultRspCmd
     164  zcl_SendDiscoverAttrsCmd
     142  zcl_SendDiscoverAttrsExt
     242  zcl_SendDiscoverAttrsExtRsp
     202  zcl_SendDiscoverAttrsRspCmd
     197  zcl_SendDiscoverCmdsCmd
     309  zcl_SendDiscoverCmdsRspCmd
     172  zcl_SendRead
     434  zcl_SendReadRsp
     306  zcl_SendWriteRequest
     219  zcl_SendWriteRsp
       1  zcl_TaskID
       1  zcl_TransID
       2  zcl_ValidateAttrDataCB
     130  zcl_addExternalFoundationHandler
      98  zcl_event_loop
      60  zcl_getExternalFoundationHandler
       9  zcl_getParsedTransSeqNum
      12  zcl_getRawAFMsg
      84  zcl_registerAttrList
      51  zcl_registerClusterOptionList
      50  zcl_registerCmdList
      10  zcl_registerForMsg
       8  zcl_registerForMsgExt
      78  zcl_registerPlugin
      54  zcl_registerReadWriteCB
      15  zcl_registerValidateAttrData
     420  -- Other

 
 13 768 bytes in segment BANKED_CODE
    420 bytes in segment BANK_RELAYS
     92 bytes in segment CODE_C
     18 bytes in segment XDATA_Z
 
    512 bytes of CODE     memory
 13 768 bytes of HUGECODE memory
     18 bytes of XDATA    memory

Errors: none
Warnings: none
