///////////////////////////////////////////////////////////////////////////////
//
// IAR C/C++ Compiler V10.30.1.6000 for 8051              16/Mar/2020  15:56:08
// Copyright 2004-2018 IAR Systems AB.
// Evaluation license - IAR Embedded Workbench for 8051, Evaluation edition 10.30
//
//    Core               =  plain
//    Code model         =  banked
//    Data model         =  large
//    Calling convention =  xdata reentrant
//    Constant location  =  data_rom
//    Dptr setup         =  1,16
//                          
//    Source file        =  
//        C:\Texas Instruments\Z-Stack
//        3.0.1\Projects\zstack\HomeAutomation\zigIt\Source\zcl_samplesw.c
//    Command line       =  
//        -f C:\Users\monster\AppData\Local\Temp\EWC65A.tmp ("C:\Texas
//        Instruments\Z-Stack
//        3.0.1\Projects\zstack\HomeAutomation\zigIt\Source\zcl_samplesw.c" -D
//        NV_INIT -D xNV_RESTORE -D TC_LINKKEY_JOIN -D ZBA_FALLBACK_NWKKEY -D
//        xPOWER_SAVING -D NWK_AUTO_POLL -D ZTOOL_P1 -D MT_TASK -D MT_APP_FUNC
//        -D MT_SYS_FUNC -D MT_ZDO_FUNC -D MT_ZDO_MGMT -D xZCL_EZMODE -D
//        MT_APP_CNF_FUNC -D MULTICAST_ENABLED=FALSE -D ZCL_READ -D
//        ZCL_DISCOVER -D ZCL_WRITE -D ZCL_REPORT -D ZCL_BASIC -D ZCL_IDENTIFY
//        -D ZCL_ON_OFF -D ZCL_GROUPS -D ZCL_DIAGNOSTIC -D FEATURE_SYSTEM_STATS
//        -D HAL_KEY=FALSE -D HAL_LED=FALSE -D HAL_LCD=FALSE -D HAL_UART=FALSE
//        -D BDB_REPORTING -lC "C:\Texas Instruments\Z-Stack
//        3.0.1\Projects\zstack\HomeAutomation\zigIt\CC2530DB\EndDeviceEB\List"
//        -lA "C:\Texas Instruments\Z-Stack
//        3.0.1\Projects\zstack\HomeAutomation\zigIt\CC2530DB\EndDeviceEB\List"
//        --diag_suppress Pe001,Pa010 -o "C:\Texas Instruments\Z-Stack
//        3.0.1\Projects\zstack\HomeAutomation\zigIt\CC2530DB\EndDeviceEB\Obj"
//        -e --debug --core=plain --dptr=16,1 --data_model=large
//        --code_model=banked --calling_convention=xdata_reentrant
//        --place_constants=data_rom --nr_virtual_regs 16 -f "C:\Texas
//        Instruments\Z-Stack
//        3.0.1\Projects\zstack\HomeAutomation\zigIt\CC2530DB\..\..\..\Tools\CC2530DB\f8wEndev.cfg"
//        (-DCPU32MHZ -DROOT=__near_func -DMAC_CFG_TX_DATA_MAX=3
//        -DMAC_CFG_TX_MAX=6 -DMAC_CFG_RX_MAX=3) -f "C:\Texas
//        Instruments\Z-Stack
//        3.0.1\Projects\zstack\HomeAutomation\zigIt\CC2530DB\..\..\..\Tools\CC2530DB\f8wConfig.cfg"
//        (-DZIGBEEPRO -DSECURE=1 -DZG_SECURE_DYNAMIC=0 -DREFLECTOR
//        -DDEFAULT_CHANLIST=MAX_CHANNELS_24GHZ -DZDAPP_CONFIG_PAN_ID=0xFFFF
//        -DNWK_START_DELAY=100 -DEXTENDED_JOINING_RANDOM_MASK=0x007F
//        -DBEACON_REQUEST_DELAY=100 -DBEACON_REQ_DELAY_MASK=0x00FF
//        -DLINK_STATUS_JITTER_MASK=0x007F -DROUTE_EXPIRY_TIME=30
//        -DAPSC_ACK_WAIT_DURATION_POLLED=3000 -DNWK_INDIRECT_MSG_TIMEOUT=7
//        -DMAX_RREQ_ENTRIES=8 -DAPSC_MAX_FRAME_RETRIES=3
//        -DNWK_MAX_DATA_RETRIES=2 -DMAX_POLL_FAILURE_RETRIES=2 -DMAX_BCAST=9
//        -DAPS_MAX_GROUPS=16 -DMAX_RTG_ENTRIES=40 -DNWK_MAX_BINDING_ENTRIES=4
//        -DMAX_BINDING_CLUSTER_IDS=4 -DMAC_MAX_FRAME_SIZE=116
//        -DZDNWKMGR_MIN_TRANSMISSIONS=20 "-DCONST=const __code"
//        -DGENERIC=__generic -DRFD_RCVC_ALWAYS_ON=FALSE -DPOLL_RATE=1000
//        -DQUEUED_POLL_RATE=100 -DRESPONSE_POLL_RATE=100
//        -DREJOIN_POLL_RATE=440 -DREJOIN_BACKOFF=900000 -DREJOIN_SCAN=900000
//        -DENABLE_LED4_DISABLE_S1) -f "C:\Texas Instruments\Z-Stack
//        3.0.1\Projects\zstack\HomeAutomation\zigIt\CC2530DB\..\..\..\Tools\CC2530DB\f8wZCL.cfg"
//        -I "C:\Texas Instruments\Z-Stack
//        3.0.1\Projects\zstack\HomeAutomation\zigIt\CC2530DB\" -I "C:\Texas
//        Instruments\Z-Stack
//        3.0.1\Projects\zstack\HomeAutomation\zigIt\CC2530DB\..\Source\" -I
//        "C:\Texas Instruments\Z-Stack
//        3.0.1\Projects\zstack\HomeAutomation\zigIt\CC2530DB\..\..\Source\" -I
//        "C:\Texas Instruments\Z-Stack
//        3.0.1\Projects\zstack\HomeAutomation\zigIt\CC2530DB\..\..\..\ZMain\TI2530DB\"
//        -I "C:\Texas Instruments\Z-Stack
//        3.0.1\Projects\zstack\HomeAutomation\zigIt\CC2530DB\..\..\..\..\..\Components\hal\include\"
//        -I "C:\Texas Instruments\Z-Stack
//        3.0.1\Projects\zstack\HomeAutomation\zigIt\CC2530DB\..\..\..\..\..\Components\hal\target\CC2530EB\"
//        -I "C:\Texas Instruments\Z-Stack
//        3.0.1\Projects\zstack\HomeAutomation\zigIt\CC2530DB\..\..\..\..\..\Components\mac\include\"
//        -I "C:\Texas Instruments\Z-Stack
//        3.0.1\Projects\zstack\HomeAutomation\zigIt\CC2530DB\..\..\..\..\..\Components\mac\high_level\"
//        -I "C:\Texas Instruments\Z-Stack
//        3.0.1\Projects\zstack\HomeAutomation\zigIt\CC2530DB\..\..\..\..\..\Components\mac\low_level\srf04\"
//        -I "C:\Texas Instruments\Z-Stack
//        3.0.1\Projects\zstack\HomeAutomation\zigIt\CC2530DB\..\..\..\..\..\Components\mac\low_level\srf04\single_chip\"
//        -I "C:\Texas Instruments\Z-Stack
//        3.0.1\Projects\zstack\HomeAutomation\zigIt\CC2530DB\..\..\..\..\..\Components\mt\"
//        -I "C:\Texas Instruments\Z-Stack
//        3.0.1\Projects\zstack\HomeAutomation\zigIt\CC2530DB\..\..\..\..\..\Components\osal\include\"
//        -I "C:\Texas Instruments\Z-Stack
//        3.0.1\Projects\zstack\HomeAutomation\zigIt\CC2530DB\..\..\..\..\..\Components\services\saddr\"
//        -I "C:\Texas Instruments\Z-Stack
//        3.0.1\Projects\zstack\HomeAutomation\zigIt\CC2530DB\..\..\..\..\..\Components\services\sdata\"
//        -I "C:\Texas Instruments\Z-Stack
//        3.0.1\Projects\zstack\HomeAutomation\zigIt\CC2530DB\..\..\..\..\..\Components\stack\af\"
//        -I "C:\Texas Instruments\Z-Stack
//        3.0.1\Projects\zstack\HomeAutomation\zigIt\CC2530DB\..\..\..\..\..\Components\stack\bdb\"
//        -I "C:\Texas Instruments\Z-Stack
//        3.0.1\Projects\zstack\HomeAutomation\zigIt\CC2530DB\..\..\..\..\..\Components\stack\gp\"
//        -I "C:\Texas Instruments\Z-Stack
//        3.0.1\Projects\zstack\HomeAutomation\zigIt\CC2530DB\..\..\..\..\..\Components\stack\nwk\"
//        -I "C:\Texas Instruments\Z-Stack
//        3.0.1\Projects\zstack\HomeAutomation\zigIt\CC2530DB\..\..\..\..\..\Components\stack\sapi\"
//        -I "C:\Texas Instruments\Z-Stack
//        3.0.1\Projects\zstack\HomeAutomation\zigIt\CC2530DB\..\..\..\..\..\Components\stack\sec\"
//        -I "C:\Texas Instruments\Z-Stack
//        3.0.1\Projects\zstack\HomeAutomation\zigIt\CC2530DB\..\..\..\..\..\Components\stack\sys\"
//        -I "C:\Texas Instruments\Z-Stack
//        3.0.1\Projects\zstack\HomeAutomation\zigIt\CC2530DB\..\..\..\..\..\Components\stack\zcl\"
//        -I "C:\Texas Instruments\Z-Stack
//        3.0.1\Projects\zstack\HomeAutomation\zigIt\CC2530DB\..\..\..\..\..\Components\stack\zdo\"
//        -I "C:\Texas Instruments\Z-Stack
//        3.0.1\Projects\zstack\HomeAutomation\zigIt\CC2530DB\..\..\..\..\..\Components\zmac\"
//        -I "C:\Texas Instruments\Z-Stack
//        3.0.1\Projects\zstack\HomeAutomation\zigIt\CC2530DB\..\..\..\..\..\Components\zmac\f8w\"
//        -Ohz --require_prototypes)
//    Locale             =  Russian_RUS.1251
//    List file          =  
//        C:\Texas Instruments\Z-Stack
//        3.0.1\Projects\zstack\HomeAutomation\zigIt\CC2530DB\EndDeviceEB\List\zcl_samplesw.s51
//
///////////////////////////////////////////////////////////////////////////////

        NAME zcl_samplesw

        RTMODEL "__SystemLibrary", "CLib"
        RTMODEL "__calling_convention", "xdata_reentrant"
        RTMODEL "__code_model", "banked"
        RTMODEL "__core", "plain"
        RTMODEL "__data_model", "large"
        RTMODEL "__dptr_size", "16"
        RTMODEL "__extended_stack", "disabled"
        RTMODEL "__location_for_constants", "data"
        RTMODEL "__number_of_dptrs", "1"
        RTMODEL "__register_banks", "*"
        RTMODEL "__rt_version", "1"

        RSEG DOVERLAY:DATA:NOROOT(0)
        RSEG IOVERLAY:IDATA:NOROOT(0)
        RSEG ISTACK:IDATA:NOROOT(0)
        RSEG PSTACK:XDATA:NOROOT(0)
        RSEG XSTACK:XDATA:NOROOT(0)

        EXTERN ?V0
        EXTERN ?V1
        EXTERN ?V2
        EXTERN ?V3
        EXTERN ?ALLOC_XSTACK8
        EXTERN ?BANKED_ENTER_XDATA
        EXTERN ?BANKED_LEAVE_XDATA
        EXTERN ?BDISPATCH
        EXTERN ?BRET
        EXTERN ?DEALLOC_XSTACK8
        EXTERN ?PUSH_XSTACK8_X_FOUR
        EXTERN ?PUSH_XSTACK_I_ONE
        EXTERN ?PUSH_XSTACK_I_TWO
        EXTERN ?XSP
        EXTERN ?XSTACK_DISP0_8
        EXTERN __INIT_XDATA_I
        EXTERN __INIT_XDATA_Z

        FUNCTION `??zclZigIt_BasicResetCB::?relay`,0203H
        PUBLIC `??zclZigIt_Init::?relay`
        FUNCTION `??zclZigIt_Init::?relay`,0203H
        FUNCTION `??zclZigIt_ProcessCommissioningStatus::?relay`,0203H
        FUNCTION `??zclZigIt_ProcessInDiscCmdsRspCmd::?relay`,0203H
        FUNCTION `??zclZigIt_ProcessIncomingMsg::?relay`,0203H
        PUBLIC `??zclZigIt_Reporting::?relay`
        FUNCTION `??zclZigIt_Reporting::?relay`,0203H
        PUBLIC `??zclZigIt_UiActionToggleLight::?relay`
        FUNCTION `??zclZigIt_UiActionToggleLight::?relay`,0203H
        PUBLIC `??zclZigIt_UiUpdateLcd::?relay`
        FUNCTION `??zclZigIt_UiUpdateLcd::?relay`,0203H
        PUBLIC `??zclZigIt_event_loop::?relay`
        FUNCTION `??zclZigIt_event_loop::?relay`,0203H
        PUBLIC STATE_LIGHT
        PUBWEAK __Constant_1388
        PUBWEAK __Constant_2710
        PUBLIC zclZigItSeqNum
        FUNCTION zclZigIt_BasicResetCB,021603H
        ARGFRAME XSTACK, 0, STACK
        LOCFRAME ISTACK, 2, STACK
        LOCFRAME XSTACK, 5, STACK
        PUBLIC zclZigIt_DstAddr
        PUBLIC zclZigIt_Init
        FUNCTION zclZigIt_Init,021203H
        ARGFRAME XSTACK, 0, STACK
        LOCFRAME XSTACK, 13, STACK
        PUBLIC zclZigIt_NwkState
        PUBLIC zclZigIt_OnOffSwitchActions
        PUBLIC zclZigIt_OnOffSwitchType
        FUNCTION zclZigIt_ProcessCommissioningStatus,021603H
        ARGFRAME XSTACK, 0, STACK
        LOCFRAME ISTACK, 2, STACK
        LOCFRAME XSTACK, 4, STACK
        FUNCTION zclZigIt_ProcessInDiscCmdsRspCmd,0203H
        ARGFRAME XSTACK, 9, STACK
        ARGFRAME IOVERLAY, 0, STATIC
        ARGFRAME DOVERLAY, 0, STATIC
        LOCFRAME ISTACK, 2, STACK
        FUNCTION zclZigIt_ProcessIncomingMsg,021203H
        ARGFRAME XSTACK, 12, STACK
        ARGFRAME IOVERLAY, 0, STATIC
        ARGFRAME DOVERLAY, 0, STATIC
        LOCFRAME XSTACK, 9, STACK
        PUBLIC zclZigIt_Reporting
        FUNCTION zclZigIt_Reporting,0a1203H
        ARGFRAME XSTACK, 12, STACK
        ARGFRAME IOVERLAY, 0, STATIC
        ARGFRAME DOVERLAY, 0, STATIC
        LOCFRAME ISTACK, 1, STACK
        LOCFRAME XSTACK, 18, STACK
        PUBLIC zclZigIt_TaskID
        PUBLIC zclZigIt_UiActionToggleLight
        FUNCTION zclZigIt_UiActionToggleLight,0a1203H
        ARGFRAME XSTACK, 0, STACK
        LOCFRAME XSTACK, 21, STACK
        PUBLIC zclZigIt_UiUpdateLcd
        FUNCTION zclZigIt_UiUpdateLcd,0203H
        ARGFRAME XSTACK, 0, STACK
        LOCFRAME ISTACK, 2, STACK
        PUBLIC zclZigIt_event_loop
        FUNCTION zclZigIt_event_loop,0a1203H
        ARGFRAME XSTACK, 0, STACK
        LOCFRAME XSTACK, 16, STACK
        PUBLIC zclZigUPSeqNum
        
          CFI Names cfiNames0
          CFI StackFrame CFA_SP SP IDATA
          CFI StackFrame CFA_PSP16 PSP16 XDATA
          CFI StackFrame CFA_XSP16 XSP16 XDATA
          CFI StaticOverlayFrame CFA_IOVERLAY IOVERLAY
          CFI StaticOverlayFrame CFA_DOVERLAY DOVERLAY
          CFI Resource `PSW.CY`:1, `B.BR0`:1, `B.BR1`:1, `B.BR2`:1, `B.BR3`:1
          CFI Resource `B.BR4`:1, `B.BR5`:1, `B.BR6`:1, `B.BR7`:1, `VB.BR8`:1
          CFI Resource `VB.BR9`:1, `VB.BR10`:1, `VB.BR11`:1, `VB.BR12`:1
          CFI Resource `VB.BR13`:1, `VB.BR14`:1, `VB.BR15`:1, VB:8, B:8, A:8
          CFI Resource PSW:8, DPL0:8, DPH0:8, R0:8, R1:8, R2:8, R3:8, R4:8, R5:8
          CFI Resource R6:8, R7:8, V0:8, V1:8, V2:8, V3:8, V4:8, V5:8, V6:8, V7:8
          CFI Resource V8:8, V9:8, V10:8, V11:8, V12:8, V13:8, V14:8, V15:8, SP:8
          CFI Resource PSPH:8, PSPL:8, PSP16:16, XSPH:8, XSPL:8, XSP16:16
          CFI VirtualResource ?RET:24
          CFI Resource ?BRET_EXT:8
          CFI VirtualResource ?RET_HIGH:8, ?RET_LOW:8
          CFI ResourceParts PSP16 PSPH, PSPL
          CFI ResourceParts XSP16 XSPH, XSPL
          CFI ResourceParts ?RET ?BRET_EXT, ?RET_HIGH, ?RET_LOW
          CFI EndNames cfiNames0
        
          CFI Common cfiCommon0 Using cfiNames0
          CFI CodeAlign 1
          CFI DataAlign -1
          CFI ReturnAddress ?RET CODE
          CFI CFA_DOVERLAY Used
          CFI CFA_IOVERLAY Used
          CFI CFA_SP SP+-3
          CFI CFA_PSP16 PSP16+0
          CFI CFA_XSP16 XSP16+0
          CFI `PSW.CY` SameValue
          CFI `B.BR0` SameValue
          CFI `B.BR1` SameValue
          CFI `B.BR2` SameValue
          CFI `B.BR3` SameValue
          CFI `B.BR4` SameValue
          CFI `B.BR5` SameValue
          CFI `B.BR6` SameValue
          CFI `B.BR7` SameValue
          CFI `VB.BR8` SameValue
          CFI `VB.BR9` SameValue
          CFI `VB.BR10` SameValue
          CFI `VB.BR11` SameValue
          CFI `VB.BR12` SameValue
          CFI `VB.BR13` SameValue
          CFI `VB.BR14` SameValue
          CFI `VB.BR15` SameValue
          CFI VB SameValue
          CFI B Undefined
          CFI A Undefined
          CFI PSW SameValue
          CFI DPL0 SameValue
          CFI DPH0 SameValue
          CFI R0 Undefined
          CFI R1 Undefined
          CFI R2 Undefined
          CFI R3 Undefined
          CFI R4 Undefined
          CFI R5 Undefined
          CFI R6 SameValue
          CFI R7 SameValue
          CFI V0 SameValue
          CFI V1 SameValue
          CFI V2 SameValue
          CFI V3 SameValue
          CFI V4 SameValue
          CFI V5 SameValue
          CFI V6 SameValue
          CFI V7 SameValue
          CFI V8 SameValue
          CFI V9 SameValue
          CFI V10 SameValue
          CFI V11 SameValue
          CFI V12 SameValue
          CFI V13 SameValue
          CFI V14 SameValue
          CFI V15 SameValue
          CFI PSPH Undefined
          CFI PSPL Undefined
          CFI XSPH Undefined
          CFI XSPL Undefined
          CFI ?RET Concat
          CFI ?BRET_EXT Frame(CFA_SP, 3)
          CFI ?RET_HIGH Frame(CFA_SP, 2)
          CFI ?RET_LOW Frame(CFA_SP, 1)
          CFI EndCommon cfiCommon0
        
        
          CFI Common cfiCommon1 Using cfiNames0
          CFI CodeAlign 1
          CFI DataAlign -1
          CFI ReturnAddress ?RET CODE
          CFI CFA_DOVERLAY Used
          CFI CFA_IOVERLAY Used
          CFI CFA_SP SP+-2
          CFI CFA_PSP16 PSP16+0
          CFI CFA_XSP16 XSP16+0
          CFI `PSW.CY` SameValue
          CFI `B.BR0` SameValue
          CFI `B.BR1` SameValue
          CFI `B.BR2` SameValue
          CFI `B.BR3` SameValue
          CFI `B.BR4` SameValue
          CFI `B.BR5` SameValue
          CFI `B.BR6` SameValue
          CFI `B.BR7` SameValue
          CFI `VB.BR8` SameValue
          CFI `VB.BR9` SameValue
          CFI `VB.BR10` SameValue
          CFI `VB.BR11` SameValue
          CFI `VB.BR12` SameValue
          CFI `VB.BR13` SameValue
          CFI `VB.BR14` SameValue
          CFI `VB.BR15` SameValue
          CFI VB SameValue
          CFI B SameValue
          CFI A SameValue
          CFI PSW SameValue
          CFI DPL0 SameValue
          CFI DPH0 SameValue
          CFI R0 SameValue
          CFI R1 SameValue
          CFI R2 SameValue
          CFI R3 SameValue
          CFI R4 SameValue
          CFI R5 SameValue
          CFI R6 SameValue
          CFI R7 SameValue
          CFI V0 SameValue
          CFI V1 SameValue
          CFI V2 SameValue
          CFI V3 SameValue
          CFI V4 SameValue
          CFI V5 SameValue
          CFI V6 SameValue
          CFI V7 SameValue
          CFI V8 SameValue
          CFI V9 SameValue
          CFI V10 SameValue
          CFI V11 SameValue
          CFI V12 SameValue
          CFI V13 SameValue
          CFI V14 SameValue
          CFI V15 SameValue
          CFI PSPH Undefined
          CFI PSPL Undefined
          CFI XSPH Undefined
          CFI XSPL Undefined
          CFI ?RET Concat
          CFI ?BRET_EXT SameValue
          CFI ?RET_HIGH Frame(CFA_SP, 2)
          CFI ?RET_LOW Frame(CFA_SP, 1)
          CFI EndCommon cfiCommon1
        
NLME_LeaveReq       SYMBOL "NLME_LeaveReq"
`??NLME_LeaveReq::?relay` SYMBOL "?relay", NLME_LeaveReq
RegisterForKeys     SYMBOL "RegisterForKeys"
`??RegisterForKeys::?relay` SYMBOL "?relay", RegisterForKeys
ZDApp_LeaveReset    SYMBOL "ZDApp_LeaveReset"
`??ZDApp_LeaveReset::?relay` SYMBOL "?relay", ZDApp_LeaveReset
afRegister          SYMBOL "afRegister"
`??afRegister::?relay` SYMBOL "?relay", afRegister
bdb_RegisterCommissioningStatusCB SYMBOL "bdb_RegisterCommissioningStatusCB"
`??bdb_RegisterCommissioningStatusCB::?relay` SYMBOL "?relay", bdb_RegisterCommissioningStatusCB
bdb_RegisterSimpleDescriptor SYMBOL "bdb_RegisterSimpleDescriptor"
`??bdb_RegisterSimpleDescriptor::?relay` SYMBOL "?relay", bdb_RegisterSimpleDescriptor
bdb_StartCommissioning SYMBOL "bdb_StartCommissioning"
`??bdb_StartCommissioning::?relay` SYMBOL "?relay", bdb_StartCommissioning
bdb_ZedAttemptRecoverNwk SYMBOL "bdb_ZedAttemptRecoverNwk"
`??bdb_ZedAttemptRecoverNwk::?relay` SYMBOL "?relay", bdb_ZedAttemptRecoverNwk
bdb_getZCLFrameCounter SYMBOL "bdb_getZCLFrameCounter"
`??bdb_getZCLFrameCounter::?relay` SYMBOL "?relay", bdb_getZCLFrameCounter
osal_mem_alloc      SYMBOL "osal_mem_alloc"
`??osal_mem_alloc::?relay` SYMBOL "?relay", osal_mem_alloc
osal_mem_free       SYMBOL "osal_mem_free"
`??osal_mem_free::?relay` SYMBOL "?relay", osal_mem_free
osal_memset         SYMBOL "osal_memset"
`??osal_memset::?relay` SYMBOL "?relay", osal_memset
osal_msg_deallocate SYMBOL "osal_msg_deallocate"
`??osal_msg_deallocate::?relay` SYMBOL "?relay", osal_msg_deallocate
osal_msg_receive    SYMBOL "osal_msg_receive"
`??osal_msg_receive::?relay` SYMBOL "?relay", osal_msg_receive
osal_start_timerEx  SYMBOL "osal_start_timerEx"
`??osal_start_timerEx::?relay` SYMBOL "?relay", osal_start_timerEx
zclDiagnostic_InitStats SYMBOL "zclDiagnostic_InitStats"
`??zclDiagnostic_InitStats::?relay` SYMBOL "?relay", zclDiagnostic_InitStats
`?<Name zclDiagnostic_ReadWr 32>` SYMBOL "zclDiagnostic_ReadWriteAttrCB"
`??zclDiagnostic_ReadWriteAttrCB::?relay` SYMBOL "?relay", `?<Name zclDiagnostic_ReadWr 32>`
zclGeneral_RegisterCmdCallbacks SYMBOL "zclGeneral_RegisterCmdCallbacks"
`??zclGeneral_RegisterCmdCallbacks::?relay` SYMBOL "?relay", zclGeneral_RegisterCmdCallbacks
zclZigIt_ResetAttributesToDefaultValues SYMBOL "zclZigIt_ResetAttributesToDefaultValues"
`??zclZigIt_ResetAttributesToDefaultValues::?rel` SYMBOL "?relay", zclZigIt_ResetAttributesToDefaultValues
zcl_SendCommand     SYMBOL "zcl_SendCommand"
`??zcl_SendCommand::?relay` SYMBOL "?relay", zcl_SendCommand
zcl_SendReportCmd   SYMBOL "zcl_SendReportCmd"
`??zcl_SendReportCmd::?relay` SYMBOL "?relay", zcl_SendReportCmd
zcl_registerAttrList SYMBOL "zcl_registerAttrList"
`??zcl_registerAttrList::?relay` SYMBOL "?relay", zcl_registerAttrList
zcl_registerForMsg  SYMBOL "zcl_registerForMsg"
`??zcl_registerForMsg::?relay` SYMBOL "?relay", zcl_registerForMsg
zcl_registerReadWriteCB SYMBOL "zcl_registerReadWriteCB"
`??zcl_registerReadWriteCB::?relay` SYMBOL "?relay", zcl_registerReadWriteCB
zgWriteStartupOptions SYMBOL "zgWriteStartupOptions"
`??zgWriteStartupOptions::?relay` SYMBOL "?relay", zgWriteStartupOptions
zclZigIt_Init       SYMBOL "zclZigIt_Init"
`??zclZigIt_Init::?relay` SYMBOL "?relay", zclZigIt_Init
zclZigIt_Reporting  SYMBOL "zclZigIt_Reporting"
`??zclZigIt_Reporting::?relay` SYMBOL "?relay", zclZigIt_Reporting
zclZigIt_UiActionToggleLight SYMBOL "zclZigIt_UiActionToggleLight"
`??zclZigIt_UiActionToggleLight::?relay` SYMBOL "?relay", zclZigIt_UiActionToggleLight
zclZigIt_UiUpdateLcd SYMBOL "zclZigIt_UiUpdateLcd"
`??zclZigIt_UiUpdateLcd::?relay` SYMBOL "?relay", zclZigIt_UiUpdateLcd
zclZigIt_event_loop SYMBOL "zclZigIt_event_loop"
`??zclZigIt_event_loop::?relay` SYMBOL "?relay", zclZigIt_event_loop

        EXTERN `??NLME_LeaveReq::?relay`
        FUNCTION `??NLME_LeaveReq::?relay`,00H
        EXTERN `??RegisterForKeys::?relay`
        FUNCTION `??RegisterForKeys::?relay`,00H
        EXTERN `??ZDApp_LeaveReset::?relay`
        FUNCTION `??ZDApp_LeaveReset::?relay`,00H
        EXTERN `??afRegister::?relay`
        FUNCTION `??afRegister::?relay`,00H
        EXTERN `??bdb_RegisterCommissioningStatusCB::?relay`
        FUNCTION `??bdb_RegisterCommissioningStatusCB::?relay`,00H
        EXTERN `??bdb_RegisterSimpleDescriptor::?relay`
        FUNCTION `??bdb_RegisterSimpleDescriptor::?relay`,00H
        EXTERN `??bdb_StartCommissioning::?relay`
        FUNCTION `??bdb_StartCommissioning::?relay`,00H
        EXTERN `??bdb_ZedAttemptRecoverNwk::?relay`
        FUNCTION `??bdb_ZedAttemptRecoverNwk::?relay`,00H
        EXTERN `??bdb_getZCLFrameCounter::?relay`
        FUNCTION `??bdb_getZCLFrameCounter::?relay`,00H
        EXTERN `??osal_mem_alloc::?relay`
        FUNCTION `??osal_mem_alloc::?relay`,00H
        EXTERN `??osal_mem_free::?relay`
        FUNCTION `??osal_mem_free::?relay`,00H
        EXTERN `??osal_memset::?relay`
        FUNCTION `??osal_memset::?relay`,00H
        EXTERN `??osal_msg_deallocate::?relay`
        FUNCTION `??osal_msg_deallocate::?relay`,00H
        EXTERN `??osal_msg_receive::?relay`
        FUNCTION `??osal_msg_receive::?relay`,00H
        EXTERN `??osal_start_timerEx::?relay`
        FUNCTION `??osal_start_timerEx::?relay`,00H
        EXTERN `??zclDiagnostic_InitStats::?relay`
        FUNCTION `??zclDiagnostic_InitStats::?relay`,00H
        EXTERN `??zclDiagnostic_ReadWriteAttrCB::?relay`
        FUNCTION `??zclDiagnostic_ReadWriteAttrCB::?relay`,00H
        EXTERN `??zclGeneral_RegisterCmdCallbacks::?relay`
        FUNCTION `??zclGeneral_RegisterCmdCallbacks::?relay`,00H
        EXTERN `??zclZigIt_ResetAttributesToDefaultValues::?rel`
        FUNCTION `??zclZigIt_ResetAttributesToDefaultValues::?rel`,00H
        EXTERN `??zcl_SendCommand::?relay`
        FUNCTION `??zcl_SendCommand::?relay`,00H
        EXTERN `??zcl_SendReportCmd::?relay`
        FUNCTION `??zcl_SendReportCmd::?relay`,00H
        EXTERN `??zcl_registerAttrList::?relay`
        FUNCTION `??zcl_registerAttrList::?relay`,00H
        EXTERN `??zcl_registerForMsg::?relay`
        FUNCTION `??zcl_registerForMsg::?relay`,00H
        EXTERN `??zcl_registerReadWriteCB::?relay`
        FUNCTION `??zcl_registerReadWriteCB::?relay`,00H
        EXTERN `??zgWriteStartupOptions::?relay`
        FUNCTION `??zgWriteStartupOptions::?relay`,00H
        EXTERN NLME_LeaveReq
        FUNCTION NLME_LeaveReq,0202H
        ARGFRAME ISTACK, 2, STACK
        ARGFRAME PSTACK, 0, STACK
        ARGFRAME XSTACK, 5, STACK
        ARGFRAME IOVERLAY, 0, STATIC
        ARGFRAME DOVERLAY, 0, STATIC
        EXTERN RegisterForKeys
        FUNCTION RegisterForKeys,0202H
        ARGFRAME ISTACK, 0, STACK
        ARGFRAME PSTACK, 0, STACK
        ARGFRAME XSTACK, 9, STACK
        ARGFRAME IOVERLAY, 0, STATIC
        ARGFRAME DOVERLAY, 0, STATIC
        EXTERN ZDApp_LeaveReset
        FUNCTION ZDApp_LeaveReset,0202H
        ARGFRAME ISTACK, 2, STACK
        ARGFRAME PSTACK, 0, STACK
        ARGFRAME XSTACK, 5, STACK
        ARGFRAME IOVERLAY, 0, STATIC
        ARGFRAME DOVERLAY, 0, STATIC
        EXTERN afRegister
        FUNCTION afRegister,0202H
        ARGFRAME ISTACK, 0, STACK
        ARGFRAME PSTACK, 0, STACK
        ARGFRAME XSTACK, 9, STACK
        ARGFRAME IOVERLAY, 0, STATIC
        ARGFRAME DOVERLAY, 0, STATIC
        EXTERN bdb_RegisterCommissioningStatusCB
        FUNCTION bdb_RegisterCommissioningStatusCB,0202H
        ARGFRAME ISTACK, 0, STACK
        ARGFRAME PSTACK, 0, STACK
        ARGFRAME XSTACK, 9, STACK
        ARGFRAME IOVERLAY, 0, STATIC
        ARGFRAME DOVERLAY, 0, STATIC
        EXTERN bdb_RegisterSimpleDescriptor
        FUNCTION bdb_RegisterSimpleDescriptor,0202H
        ARGFRAME ISTACK, 0, STACK
        ARGFRAME PSTACK, 0, STACK
        ARGFRAME XSTACK, 9, STACK
        ARGFRAME IOVERLAY, 0, STATIC
        ARGFRAME DOVERLAY, 0, STATIC
        EXTERN bdb_StartCommissioning
        FUNCTION bdb_StartCommissioning,0202H
        ARGFRAME ISTACK, 2, STACK
        ARGFRAME PSTACK, 0, STACK
        ARGFRAME XSTACK, 9, STACK
        ARGFRAME IOVERLAY, 0, STATIC
        ARGFRAME DOVERLAY, 0, STATIC
        EXTERN bdb_ZedAttemptRecoverNwk
        FUNCTION bdb_ZedAttemptRecoverNwk,0202H
        ARGFRAME ISTACK, 0, STACK
        ARGFRAME PSTACK, 0, STACK
        ARGFRAME XSTACK, 12, STACK
        ARGFRAME IOVERLAY, 0, STATIC
        ARGFRAME DOVERLAY, 0, STATIC
        EXTERN bdb_getZCLFrameCounter
        FUNCTION bdb_getZCLFrameCounter,0202H
        ARGFRAME ISTACK, 0, STACK
        ARGFRAME PSTACK, 0, STACK
        ARGFRAME XSTACK, 10, STACK
        ARGFRAME IOVERLAY, 0, STATIC
        ARGFRAME DOVERLAY, 0, STATIC
        EXTERN osal_mem_alloc
        FUNCTION osal_mem_alloc,0202H
        ARGFRAME ISTACK, 0, STACK
        ARGFRAME PSTACK, 0, STACK
        ARGFRAME XSTACK, 13, STACK
        ARGFRAME IOVERLAY, 0, STATIC
        ARGFRAME DOVERLAY, 0, STATIC
        EXTERN osal_mem_free
        FUNCTION osal_mem_free,0202H
        ARGFRAME ISTACK, 0, STACK
        ARGFRAME PSTACK, 0, STACK
        ARGFRAME XSTACK, 13, STACK
        ARGFRAME IOVERLAY, 0, STATIC
        ARGFRAME DOVERLAY, 0, STATIC
        EXTERN osal_memset
        FUNCTION osal_memset,0202H
        ARGFRAME ISTACK, 2, STACK
        ARGFRAME PSTACK, 0, STACK
        ARGFRAME XSTACK, 5, STACK
        ARGFRAME IOVERLAY, 0, STATIC
        ARGFRAME DOVERLAY, 0, STATIC
        EXTERN osal_msg_deallocate
        FUNCTION osal_msg_deallocate,0202H
        ARGFRAME ISTACK, 0, STACK
        ARGFRAME PSTACK, 0, STACK
        ARGFRAME XSTACK, 12, STACK
        ARGFRAME IOVERLAY, 0, STATIC
        ARGFRAME DOVERLAY, 0, STATIC
        EXTERN osal_msg_receive
        FUNCTION osal_msg_receive,0202H
        ARGFRAME ISTACK, 0, STACK
        ARGFRAME PSTACK, 0, STACK
        ARGFRAME XSTACK, 12, STACK
        ARGFRAME IOVERLAY, 0, STATIC
        ARGFRAME DOVERLAY, 0, STATIC
        EXTERN osal_start_timerEx
        FUNCTION osal_start_timerEx,0202H
        ARGFRAME ISTACK, 2, STACK
        ARGFRAME PSTACK, 0, STACK
        ARGFRAME XSTACK, 16, STACK
        ARGFRAME IOVERLAY, 0, STATIC
        ARGFRAME DOVERLAY, 0, STATIC
        EXTERN zclDiagnostic_InitStats
        FUNCTION zclDiagnostic_InitStats,0202H
        ARGFRAME ISTACK, 0, STACK
        ARGFRAME PSTACK, 0, STACK
        ARGFRAME XSTACK, 9, STACK
        ARGFRAME IOVERLAY, 0, STATIC
        ARGFRAME DOVERLAY, 0, STATIC
        EXTERN zclGeneral_RegisterCmdCallbacks
        FUNCTION zclGeneral_RegisterCmdCallbacks,0202H
        ARGFRAME ISTACK, 0, STACK
        ARGFRAME PSTACK, 0, STACK
        ARGFRAME XSTACK, 9, STACK
        ARGFRAME IOVERLAY, 0, STATIC
        ARGFRAME DOVERLAY, 0, STATIC
        EXTERN zclZigIt_Attrs
        EXTERN zclZigIt_NumAttributes
        EXTERN zclZigIt_ResetAttributesToDefaultValues
        FUNCTION zclZigIt_ResetAttributesToDefaultValues,0202H
        ARGFRAME ISTACK, 2, STACK
        ARGFRAME PSTACK, 0, STACK
        ARGFRAME XSTACK, 9, STACK
        ARGFRAME IOVERLAY, 0, STATIC
        ARGFRAME DOVERLAY, 0, STATIC
        EXTERN zclZigIt_SimpleDesc
        EXTERN zcl_SendCommand
        FUNCTION zcl_SendCommand,0202H
        ARGFRAME ISTACK, 0, STACK
        ARGFRAME PSTACK, 0, STACK
        ARGFRAME XSTACK, 21, STACK
        ARGFRAME IOVERLAY, 0, STATIC
        ARGFRAME DOVERLAY, 0, STATIC
        EXTERN zcl_SendReportCmd
        FUNCTION zcl_SendReportCmd,0202H
        ARGFRAME ISTACK, 0, STACK
        ARGFRAME PSTACK, 0, STACK
        ARGFRAME XSTACK, 18, STACK
        ARGFRAME IOVERLAY, 0, STATIC
        ARGFRAME DOVERLAY, 0, STATIC
        EXTERN zcl_registerAttrList
        FUNCTION zcl_registerAttrList,0202H
        ARGFRAME ISTACK, 0, STACK
        ARGFRAME PSTACK, 0, STACK
        ARGFRAME XSTACK, 9, STACK
        ARGFRAME IOVERLAY, 0, STATIC
        ARGFRAME DOVERLAY, 0, STATIC
        EXTERN zcl_registerForMsg
        FUNCTION zcl_registerForMsg,0202H
        ARGFRAME ISTACK, 0, STACK
        ARGFRAME PSTACK, 0, STACK
        ARGFRAME XSTACK, 9, STACK
        ARGFRAME IOVERLAY, 0, STATIC
        ARGFRAME DOVERLAY, 0, STATIC
        EXTERN zcl_registerReadWriteCB
        FUNCTION zcl_registerReadWriteCB,0202H
        ARGFRAME ISTACK, 0, STACK
        ARGFRAME PSTACK, 0, STACK
        ARGFRAME XSTACK, 9, STACK
        ARGFRAME IOVERLAY, 0, STATIC
        ARGFRAME DOVERLAY, 0, STATIC
        EXTERN zdpExternalStateTaskID
        EXTERN zgWriteStartupOptions
        FUNCTION zgWriteStartupOptions,0202H
        ARGFRAME ISTACK, 2, STACK
        ARGFRAME PSTACK, 0, STACK
        ARGFRAME XSTACK, 5, STACK
        ARGFRAME IOVERLAY, 0, STATIC
        ARGFRAME DOVERLAY, 0, STATIC

// C:\Texas Instruments\Z-Stack 3.0.1\Projects\zstack\HomeAutomation\zigIt\Source\zcl_samplesw.c
//    1 /**************************************************************************************************
//    2   Filename:       zcl_samplesw.c
//    3   Revised:        $Date: 2015-08-19 17:11:00 -0700 (Wed, 19 Aug 2015) $
//    4   Revision:       $Revision: 44460 $
//    5 
//    6   Description:    Zigbee Cluster Library - sample switch application.
//    7 
//    8 
//    9   Copyright 2006-2013 Texas Instruments Incorporated. All rights reserved.
//   10 
//   11   IMPORTANT: Your use of this Software is limited to those specific rights
//   12   granted under the terms of a software license agreement between the user
//   13   who downloaded the software, his/her employer (which must be your employer)
//   14   and Texas Instruments Incorporated (the "License").  You may not use this
//   15   Software unless you agree to abide by the terms of the License. The License
//   16   limits your use, and you acknowledge, that the Software may not be modified,
//   17   copied or distributed unless embedded on a Texas Instruments microcontroller
//   18   or used solely and exclusively in conjunction with a Texas Instruments radio
//   19   frequency transceiver, which is integrated into your product.  Other than for
//   20   the foregoing purpose, you may not use, reproduce, copy, prepare derivative
//   21   works of, modify, distribute, perform, display or sell this Software and/or
//   22   its documentation for any purpose.
//   23 
//   24   YOU FURTHER ACKNOWLEDGE AND AGREE THAT THE SOFTWARE AND DOCUMENTATION ARE
//   25   PROVIDED “AS IS” WITHOUT WARRANTY OF ANY KIND, EITHER EXPRESS OR IMPLIED,
//   26   INCLUDING WITHOUT LIMITATION, ANY WARRANTY OF MERCHANTABILITY, TITLE,
//   27   NON-INFRINGEMENT AND FITNESS FOR A PARTICULAR PURPOSE. IN NO EVENT SHALL
//   28   TEXAS INSTRUMENTS OR ITS LICENSORS BE LIABLE OR OBLIGATED UNDER CONTRACT,
//   29   NEGLIGENCE, STRICT LIABILITY, CONTRIBUTION, BREACH OF WARRANTY, OR OTHER
//   30   LEGAL EQUITABLE THEORY ANY DIRECT OR INDIRECT DAMAGES OR EXPENSES
//   31   INCLUDING BUT NOT LIMITED TO ANY INCIDENTAL, SPECIAL, INDIRECT, PUNITIVE
//   32   OR CONSEQUENTIAL DAMAGES, LOST PROFITS OR LOST DATA, COST OF PROCUREMENT
//   33   OF SUBSTITUTE GOODS, TECHNOLOGY, SERVICES, OR ANY CLAIMS BY THIRD PARTIES
//   34   (INCLUDING BUT NOT LIMITED TO ANY DEFENSE THEREOF), OR OTHER SIMILAR COSTS.
//   35 
//   36   Should you have any questions regarding your right to use this Software,
//   37   contact Texas Instruments Incorporated at www.TI.com.
//   38 **************************************************************************************************/
//   39 
//   40 /*********************************************************************
//   41   This application implements a ZigBee On/Off Switch, based on Z-Stack 3.0.
//   42 
//   43   This application is based on the common sample-application user interface. Please see the main
//   44   comment in zcl_sampleapp_ui.c. The rest of this comment describes only the content specific for
//   45   this sample applicetion.
//   46   
//   47   Application-specific UI peripherals being used:
//   48 
//   49   - none (LED1 is currently unused by this application).
//   50 
//   51   Application-specific menu system:
//   52 
//   53     <TOGGLE LIGHT> Send an On, Off or Toggle command targeting appropriate devices from the binding table.
//   54       Pressing / releasing [OK] will have the following functionality, depending on the value of the 
//   55       zclZigIt_OnOffSwitchActions attribute:
//   56       - OnOffSwitchActions == 0: pressing [OK] will send ON command, releasing it will send OFF command;
//   57       - OnOffSwitchActions == 1: pressing [OK] will send OFF command, releasing it will send ON command;
//   58       - OnOffSwitchActions == 2: pressing [OK] will send TOGGLE command, releasing it will not send any command.
//   59 
//   60 *********************************************************************/
//   61 
//   62 #if ! defined ZCL_ON_OFF
//   63 #error ZCL_ON_OFF must be defined for this project.
//   64 #endif
//   65 
//   66 /*********************************************************************
//   67  * INCLUDES
//   68  */
//   69 #include "zcl.h"
//   70 #include "ZComDef.h"
//   71 #include "OSAL.h"
//   72 #include "AF.h"
//   73 #include "ZDApp.h"
//   74 #include "ZDObject.h"
//   75 #include "ZDProfile.h"
//   76 #include "MT_SYS.h"
//   77 
//   78 #include "zcl.h"
//   79 #include "zcl_general.h"
//   80 #include "zcl_ha.h"
//   81 #include "zcl_samplesw.h"
//   82 #include "zcl_diagnostic.h"
//   83 
//   84 #include "onboard.h"
//   85 
//   86 /* HAL */
//   87 #include "hal_lcd.h"
//   88 #include "hal_led.h"
//   89 #include "hal_key.h"
//   90 
//   91 #if defined (OTA_CLIENT) && (OTA_CLIENT == TRUE)
//   92 #include "zcl_ota.h"
//   93 #include "hal_ota.h"
//   94 #endif
//   95 
//   96 #include "bdb.h"
//   97 #include "bdb_interface.h"
//   98 
//   99 #include "zcl_sampleapps_ui.h"
//  100 
//  101 /*********************************************************************
//  102  * MACROS
//  103  */
//  104 #define UI_STATE_TOGGLE_LIGHT 1 //UI_STATE_BACK_FROM_APP_MENU is item #0, so app item numbers should start from 1
//  105 
//  106 #define APP_TITLE "TI Sample Switch"
//  107 
//  108 /*********************************************************************
//  109  * TYPEDEFS
//  110  */
//  111 
//  112 /*********************************************************************
//  113  * GLOBAL VARIABLES
//  114  */

        RSEG XDATA_Z:XDATA:NOROOT(0)
        DATA8
//  115 byte zclZigIt_TaskID;
zclZigIt_TaskID:
        DS 1
        REQUIRE __INIT_XDATA_Z
//  116 

        RSEG XDATA_Z:XDATA:NOROOT(0)
        DATA8
//  117 uint8 zclZigItSeqNum;
zclZigItSeqNum:
        DS 1
        REQUIRE __INIT_XDATA_Z
//  118 

        RSEG XDATA_I:XDATA:NOROOT(0)
//  119 uint8 zclZigIt_OnOffSwitchType = ON_OFF_SWITCH_TYPE_MOMENTARY;
zclZigIt_OnOffSwitchType:
        DATA8
        DS 1
        REQUIRE `?<Initializer for zclZigIt_OnOffSwitchType>`
        REQUIRE __INIT_XDATA_I
//  120 

        RSEG XDATA_Z:XDATA:NOROOT(0)
        DATA8
//  121 uint8 zclZigIt_OnOffSwitchActions;
zclZigIt_OnOffSwitchActions:
        DS 1
        REQUIRE __INIT_XDATA_Z

        RSEG XDATA_Z:XDATA:NOROOT(0)
        DATA16
//  122 uint16 zclZigUPSeqNum=0;
zclZigUPSeqNum:
        DS 2
        REQUIRE __INIT_XDATA_Z

        RSEG XDATA_Z:XDATA:NOROOT(0)
        DATA8
//  123 volatile uint8 STATE_LIGHT=0;
STATE_LIGHT:
        DS 1
        REQUIRE __INIT_XDATA_Z
//  124 
//  125 #define REPORT_REASON_TIMER     0
//  126 
//  127 /*********************************************************************
//  128  * GLOBAL FUNCTIONS
//  129  */
//  130 
//  131 /*********************************************************************
//  132  * LOCAL VARIABLES
//  133  */

        RSEG XDATA_Z:XDATA:NOROOT(0)
        DATA8
//  134 afAddrType_t zclZigIt_DstAddr;
zclZigIt_DstAddr:
        DS 12
        REQUIRE __INIT_XDATA_Z
//  135 
//  136 // Endpoint to allow SYS_APP_MSGs

        RSEG XDATA_I:XDATA:NOROOT(0)
//  137 static endPointDesc_t sampleSw_TestEp =
sampleSw_TestEp:
        DATA8
        DS 7
        REQUIRE `?<Initializer for sampleSw_TestEp>`
        REQUIRE __INIT_XDATA_I
//  138 {
//  139   SAMPLESW_ENDPOINT,                  // endpoint
//  140   0,
//  141   &zclZigIt_TaskID,
//  142   (SimpleDescriptionFormat_t *)NULL,  // No Simple description for this test endpoint
//  143   (afNetworkLatencyReq_t)0            // No Network Latency req
//  144 };
//  145 
//  146 //static uint8 aProcessCmd[] = { 1, 0, 0, 0 }; // used for reset command, { length + cmd0 + cmd1 + data }
//  147 

        RSEG XDATA_I:XDATA:NOROOT(0)
//  148 devStates_t zclZigIt_NwkState = DEV_INIT;
zclZigIt_NwkState:
        DATA8
        DS 1
        REQUIRE `?<Initializer for zclZigIt_NwkState>`
        REQUIRE __INIT_XDATA_I
//  149 
//  150 #if defined (OTA_CLIENT) && (OTA_CLIENT == TRUE)
//  151 #define DEVICE_POLL_RATE                 8000   // Poll rate for end device
//  152 #endif
//  153 
//  154 #define ZIGIT_REPORTING_EVT 0x1000
//  155 /*********************************************************************
//  156  * LOCAL FUNCTIONS
//  157  */
//  158 static void zclZigIt_HandleKeys( byte shift, byte keys );
//  159 static void zclZigIt_BasicResetCB( void );
//  160 
//  161 static void zclZigIt_ProcessCommissioningStatus(bdbCommissioningModeMsg_t *bdbCommissioningModeMsg);
//  162 #define ZCLSAMPLELIGHT_BINDINGLIST       2
//  163 static cId_t bindingInClusters[ZCLSAMPLELIGHT_BINDINGLIST] =
//  164 {
//  165   ZCL_CLUSTER_ID_GEN_ON_OFF,
//  166   ZCL_CLUSTER_ID_GEN_LEVEL_CONTROL
//  167 };
//  168 
//  169 //// Test Endpoint to allow SYS_APP_MSGs
//  170 //static endPointDesc_t sampleLight_TestEp =
//  171 //{
//  172 //  20,                                 // Test endpoint
//  173 //  &zclZigIt_TaskID,
//  174 //  (SimpleDescriptionFormat_t *)NULL,  // No Simple description for this test endpoint
//  175 //  (afNetworkLatencyReq_t)0            // No Network Latency req
//  176 //};
//  177 
//  178 // Functions to process ZCL Foundation incoming Command/Response messages
//  179 static void zclZigIt_ProcessIncomingMsg( zclIncomingMsg_t *msg );
//  180 #ifdef ZCL_READ
//  181 static uint8 zclZigIt_ProcessInReadRspCmd( zclIncomingMsg_t *pInMsg );
//  182 #endif
//  183 #ifdef ZCL_WRITE
//  184 static uint8 zclZigIt_ProcessInWriteRspCmd( zclIncomingMsg_t *pInMsg );
//  185 #endif
//  186 static uint8 zclZigIt_ProcessInDefaultRspCmd( zclIncomingMsg_t *pInMsg );
//  187 #ifdef ZCL_DISCOVER
//  188 static uint8 zclZigIt_ProcessInDiscCmdsRspCmd( zclIncomingMsg_t *pInMsg );
//  189 static uint8 zclZigIt_ProcessInDiscAttrsRspCmd( zclIncomingMsg_t *pInMsg );
//  190 static uint8 zclZigIt_ProcessInDiscAttrsExtRspCmd( zclIncomingMsg_t *pInMsg );
//  191 #endif
//  192 
//  193 #if defined (OTA_CLIENT) && (OTA_CLIENT == TRUE)
//  194 static void zclZigIt_ProcessOTAMsgs( zclOTA_CallbackMsg_t* pMsg );
//  195 #endif
//  196 
//  197 void zclZigIt_UiActionToggleLight(uint16 keys);
//  198 void zclZigIt_UiUpdateLcd(uint8 uiCurrentState, char * line[3]);
//  199   
//  200 /*********************************************************************
//  201  * REFERENCED EXTERNALS
//  202  */
//  203 extern int16 zdpExternalStateTaskID;
//  204 
//  205 /*********************************************************************
//  206  * ZCL General Profile Callback table
//  207  */

        RSEG XDATA_I:XDATA:NOROOT(0)
//  208 static zclGeneral_AppCallbacks_t zclZigIt_CmdCallbacks =
zclZigIt_CmdCallbacks:
        DATA8
        DS 18
        REQUIRE `?<Initializer for zclZigIt_CmdCallbacks>`
        REQUIRE __INIT_XDATA_I
//  209 {
//  210   zclZigIt_BasicResetCB,               // Basic Cluster Reset command
//  211   NULL,                                   // Identify Trigger Effect command
//  212   NULL,                                   // On/Off cluster commands, zclSampleLight_OnOffCB
//  213   NULL,                                   // On/Off cluster enhanced command Off with Effect
//  214   NULL,                                   // On/Off cluster enhanced command On with Recall Global Scene
//  215   NULL,                                   // On/Off cluster enhanced command On with Timed Off
//  216 #ifdef ZCL_LEVEL_CTRL
//  217   NULL,                                   // Level Control Move to Level command
//  218   NULL,                                   // Level Control Move command
//  219   NULL,                                   // Level Control Step command
//  220   NULL,                                   // Level Control Stop command
//  221 #endif
//  222 #ifdef ZCL_GROUPS
//  223   NULL,                                   // Group Response commands
//  224 #endif
//  225 #ifdef ZCL_SCENES
//  226   NULL,                                   // Scene Store Request command
//  227   NULL,                                   // Scene Recall Request command
//  228   NULL,                                   // Scene Response command
//  229 #endif
//  230 #ifdef ZCL_ALARMS
//  231   NULL,                                   // Alarm (Response) commands
//  232 #endif
//  233 #ifdef SE_UK_EXT
//  234   NULL,                                   // Get Event Log command
//  235   NULL,                                   // Publish Event Log command
//  236 #endif
//  237   NULL,                                   // RSSI Location command
//  238   NULL                                    // RSSI Location Response command
//  239 };
//  240 
//  241 
//  242 /*********************************************************************
//  243  * @fn          zclZigIt_Init
//  244  *
//  245  * @brief       Initialization function for the zclGeneral layer.
//  246  *
//  247  * @param       none
//  248  *
//  249  * @return      none
//  250  */

        RSEG BANKED_CODE:HUGECODE:NOROOT(0)
//  251 void zclZigIt_Init( byte task_id )
zclZigIt_Init:
          CFI Block cfiBlock0 Using cfiCommon0
          CFI Function zclZigIt_Init
        CODE
//  252 {
        FUNCALL zclZigIt_Init, bdb_RegisterSimpleDescriptor
        LOCFRAME ISTACK, 0, STACK
        LOCFRAME PSTACK, 0, STACK
        LOCFRAME XSTACK, 9, STACK
        LOCFRAME IOVERLAY, 0, STATIC
        LOCFRAME DOVERLAY, 0, STATIC
        ARGFRAME ISTACK, 0, STACK
        ARGFRAME PSTACK, 0, STACK
        ARGFRAME XSTACK, 9, STACK
        ARGFRAME IOVERLAY, 0, STATIC
        ARGFRAME DOVERLAY, 0, STATIC
        FUNCALL zclZigIt_Init, zclGeneral_RegisterCmdCallbacks
        LOCFRAME ISTACK, 0, STACK
        LOCFRAME PSTACK, 0, STACK
        LOCFRAME XSTACK, 9, STACK
        LOCFRAME IOVERLAY, 0, STATIC
        LOCFRAME DOVERLAY, 0, STATIC
        ARGFRAME ISTACK, 0, STACK
        ARGFRAME PSTACK, 0, STACK
        ARGFRAME XSTACK, 9, STACK
        ARGFRAME IOVERLAY, 0, STATIC
        ARGFRAME DOVERLAY, 0, STATIC
        FUNCALL zclZigIt_Init, zclZigIt_ResetAttributesToDefaultValues
        LOCFRAME ISTACK, 0, STACK
        LOCFRAME PSTACK, 0, STACK
        LOCFRAME XSTACK, 9, STACK
        LOCFRAME IOVERLAY, 0, STATIC
        LOCFRAME DOVERLAY, 0, STATIC
        ARGFRAME ISTACK, 0, STACK
        ARGFRAME PSTACK, 0, STACK
        ARGFRAME XSTACK, 9, STACK
        ARGFRAME IOVERLAY, 0, STATIC
        ARGFRAME DOVERLAY, 0, STATIC
        FUNCALL zclZigIt_Init, zcl_registerAttrList
        LOCFRAME ISTACK, 0, STACK
        LOCFRAME PSTACK, 0, STACK
        LOCFRAME XSTACK, 9, STACK
        LOCFRAME IOVERLAY, 0, STATIC
        LOCFRAME DOVERLAY, 0, STATIC
        ARGFRAME ISTACK, 0, STACK
        ARGFRAME PSTACK, 0, STACK
        ARGFRAME XSTACK, 9, STACK
        ARGFRAME IOVERLAY, 0, STATIC
        ARGFRAME DOVERLAY, 0, STATIC
        FUNCALL zclZigIt_Init, zcl_registerForMsg
        LOCFRAME ISTACK, 0, STACK
        LOCFRAME PSTACK, 0, STACK
        LOCFRAME XSTACK, 9, STACK
        LOCFRAME IOVERLAY, 0, STATIC
        LOCFRAME DOVERLAY, 0, STATIC
        ARGFRAME ISTACK, 0, STACK
        ARGFRAME PSTACK, 0, STACK
        ARGFRAME XSTACK, 9, STACK
        ARGFRAME IOVERLAY, 0, STATIC
        ARGFRAME DOVERLAY, 0, STATIC
        FUNCALL zclZigIt_Init, RegisterForKeys
        LOCFRAME ISTACK, 0, STACK
        LOCFRAME PSTACK, 0, STACK
        LOCFRAME XSTACK, 9, STACK
        LOCFRAME IOVERLAY, 0, STATIC
        LOCFRAME DOVERLAY, 0, STATIC
        ARGFRAME ISTACK, 0, STACK
        ARGFRAME PSTACK, 0, STACK
        ARGFRAME XSTACK, 9, STACK
        ARGFRAME IOVERLAY, 0, STATIC
        ARGFRAME DOVERLAY, 0, STATIC
        FUNCALL zclZigIt_Init, bdb_RegisterCommissioningStatusCB
        LOCFRAME ISTACK, 0, STACK
        LOCFRAME PSTACK, 0, STACK
        LOCFRAME XSTACK, 9, STACK
        LOCFRAME IOVERLAY, 0, STATIC
        LOCFRAME DOVERLAY, 0, STATIC
        ARGFRAME ISTACK, 0, STACK
        ARGFRAME PSTACK, 0, STACK
        ARGFRAME XSTACK, 9, STACK
        ARGFRAME IOVERLAY, 0, STATIC
        ARGFRAME DOVERLAY, 0, STATIC
        FUNCALL zclZigIt_Init, afRegister
        LOCFRAME ISTACK, 0, STACK
        LOCFRAME PSTACK, 0, STACK
        LOCFRAME XSTACK, 9, STACK
        LOCFRAME IOVERLAY, 0, STATIC
        LOCFRAME DOVERLAY, 0, STATIC
        ARGFRAME ISTACK, 0, STACK
        ARGFRAME PSTACK, 0, STACK
        ARGFRAME XSTACK, 9, STACK
        ARGFRAME IOVERLAY, 0, STATIC
        ARGFRAME DOVERLAY, 0, STATIC
        FUNCALL zclZigIt_Init, zcl_registerReadWriteCB
        LOCFRAME ISTACK, 0, STACK
        LOCFRAME PSTACK, 0, STACK
        LOCFRAME XSTACK, 9, STACK
        LOCFRAME IOVERLAY, 0, STATIC
        LOCFRAME DOVERLAY, 0, STATIC
        ARGFRAME ISTACK, 0, STACK
        ARGFRAME PSTACK, 0, STACK
        ARGFRAME XSTACK, 9, STACK
        ARGFRAME IOVERLAY, 0, STATIC
        ARGFRAME DOVERLAY, 0, STATIC
        FUNCALL zclZigIt_Init, zclDiagnostic_InitStats
        LOCFRAME ISTACK, 0, STACK
        LOCFRAME PSTACK, 0, STACK
        LOCFRAME XSTACK, 9, STACK
        LOCFRAME IOVERLAY, 0, STATIC
        LOCFRAME DOVERLAY, 0, STATIC
        ARGFRAME ISTACK, 0, STACK
        ARGFRAME PSTACK, 0, STACK
        ARGFRAME XSTACK, 9, STACK
        ARGFRAME IOVERLAY, 0, STATIC
        ARGFRAME DOVERLAY, 0, STATIC
        FUNCALL zclZigIt_Init, osal_start_timerEx
        LOCFRAME ISTACK, 0, STACK
        LOCFRAME PSTACK, 0, STACK
        LOCFRAME XSTACK, 13, STACK
        LOCFRAME IOVERLAY, 0, STATIC
        LOCFRAME DOVERLAY, 0, STATIC
        ARGFRAME ISTACK, 0, STACK
        ARGFRAME PSTACK, 0, STACK
        ARGFRAME XSTACK, 13, STACK
        ARGFRAME IOVERLAY, 0, STATIC
        ARGFRAME DOVERLAY, 0, STATIC
        FUNCALL zclZigIt_Init, bdb_StartCommissioning
        LOCFRAME ISTACK, 0, STACK
        LOCFRAME PSTACK, 0, STACK
        LOCFRAME XSTACK, 9, STACK
        LOCFRAME IOVERLAY, 0, STATIC
        LOCFRAME DOVERLAY, 0, STATIC
        ARGFRAME ISTACK, 0, STACK
        ARGFRAME PSTACK, 0, STACK
        ARGFRAME XSTACK, 9, STACK
        ARGFRAME IOVERLAY, 0, STATIC
        ARGFRAME DOVERLAY, 0, STATIC
        MOV       A,#-0x9
        LCALL     ?BANKED_ENTER_XDATA
          CFI DPH0 load(1, XDATA, add(CFA_XSP16, literal(-1)))
          CFI DPL0 load(1, XDATA, add(CFA_XSP16, literal(-2)))
          CFI ?BRET_EXT load(1, XDATA, add(CFA_XSP16, literal(-3)))
          CFI ?RET_HIGH load(1, XDATA, add(CFA_XSP16, literal(-4)))
          CFI ?RET_LOW load(1, XDATA, add(CFA_XSP16, literal(-5)))
          CFI R7 load(1, XDATA, add(CFA_XSP16, literal(-6)))
          CFI V0 load(1, XDATA, add(CFA_XSP16, literal(-7)))
          CFI VB load(1, XDATA, add(CFA_XSP16, literal(-8)))
          CFI R6 load(1, XDATA, add(CFA_XSP16, literal(-9)))
          CFI CFA_SP SP+0
          CFI CFA_XSP16 add(XSP16, 9)
        ; Saved register size: 9
        ; Auto size: 0
        MOV       A,R1
//  253   zclZigIt_TaskID = task_id;
        MOV       DPTR,#zclZigIt_TaskID
        MOVX      @DPTR,A
//  254 
//  255   // Set destination address to indirect
//  256   zclZigIt_DstAddr.addrMode = (afAddrMode_t)AddrNotPresent;
        MOV       DPTR,#zclZigIt_DstAddr + 8
        CLR       A
        MOVX      @DPTR,A
//  257   zclZigIt_DstAddr.endPoint = 0;
        INC       DPTR
        MOVX      @DPTR,A
//  258   zclZigIt_DstAddr.addr.shortAddr = 0xFFFF;
        MOV       DPTR,#zclZigIt_DstAddr
        MOV       A,#-0x1
        MOVX      @DPTR,A
        INC       DPTR
        MOVX      @DPTR,A
//  259 
//  260   // Register the Simple Descriptor for this application
//  261   bdb_RegisterSimpleDescriptor( &zclZigIt_SimpleDesc );
        ; Setup parameters for call to function bdb_RegisterSimpleDescriptor
        MOV       R2,#zclZigIt_SimpleDesc & 0xff
        MOV       R3,#(zclZigIt_SimpleDesc >> 8) & 0xff
        LCALL     `??bdb_RegisterSimpleDescriptor::?relay`; Banked call to: bdb_RegisterSimpleDescriptor
//  262 
//  263   // Register the ZCL General Cluster Library callback functions
//  264   zclGeneral_RegisterCmdCallbacks( SAMPLESW_ENDPOINT, &zclZigIt_CmdCallbacks );
        ; Setup parameters for call to function zclGeneral_RegisterCmdCallbacks
        MOV       R2,#zclZigIt_CmdCallbacks & 0xff
        MOV       R3,#(zclZigIt_CmdCallbacks >> 8) & 0xff
        MOV       R1,#0x8
        LCALL     `??zclGeneral_RegisterCmdCallbacks::?relay`; Banked call to: zclGeneral_RegisterCmdCallbacks
//  265 
//  266   zclZigIt_ResetAttributesToDefaultValues();
        ; Setup parameters for call to function zclZigIt_ResetAttributesToDefaultValues
        LCALL     `??zclZigIt_ResetAttributesToDefaultValues::?rel`; Banked call to: zclZigIt_ResetAttributesToDefaultValues
//  267   
//  268   // Register the application's attribute list
//  269   zcl_registerAttrList( SAMPLESW_ENDPOINT, zclZigIt_NumAttributes, zclZigIt_Attrs );
        ; Setup parameters for call to function zcl_registerAttrList
        MOV       R4,#zclZigIt_Attrs & 0xff
        MOV       R5,#(zclZigIt_Attrs >> 8) & 0xff
        MOV       DPTR,#zclZigIt_NumAttributes
        CLR       A
        MOVC      A,@A+DPTR
        MOV       R2,A
        MOV       R1,#0x8
        LCALL     `??zcl_registerAttrList::?relay`; Banked call to: zcl_registerAttrList
//  270 
//  271   // Register the Application to receive the unprocessed Foundation command/response messages
//  272   zcl_registerForMsg( zclZigIt_TaskID );
        ; Setup parameters for call to function zcl_registerForMsg
        MOV       DPTR,#zclZigIt_TaskID
        MOVX      A,@DPTR
        MOV       R1,A
        LCALL     `??zcl_registerForMsg::?relay`; Banked call to: zcl_registerForMsg
//  273   
//  274   // Register for all key events - This app will handle all key events
//  275   RegisterForKeys( zclZigIt_TaskID );
        ; Setup parameters for call to function RegisterForKeys
        MOV       DPTR,#zclZigIt_TaskID
        MOVX      A,@DPTR
        MOV       R1,A
        LCALL     `??RegisterForKeys::?relay`; Banked call to: RegisterForKeys
//  276   
//  277   bdb_RegisterCommissioningStatusCB( zclZigIt_ProcessCommissioningStatus );
        ; Setup parameters for call to function bdb_RegisterCommissioningStatusCB
        MOV       R2,#`??zclZigIt_ProcessCommissioningStatus::?relay` & 0xff
        MOV       R3,#(`??zclZigIt_ProcessCommissioningStatus::?relay` >> 8) & 0xff
        LCALL     `??bdb_RegisterCommissioningStatusCB::?relay`; Banked call to: bdb_RegisterCommissioningStatusCB
//  278 
//  279   // Register for a test endpoint
//  280   afRegister( &sampleSw_TestEp );
        ; Setup parameters for call to function afRegister
        MOV       R2,#sampleSw_TestEp & 0xff
        MOV       R3,#(sampleSw_TestEp >> 8) & 0xff
        LCALL     `??afRegister::?relay`; Banked call to: afRegister
//  281   
//  282 #ifdef ZCL_DIAGNOSTIC
//  283   // Register the application's callback function to read/write attribute data.
//  284   // This is only required when the attribute data format is unknown to ZCL.
//  285   zcl_registerReadWriteCB( SAMPLESW_ENDPOINT, zclDiagnostic_ReadWriteAttrCB, NULL );
        ; Setup parameters for call to function zcl_registerReadWriteCB
        MOV       R4,#0x0
        MOV       R5,#0x0
        MOV       R2,#`??zclDiagnostic_ReadWriteAttrCB::?relay` & 0xff
        MOV       R3,#(`??zclDiagnostic_ReadWriteAttrCB::?relay` >> 8) & 0xff
        MOV       R1,#0x8
        LCALL     `??zcl_registerReadWriteCB::?relay`; Banked call to: zcl_registerReadWriteCB
//  286 
//  287   if ( zclDiagnostic_InitStats() == ZSuccess )
        ; Setup parameters for call to function zclDiagnostic_InitStats
        LCALL     `??zclDiagnostic_InitStats::?relay`; Banked call to: zclDiagnostic_InitStats
//  288   {
//  289     // Here the user could start the timer to save Diagnostics to NV
//  290   }
//  291 #endif
//  292 
//  293 #if defined (OTA_CLIENT) && (OTA_CLIENT == TRUE)
//  294   // Register for callback events from the ZCL OTA
//  295   zclOTA_Register(zclZigIt_TaskID);
//  296 #endif
//  297 
//  298   zdpExternalStateTaskID = zclZigIt_TaskID;
        MOV       DPTR,#zclZigIt_TaskID
        MOVX      A,@DPTR
        MOV       DPTR,#zdpExternalStateTaskID
        MOVX      @DPTR,A
        INC       DPTR
        CLR       A
        MOVX      @DPTR,A
//  299 
//  300   //UI_Init(zclZigIt_TaskID, SAMPLEAPP_LCD_AUTO_UPDATE_EVT, SAMPLEAPP_KEY_AUTO_REPEAT_EVT, &zclZigIt_IdentifyTime, APP_TITLE, &zclZigIt_UiUpdateLcd, zclZigIt_UiStatesMain);
//  301 
//  302   //UI_UpdateLcd();
//  303   osal_start_timerEx(zclZigIt_TaskID,ZIGIT_REPORTING_EVT,5000);
        ; Setup parameters for call to function osal_start_timerEx
        MOV       DPTR,#__Constant_1388
        LCALL     ?PUSH_XSTACK8_X_FOUR
          CFI CFA_XSP16 add(XSP16, 13)
        LCALL     ?Subroutine4 & 0xFFFF
??CrossCallReturnLabel_13:
        LCALL     ?DEALLOC_XSTACK8
          CFI CFA_XSP16 add(XSP16, 9)
//  304   
//  305   //bdb_StartCommissioning(BDB_COMMISSIONING_REJOIN_EXISTING_NETWORK_ON_STARTUP);
//  306   bdb_StartCommissioning(BDB_COMMISSIONING_MODE_NWK_STEERING);
        ; Setup parameters for call to function bdb_StartCommissioning
        MOV       R1,#0x2
        LCALL     `??bdb_StartCommissioning::?relay`; Banked call to: bdb_StartCommissioning
//  307     //bdb_StartCommissioning(BDB_COMMISSIONING_MODE_NWK_STEERING);
//  308     // Initiate an End Device Bind Request, this bind request will
//  309     // only use a cluster list that is important to binding.
//  310 
//  311 //    zAddrType_t dstAddr;
//  312 //    dstAddr.addrMode = afAddr16Bit;
//  313 //    dstAddr.addr.shortAddr = 0;   // Coordinator makes the match
//  314 //    ZDP_EndDeviceBindReq( &dstAddr, NLME_GetShortAddr(),
//  315 //                           SAMPLESW_ENDPOINT,
//  316 //                           ZCL_HA_PROFILE_ID,
//  317 //                           ZCLSAMPLELIGHT_BINDINGLIST, bindingInClusters,
//  318 //                           0, NULL,   // No Outgoing clusters to bind
//  319 //                           TRUE );
//  320 
//  321 }
          CFI EndBlock cfiBlock0
        REQUIRE ?Subroutine0
        ; // Fall through to label ?Subroutine0

        RSEG BANKED_CODE:HUGECODE:NOROOT(0)
?Subroutine0:
          CFI Block cfiBlock1 Using cfiCommon0
          CFI NoFunction
          CFI CFA_SP SP+0
          CFI CFA_XSP16 add(XSP16, 9)
          CFI VB load(1, XDATA, add(CFA_XSP16, literal(-8)))
          CFI DPL0 load(1, XDATA, add(CFA_XSP16, literal(-2)))
          CFI DPH0 load(1, XDATA, add(CFA_XSP16, literal(-1)))
          CFI R6 load(1, XDATA, add(CFA_XSP16, literal(-9)))
          CFI R7 load(1, XDATA, add(CFA_XSP16, literal(-6)))
          CFI V0 load(1, XDATA, add(CFA_XSP16, literal(-7)))
          CFI ?BRET_EXT load(1, XDATA, add(CFA_XSP16, literal(-3)))
          CFI ?RET_HIGH load(1, XDATA, add(CFA_XSP16, literal(-4)))
          CFI ?RET_LOW load(1, XDATA, add(CFA_XSP16, literal(-5)))
        MOV       R7,#0x1
        LJMP      ?BANKED_LEAVE_XDATA
          CFI EndBlock cfiBlock1

        RSEG BANKED_CODE:HUGECODE:NOROOT(0)
?Subroutine4:
          CFI Block cfiCond2 Using cfiCommon0
          CFI Function zclZigIt_Init
          CFI Conditional ??CrossCallReturnLabel_13
          CFI R6 load(1, XDATA, add(CFA_XSP16, literal(-9)))
          CFI VB load(1, XDATA, add(CFA_XSP16, literal(-8)))
          CFI V0 load(1, XDATA, add(CFA_XSP16, literal(-7)))
          CFI R7 load(1, XDATA, add(CFA_XSP16, literal(-6)))
          CFI ?RET_LOW load(1, XDATA, add(CFA_XSP16, literal(-5)))
          CFI ?RET_HIGH load(1, XDATA, add(CFA_XSP16, literal(-4)))
          CFI ?BRET_EXT load(1, XDATA, add(CFA_XSP16, literal(-3)))
          CFI DPL0 load(1, XDATA, add(CFA_XSP16, literal(-2)))
          CFI DPH0 load(1, XDATA, add(CFA_XSP16, literal(-1)))
          CFI CFA_SP SP+-2
          CFI CFA_XSP16 add(XSP16, 13)
          CFI Block cfiCond3 Using cfiCommon0
          CFI (cfiCond3) Function zclZigIt_event_loop
          CFI (cfiCond3) Conditional ??CrossCallReturnLabel_14
          CFI (cfiCond3) R6 load(1, XDATA, add(CFA_XSP16, literal(-12)))
          CFI (cfiCond3) VB load(1, XDATA, add(CFA_XSP16, literal(-11)))
          CFI (cfiCond3) V0 load(1, XDATA, add(CFA_XSP16, literal(-10)))
          CFI (cfiCond3) V1 load(1, XDATA, add(CFA_XSP16, literal(-9)))
          CFI (cfiCond3) V2 load(1, XDATA, add(CFA_XSP16, literal(-8)))
          CFI (cfiCond3) V3 load(1, XDATA, add(CFA_XSP16, literal(-7)))
          CFI (cfiCond3) R7 load(1, XDATA, add(CFA_XSP16, literal(-6)))
          CFI (cfiCond3) ?RET_LOW load(1, XDATA, add(CFA_XSP16, literal(-5)))
          CFI (cfiCond3) ?RET_HIGH load(1, XDATA, add(CFA_XSP16, literal(-4)))
          CFI (cfiCond3) ?BRET_EXT load(1, XDATA, add(CFA_XSP16, literal(-3)))
          CFI (cfiCond3) DPL0 load(1, XDATA, add(CFA_XSP16, literal(-2)))
          CFI (cfiCond3) DPH0 load(1, XDATA, add(CFA_XSP16, literal(-1)))
          CFI (cfiCond3) CFA_SP SP+-2
          CFI (cfiCond3) CFA_XSP16 add(XSP16, 16)
          CFI Block cfiPicker4 Using cfiCommon1
          CFI (cfiPicker4) NoFunction
          CFI (cfiPicker4) Picker
        MOV       R2,#0x0
        MOV       R3,#0x10
          CFI EndBlock cfiCond2
          CFI EndBlock cfiCond3
          CFI EndBlock cfiPicker4
        REQUIRE ??Subroutine11_0
        ; // Fall through to label ??Subroutine11_0

        RSEG BANKED_CODE:HUGECODE:NOROOT(0)
??Subroutine11_0:
          CFI Block cfiCond5 Using cfiCommon0
          CFI Function zclZigIt_ProcessCommissioningStatus
          CFI Conditional ??CrossCallReturnLabel_15
          CFI DPL0 Frame(CFA_SP, 4)
          CFI DPH0 Frame(CFA_SP, 5)
          CFI CFA_SP SP+-7
          CFI CFA_XSP16 add(XSP16, 4)
          CFI Block cfiCond6 Using cfiCommon0
          CFI (cfiCond6) Function zclZigIt_Init
          CFI (cfiCond6) Conditional ??CrossCallReturnLabel_13
          CFI (cfiCond6) R6 load(1, XDATA, add(CFA_XSP16, literal(-9)))
          CFI (cfiCond6) VB load(1, XDATA, add(CFA_XSP16, literal(-8)))
          CFI (cfiCond6) V0 load(1, XDATA, add(CFA_XSP16, literal(-7)))
          CFI (cfiCond6) R7 load(1, XDATA, add(CFA_XSP16, literal(-6)))
          CFI (cfiCond6) ?RET_LOW load(1, XDATA, add(CFA_XSP16, literal(-5)))
          CFI (cfiCond6) ?RET_HIGH load(1, XDATA, add(CFA_XSP16, literal(-4)))
          CFI (cfiCond6) ?BRET_EXT load(1, XDATA, add(CFA_XSP16, literal(-3)))
          CFI (cfiCond6) DPL0 load(1, XDATA, add(CFA_XSP16, literal(-2)))
          CFI (cfiCond6) DPH0 load(1, XDATA, add(CFA_XSP16, literal(-1)))
          CFI (cfiCond6) CFA_SP SP+-2
          CFI (cfiCond6) CFA_XSP16 add(XSP16, 13)
          CFI Block cfiCond7 Using cfiCommon0
          CFI (cfiCond7) Function zclZigIt_event_loop
          CFI (cfiCond7) Conditional ??CrossCallReturnLabel_14
          CFI (cfiCond7) R6 load(1, XDATA, add(CFA_XSP16, literal(-12)))
          CFI (cfiCond7) VB load(1, XDATA, add(CFA_XSP16, literal(-11)))
          CFI (cfiCond7) V0 load(1, XDATA, add(CFA_XSP16, literal(-10)))
          CFI (cfiCond7) V1 load(1, XDATA, add(CFA_XSP16, literal(-9)))
          CFI (cfiCond7) V2 load(1, XDATA, add(CFA_XSP16, literal(-8)))
          CFI (cfiCond7) V3 load(1, XDATA, add(CFA_XSP16, literal(-7)))
          CFI (cfiCond7) R7 load(1, XDATA, add(CFA_XSP16, literal(-6)))
          CFI (cfiCond7) ?RET_LOW load(1, XDATA, add(CFA_XSP16, literal(-5)))
          CFI (cfiCond7) ?RET_HIGH load(1, XDATA, add(CFA_XSP16, literal(-4)))
          CFI (cfiCond7) ?BRET_EXT load(1, XDATA, add(CFA_XSP16, literal(-3)))
          CFI (cfiCond7) DPL0 load(1, XDATA, add(CFA_XSP16, literal(-2)))
          CFI (cfiCond7) DPH0 load(1, XDATA, add(CFA_XSP16, literal(-1)))
          CFI (cfiCond7) CFA_SP SP+-2
          CFI (cfiCond7) CFA_XSP16 add(XSP16, 16)
          CFI Block cfiPicker8 Using cfiCommon1
          CFI (cfiPicker8) NoFunction
          CFI (cfiPicker8) Picker
        MOV       DPTR,#zclZigIt_TaskID
        MOVX      A,@DPTR
        MOV       R1,A
        LCALL     `??osal_start_timerEx::?relay`; Banked call to: osal_start_timerEx
        MOV       A,#0x4
        RET
          CFI EndBlock cfiCond5
          CFI EndBlock cfiCond6
          CFI EndBlock cfiCond7
          CFI EndBlock cfiPicker8
//  322 

        RSEG BANKED_CODE:HUGECODE:NOROOT(0)
//  323 void zclZigIt_Reporting(uint16 REPORT_REASON)
zclZigIt_Reporting:
          CFI Block cfiBlock9 Using cfiCommon0
          CFI Function zclZigIt_Reporting
        CODE
//  324 {
        FUNCALL zclZigIt_Reporting, osal_mem_alloc
        LOCFRAME ISTACK, 0, STACK
        LOCFRAME PSTACK, 0, STACK
        LOCFRAME XSTACK, 13, STACK
        LOCFRAME IOVERLAY, 0, STATIC
        LOCFRAME DOVERLAY, 0, STATIC
        ARGFRAME ISTACK, 0, STACK
        ARGFRAME PSTACK, 0, STACK
        ARGFRAME XSTACK, 13, STACK
        ARGFRAME IOVERLAY, 0, STATIC
        ARGFRAME DOVERLAY, 0, STATIC
        FUNCALL zclZigIt_Reporting, zcl_SendReportCmd
        LOCFRAME ISTACK, 0, STACK
        LOCFRAME PSTACK, 0, STACK
        LOCFRAME XSTACK, 18, STACK
        LOCFRAME IOVERLAY, 0, STATIC
        LOCFRAME DOVERLAY, 0, STATIC
        ARGFRAME ISTACK, 0, STACK
        ARGFRAME PSTACK, 0, STACK
        ARGFRAME XSTACK, 18, STACK
        ARGFRAME IOVERLAY, 0, STATIC
        ARGFRAME DOVERLAY, 0, STATIC
        FUNCALL zclZigIt_Reporting, osal_mem_free
        LOCFRAME ISTACK, 0, STACK
        LOCFRAME PSTACK, 0, STACK
        LOCFRAME XSTACK, 13, STACK
        LOCFRAME IOVERLAY, 0, STATIC
        LOCFRAME DOVERLAY, 0, STATIC
        ARGFRAME ISTACK, 0, STACK
        ARGFRAME PSTACK, 0, STACK
        ARGFRAME XSTACK, 13, STACK
        ARGFRAME IOVERLAY, 0, STATIC
        ARGFRAME DOVERLAY, 0, STATIC
        REQUIRE ?V0
        REQUIRE ?V1
        REQUIRE ?V2
        REQUIRE ?V3
        MOV       A,#-0xc
        LCALL     ?BANKED_ENTER_XDATA
          CFI DPH0 load(1, XDATA, add(CFA_XSP16, literal(-1)))
          CFI DPL0 load(1, XDATA, add(CFA_XSP16, literal(-2)))
          CFI ?BRET_EXT load(1, XDATA, add(CFA_XSP16, literal(-3)))
          CFI ?RET_HIGH load(1, XDATA, add(CFA_XSP16, literal(-4)))
          CFI ?RET_LOW load(1, XDATA, add(CFA_XSP16, literal(-5)))
          CFI R7 load(1, XDATA, add(CFA_XSP16, literal(-6)))
          CFI V3 load(1, XDATA, add(CFA_XSP16, literal(-7)))
          CFI V2 load(1, XDATA, add(CFA_XSP16, literal(-8)))
          CFI V1 load(1, XDATA, add(CFA_XSP16, literal(-9)))
          CFI V0 load(1, XDATA, add(CFA_XSP16, literal(-10)))
          CFI VB load(1, XDATA, add(CFA_XSP16, literal(-11)))
          CFI R6 load(1, XDATA, add(CFA_XSP16, literal(-12)))
          CFI CFA_SP SP+0
          CFI CFA_XSP16 add(XSP16, 12)
        ; Saved register size: 12
        ; Auto size: 1
        MOV       A,#-0x1
        LCALL     ?ALLOC_XSTACK8
          CFI CFA_XSP16 add(XSP16, 13)
//  325   const uint8 NUM_ATTRIBUTES = 2;
//  326   
//  327   // send report
//  328   zclReportCmd_t *pReportCmd;
//  329   
//  330   pReportCmd = osal_mem_alloc( sizeof(zclReportCmd_t) + ( NUM_ATTRIBUTES * sizeof(zclReport_t) ) );
        ; Setup parameters for call to function osal_mem_alloc
        MOV       R2,#0xb
        MOV       R3,#0x0
        LCALL     `??osal_mem_alloc::?relay`; Banked call to: osal_mem_alloc
        MOV       ?V0,R2
        MOV       ?V1,R3
//  331   if ( pReportCmd != NULL )
        MOV       A,R2
        ORL       A,R3
        JNZ       $+5
        LJMP      ??zclZigIt_Reporting_0 & 0xFFFF
//  332   {
//  333     if (STATE_LIGHT) {
        MOV       DPTR,#STATE_LIGHT
        MOVX      A,@DPTR
        JZ        ??zclZigIt_Reporting_1
//  334       STATE_LIGHT=false;
        CLR       A
        SJMP      ??zclZigIt_Reporting_2
//  335     }else {
//  336       STATE_LIGHT=true;
??zclZigIt_Reporting_1:
        MOV       A,#0x1
??zclZigIt_Reporting_2:
        MOVX      @DPTR,A
//  337     }
//  338     uint8 TEST = STATE_LIGHT;
        MOVX      A,@DPTR
        MOV       DPL,?XSP + 0
        MOV       DPH,?XSP + 1
        MOVX      @DPTR,A
//  339     
//  340     pReportCmd->numAttr = NUM_ATTRIBUTES;
        MOV       DPL,R2
        MOV       DPH,R3
        MOV       A,#0x2
        MOVX      @DPTR,A
//  341     
//  342     pReportCmd->attrList[0].attrID = ATTRID_ON_OFF;
        INC       DPTR
        CLR       A
        MOVX      @DPTR,A
        INC       DPTR
        LCALL     ?Subroutine10 & 0xFFFF
//  343     pReportCmd->attrList[0].dataType = ZCL_DATATYPE_BOOLEAN;
??CrossCallReturnLabel_11:
        MOV       A,#0x10
        LCALL     ?Subroutine7 & 0xFFFF
//  344     pReportCmd->attrList[0].attrData = (void *)(&TEST);
??CrossCallReturnLabel_4:
        MOV       A,?XSP + 0
        MOVX      @DPTR,A
        INC       DPTR
        MOV       A,?XSP + 1
        LCALL     ?Subroutine7 & 0xFFFF
//  345 
//  346     pReportCmd->attrList[1].attrID = ATTRID_ON_OFF;
??CrossCallReturnLabel_5:
        INC       DPTR
        INC       DPTR
        CLR       A
        MOVX      @DPTR,A
        INC       DPTR
        LCALL     ?Subroutine3 & 0xFFFF
//  347     pReportCmd->attrList[1].dataType = ZCL_DATATYPE_BOOLEAN;
??CrossCallReturnLabel_0:
        MOV       A,#0x10
        LCALL     ?Subroutine3 & 0xFFFF
//  348     pReportCmd->attrList[1].attrData = (void *)(&TEST);
??CrossCallReturnLabel_1:
        INC       DPTR
        MOV       A,?XSP + 0
        MOVX      @DPTR,A
        INC       DPTR
        MOV       A,?XSP + 1
        MOVX      @DPTR,A
//  349     
//  350     
//  351     zclZigIt_DstAddr.addrMode = (afAddrMode_t)Addr16Bit;
        MOV       DPTR,#zclZigIt_DstAddr + 8
        MOV       A,#0x2
        MOVX      @DPTR,A
//  352     zclZigIt_DstAddr.addr.shortAddr = 0;
        MOV       DPTR,#zclZigIt_DstAddr
        CLR       A
        MOVX      @DPTR,A
        INC       DPTR
        MOVX      @DPTR,A
//  353     zclZigIt_DstAddr.endPoint=1;
        MOV       DPTR,#zclZigIt_DstAddr + 9
        INC       A
        MOVX      @DPTR,A
//  354     
//  355     zcl_SendReportCmd( SAMPLESW_ENDPOINT, &zclZigIt_DstAddr, ZCL_CLUSTER_ID_GEN_ON_OFF, pReportCmd, ZCL_FRAME_CLIENT_SERVER_DIR, false, zclZigUPSeqNum++ );
        MOV       DPTR,#zclZigUPSeqNum
        MOVX      A,@DPTR
        MOV       R0,A
        INC       DPTR
        MOVX      A,@DPTR
        MOV       R1,A
        MOV       A,R0
        ADD       A,#0x1
        MOV       R2,A
        CLR       A
        ADDC      A,R1
        MOV       R3,A
        MOV       DPTR,#zclZigUPSeqNum
        MOV       A,R2
        MOVX      @DPTR,A
        INC       DPTR
        MOV       A,R3
        MOVX      @DPTR,A
        ; Setup parameters for call to function zcl_SendReportCmd
        MOV       A,R0
        MOV       ?V2,A
        MOV       R0,#?V2
        LCALL     ?PUSH_XSTACK_I_ONE
          CFI CFA_XSP16 add(XSP16, 14)
        MOV       ?V2,#0x0
        MOV       R0,#?V2
        LCALL     ?PUSH_XSTACK_I_ONE
          CFI CFA_XSP16 add(XSP16, 15)
        MOV       R0,#?V2
        LCALL     ?PUSH_XSTACK_I_ONE
          CFI CFA_XSP16 add(XSP16, 16)
        MOV       R0,#?V0
        LCALL     ?PUSH_XSTACK_I_TWO
          CFI CFA_XSP16 add(XSP16, 18)
        MOV       R4,#0x6
        MOV       R5,#0x0
        MOV       R2,#zclZigIt_DstAddr & 0xff
        MOV       R3,#(zclZigIt_DstAddr >> 8) & 0xff
        MOV       R1,#0x8
        LCALL     `??zcl_SendReportCmd::?relay`; Banked call to: zcl_SendReportCmd
        MOV       A,#0x5
        LCALL     ?DEALLOC_XSTACK8
          CFI CFA_XSP16 add(XSP16, 13)
//  356   }
//  357   
//  358   osal_mem_free( pReportCmd );
??zclZigIt_Reporting_0:
        ; Setup parameters for call to function osal_mem_free
        MOV       R2,?V0
        MOV       R3,?V1
        LCALL     `??osal_mem_free::?relay`; Banked call to: osal_mem_free
//  359 }
        MOV       A,#0x1
        LCALL     ?DEALLOC_XSTACK8
          CFI EndBlock cfiBlock9
        REQUIRE ?Subroutine1
        ; // Fall through to label ?Subroutine1

        RSEG BANKED_CODE:HUGECODE:NOROOT(0)
?Subroutine1:
          CFI Block cfiBlock10 Using cfiCommon0
          CFI NoFunction
          CFI CFA_SP SP+0
          CFI CFA_XSP16 add(XSP16, 12)
          CFI VB load(1, XDATA, add(CFA_XSP16, literal(-11)))
          CFI DPL0 load(1, XDATA, add(CFA_XSP16, literal(-2)))
          CFI DPH0 load(1, XDATA, add(CFA_XSP16, literal(-1)))
          CFI R6 load(1, XDATA, add(CFA_XSP16, literal(-12)))
          CFI R7 load(1, XDATA, add(CFA_XSP16, literal(-6)))
          CFI V0 load(1, XDATA, add(CFA_XSP16, literal(-10)))
          CFI V1 load(1, XDATA, add(CFA_XSP16, literal(-9)))
          CFI V2 load(1, XDATA, add(CFA_XSP16, literal(-8)))
          CFI V3 load(1, XDATA, add(CFA_XSP16, literal(-7)))
          CFI ?BRET_EXT load(1, XDATA, add(CFA_XSP16, literal(-3)))
          CFI ?RET_HIGH load(1, XDATA, add(CFA_XSP16, literal(-4)))
          CFI ?RET_LOW load(1, XDATA, add(CFA_XSP16, literal(-5)))
        MOV       R7,#0x4
        LJMP      ?BANKED_LEAVE_XDATA
          CFI EndBlock cfiBlock10

        RSEG BANKED_CODE:HUGECODE:NOROOT(0)
?Subroutine7:
          CFI Block cfiCond11 Using cfiCommon0
          CFI Function zclZigIt_Reporting
          CFI Conditional ??CrossCallReturnLabel_4
          CFI R6 load(1, XDATA, add(CFA_XSP16, literal(-12)))
          CFI VB load(1, XDATA, add(CFA_XSP16, literal(-11)))
          CFI V0 load(1, XDATA, add(CFA_XSP16, literal(-10)))
          CFI V1 load(1, XDATA, add(CFA_XSP16, literal(-9)))
          CFI V2 load(1, XDATA, add(CFA_XSP16, literal(-8)))
          CFI V3 load(1, XDATA, add(CFA_XSP16, literal(-7)))
          CFI R7 load(1, XDATA, add(CFA_XSP16, literal(-6)))
          CFI ?RET_LOW load(1, XDATA, add(CFA_XSP16, literal(-5)))
          CFI ?RET_HIGH load(1, XDATA, add(CFA_XSP16, literal(-4)))
          CFI ?BRET_EXT load(1, XDATA, add(CFA_XSP16, literal(-3)))
          CFI DPL0 load(1, XDATA, add(CFA_XSP16, literal(-2)))
          CFI DPH0 load(1, XDATA, add(CFA_XSP16, literal(-1)))
          CFI CFA_SP SP+-2
          CFI CFA_XSP16 add(XSP16, 13)
          CFI Block cfiCond12 Using cfiCommon0
          CFI (cfiCond12) Function zclZigIt_Reporting
          CFI (cfiCond12) Conditional ??CrossCallReturnLabel_5
          CFI (cfiCond12) R6 load(1, XDATA, add(CFA_XSP16, literal(-12)))
          CFI (cfiCond12) VB load(1, XDATA, add(CFA_XSP16, literal(-11)))
          CFI (cfiCond12) V0 load(1, XDATA, add(CFA_XSP16, literal(-10)))
          CFI (cfiCond12) V1 load(1, XDATA, add(CFA_XSP16, literal(-9)))
          CFI (cfiCond12) V2 load(1, XDATA, add(CFA_XSP16, literal(-8)))
          CFI (cfiCond12) V3 load(1, XDATA, add(CFA_XSP16, literal(-7)))
          CFI (cfiCond12) R7 load(1, XDATA, add(CFA_XSP16, literal(-6)))
          CFI (cfiCond12) ?RET_LOW load(1, XDATA, add(CFA_XSP16, literal(-5)))
          CFI (cfiCond12) ?RET_HIGH load(1, XDATA, add(CFA_XSP16, literal(-4)))
          CFI (cfiCond12) ?BRET_EXT load(1, XDATA, add(CFA_XSP16, literal(-3)))
          CFI (cfiCond12) DPL0 load(1, XDATA, add(CFA_XSP16, literal(-2)))
          CFI (cfiCond12) DPH0 load(1, XDATA, add(CFA_XSP16, literal(-1)))
          CFI (cfiCond12) CFA_SP SP+-2
          CFI (cfiCond12) CFA_XSP16 add(XSP16, 13)
          CFI Block cfiPicker13 Using cfiCommon1
          CFI (cfiPicker13) NoFunction
          CFI (cfiPicker13) Picker
        LCALL     ?Subroutine9 & 0xFFFF
??CrossCallReturnLabel_9:
        RET
          CFI EndBlock cfiCond11
          CFI EndBlock cfiCond12
          CFI EndBlock cfiPicker13

        RSEG BANKED_CODE:HUGECODE:NOROOT(0)
?Subroutine9:
          CFI Block cfiCond14 Using cfiCommon0
          CFI Function zclZigIt_Reporting
          CFI Conditional ??CrossCallReturnLabel_9, ??CrossCallReturnLabel_4
          CFI R6 load(1, XDATA, add(CFA_XSP16, literal(-12)))
          CFI VB load(1, XDATA, add(CFA_XSP16, literal(-11)))
          CFI V0 load(1, XDATA, add(CFA_XSP16, literal(-10)))
          CFI V1 load(1, XDATA, add(CFA_XSP16, literal(-9)))
          CFI V2 load(1, XDATA, add(CFA_XSP16, literal(-8)))
          CFI V3 load(1, XDATA, add(CFA_XSP16, literal(-7)))
          CFI R7 load(1, XDATA, add(CFA_XSP16, literal(-6)))
          CFI ?RET_LOW load(1, XDATA, add(CFA_XSP16, literal(-5)))
          CFI ?RET_HIGH load(1, XDATA, add(CFA_XSP16, literal(-4)))
          CFI ?BRET_EXT load(1, XDATA, add(CFA_XSP16, literal(-3)))
          CFI DPL0 load(1, XDATA, add(CFA_XSP16, literal(-2)))
          CFI DPH0 load(1, XDATA, add(CFA_XSP16, literal(-1)))
          CFI CFA_SP SP+-4
          CFI CFA_XSP16 add(XSP16, 13)
          CFI Block cfiCond15 Using cfiCommon0
          CFI (cfiCond15) Function zclZigIt_Reporting
          CFI (cfiCond15) Conditional ??CrossCallReturnLabel_9, ??CrossCallReturnLabel_5
          CFI (cfiCond15) R6 load(1, XDATA, add(CFA_XSP16, literal(-12)))
          CFI (cfiCond15) VB load(1, XDATA, add(CFA_XSP16, literal(-11)))
          CFI (cfiCond15) V0 load(1, XDATA, add(CFA_XSP16, literal(-10)))
          CFI (cfiCond15) V1 load(1, XDATA, add(CFA_XSP16, literal(-9)))
          CFI (cfiCond15) V2 load(1, XDATA, add(CFA_XSP16, literal(-8)))
          CFI (cfiCond15) V3 load(1, XDATA, add(CFA_XSP16, literal(-7)))
          CFI (cfiCond15) R7 load(1, XDATA, add(CFA_XSP16, literal(-6)))
          CFI (cfiCond15) ?RET_LOW load(1, XDATA, add(CFA_XSP16, literal(-5)))
          CFI (cfiCond15) ?RET_HIGH load(1, XDATA, add(CFA_XSP16, literal(-4)))
          CFI (cfiCond15) ?BRET_EXT load(1, XDATA, add(CFA_XSP16, literal(-3)))
          CFI (cfiCond15) DPL0 load(1, XDATA, add(CFA_XSP16, literal(-2)))
          CFI (cfiCond15) DPH0 load(1, XDATA, add(CFA_XSP16, literal(-1)))
          CFI (cfiCond15) CFA_SP SP+-4
          CFI (cfiCond15) CFA_XSP16 add(XSP16, 13)
          CFI Block cfiCond16 Using cfiCommon0
          CFI (cfiCond16) Function zclZigIt_Reporting
          CFI (cfiCond16) Conditional ??CrossCallReturnLabel_10, ??CrossCallReturnLabel_0
          CFI (cfiCond16) R6 load(1, XDATA, add(CFA_XSP16, literal(-12)))
          CFI (cfiCond16) VB load(1, XDATA, add(CFA_XSP16, literal(-11)))
          CFI (cfiCond16) V0 load(1, XDATA, add(CFA_XSP16, literal(-10)))
          CFI (cfiCond16) V1 load(1, XDATA, add(CFA_XSP16, literal(-9)))
          CFI (cfiCond16) V2 load(1, XDATA, add(CFA_XSP16, literal(-8)))
          CFI (cfiCond16) V3 load(1, XDATA, add(CFA_XSP16, literal(-7)))
          CFI (cfiCond16) R7 load(1, XDATA, add(CFA_XSP16, literal(-6)))
          CFI (cfiCond16) ?RET_LOW load(1, XDATA, add(CFA_XSP16, literal(-5)))
          CFI (cfiCond16) ?RET_HIGH load(1, XDATA, add(CFA_XSP16, literal(-4)))
          CFI (cfiCond16) ?BRET_EXT load(1, XDATA, add(CFA_XSP16, literal(-3)))
          CFI (cfiCond16) DPL0 load(1, XDATA, add(CFA_XSP16, literal(-2)))
          CFI (cfiCond16) DPH0 load(1, XDATA, add(CFA_XSP16, literal(-1)))
          CFI (cfiCond16) CFA_SP SP+-4
          CFI (cfiCond16) CFA_XSP16 add(XSP16, 13)
          CFI Block cfiCond17 Using cfiCommon0
          CFI (cfiCond17) Function zclZigIt_Reporting
          CFI (cfiCond17) Conditional ??CrossCallReturnLabel_10, ??CrossCallReturnLabel_1
          CFI (cfiCond17) R6 load(1, XDATA, add(CFA_XSP16, literal(-12)))
          CFI (cfiCond17) VB load(1, XDATA, add(CFA_XSP16, literal(-11)))
          CFI (cfiCond17) V0 load(1, XDATA, add(CFA_XSP16, literal(-10)))
          CFI (cfiCond17) V1 load(1, XDATA, add(CFA_XSP16, literal(-9)))
          CFI (cfiCond17) V2 load(1, XDATA, add(CFA_XSP16, literal(-8)))
          CFI (cfiCond17) V3 load(1, XDATA, add(CFA_XSP16, literal(-7)))
          CFI (cfiCond17) R7 load(1, XDATA, add(CFA_XSP16, literal(-6)))
          CFI (cfiCond17) ?RET_LOW load(1, XDATA, add(CFA_XSP16, literal(-5)))
          CFI (cfiCond17) ?RET_HIGH load(1, XDATA, add(CFA_XSP16, literal(-4)))
          CFI (cfiCond17) ?BRET_EXT load(1, XDATA, add(CFA_XSP16, literal(-3)))
          CFI (cfiCond17) DPL0 load(1, XDATA, add(CFA_XSP16, literal(-2)))
          CFI (cfiCond17) DPH0 load(1, XDATA, add(CFA_XSP16, literal(-1)))
          CFI (cfiCond17) CFA_SP SP+-4
          CFI (cfiCond17) CFA_XSP16 add(XSP16, 13)
          CFI Block cfiPicker18 Using cfiCommon1
          CFI (cfiPicker18) NoFunction
          CFI (cfiPicker18) Picker
        LCALL     ?Subroutine10 & 0xFFFF
??CrossCallReturnLabel_12:
        INC       DPTR
        RET
          CFI EndBlock cfiCond14
          CFI EndBlock cfiCond15
          CFI EndBlock cfiCond16
          CFI EndBlock cfiCond17
          CFI EndBlock cfiPicker18

        RSEG BANKED_CODE:HUGECODE:NOROOT(0)
?Subroutine10:
          CFI Block cfiCond19 Using cfiCommon0
          CFI Function zclZigIt_Reporting
          CFI Conditional ??CrossCallReturnLabel_11
          CFI R6 load(1, XDATA, add(CFA_XSP16, literal(-12)))
          CFI VB load(1, XDATA, add(CFA_XSP16, literal(-11)))
          CFI V0 load(1, XDATA, add(CFA_XSP16, literal(-10)))
          CFI V1 load(1, XDATA, add(CFA_XSP16, literal(-9)))
          CFI V2 load(1, XDATA, add(CFA_XSP16, literal(-8)))
          CFI V3 load(1, XDATA, add(CFA_XSP16, literal(-7)))
          CFI R7 load(1, XDATA, add(CFA_XSP16, literal(-6)))
          CFI ?RET_LOW load(1, XDATA, add(CFA_XSP16, literal(-5)))
          CFI ?RET_HIGH load(1, XDATA, add(CFA_XSP16, literal(-4)))
          CFI ?BRET_EXT load(1, XDATA, add(CFA_XSP16, literal(-3)))
          CFI DPL0 load(1, XDATA, add(CFA_XSP16, literal(-2)))
          CFI DPH0 load(1, XDATA, add(CFA_XSP16, literal(-1)))
          CFI CFA_SP SP+-2
          CFI CFA_XSP16 add(XSP16, 13)
          CFI Block cfiCond20 Using cfiCommon0
          CFI (cfiCond20) Function zclZigIt_Reporting
          CFI (cfiCond20) Conditional ??CrossCallReturnLabel_12, ??CrossCallReturnLabel_9, ??CrossCallReturnLabel_4
          CFI (cfiCond20) R6 load(1, XDATA, add(CFA_XSP16, literal(-12)))
          CFI (cfiCond20) VB load(1, XDATA, add(CFA_XSP16, literal(-11)))
          CFI (cfiCond20) V0 load(1, XDATA, add(CFA_XSP16, literal(-10)))
          CFI (cfiCond20) V1 load(1, XDATA, add(CFA_XSP16, literal(-9)))
          CFI (cfiCond20) V2 load(1, XDATA, add(CFA_XSP16, literal(-8)))
          CFI (cfiCond20) V3 load(1, XDATA, add(CFA_XSP16, literal(-7)))
          CFI (cfiCond20) R7 load(1, XDATA, add(CFA_XSP16, literal(-6)))
          CFI (cfiCond20) ?RET_LOW load(1, XDATA, add(CFA_XSP16, literal(-5)))
          CFI (cfiCond20) ?RET_HIGH load(1, XDATA, add(CFA_XSP16, literal(-4)))
          CFI (cfiCond20) ?BRET_EXT load(1, XDATA, add(CFA_XSP16, literal(-3)))
          CFI (cfiCond20) DPL0 load(1, XDATA, add(CFA_XSP16, literal(-2)))
          CFI (cfiCond20) DPH0 load(1, XDATA, add(CFA_XSP16, literal(-1)))
          CFI (cfiCond20) CFA_SP SP+-6
          CFI (cfiCond20) CFA_XSP16 add(XSP16, 13)
          CFI Block cfiCond21 Using cfiCommon0
          CFI (cfiCond21) Function zclZigIt_Reporting
          CFI (cfiCond21) Conditional ??CrossCallReturnLabel_12, ??CrossCallReturnLabel_9, ??CrossCallReturnLabel_5
          CFI (cfiCond21) R6 load(1, XDATA, add(CFA_XSP16, literal(-12)))
          CFI (cfiCond21) VB load(1, XDATA, add(CFA_XSP16, literal(-11)))
          CFI (cfiCond21) V0 load(1, XDATA, add(CFA_XSP16, literal(-10)))
          CFI (cfiCond21) V1 load(1, XDATA, add(CFA_XSP16, literal(-9)))
          CFI (cfiCond21) V2 load(1, XDATA, add(CFA_XSP16, literal(-8)))
          CFI (cfiCond21) V3 load(1, XDATA, add(CFA_XSP16, literal(-7)))
          CFI (cfiCond21) R7 load(1, XDATA, add(CFA_XSP16, literal(-6)))
          CFI (cfiCond21) ?RET_LOW load(1, XDATA, add(CFA_XSP16, literal(-5)))
          CFI (cfiCond21) ?RET_HIGH load(1, XDATA, add(CFA_XSP16, literal(-4)))
          CFI (cfiCond21) ?BRET_EXT load(1, XDATA, add(CFA_XSP16, literal(-3)))
          CFI (cfiCond21) DPL0 load(1, XDATA, add(CFA_XSP16, literal(-2)))
          CFI (cfiCond21) DPH0 load(1, XDATA, add(CFA_XSP16, literal(-1)))
          CFI (cfiCond21) CFA_SP SP+-6
          CFI (cfiCond21) CFA_XSP16 add(XSP16, 13)
          CFI Block cfiCond22 Using cfiCommon0
          CFI (cfiCond22) Function zclZigIt_Reporting
          CFI (cfiCond22) Conditional ??CrossCallReturnLabel_12, ??CrossCallReturnLabel_10, ??CrossCallReturnLabel_0
          CFI (cfiCond22) R6 load(1, XDATA, add(CFA_XSP16, literal(-12)))
          CFI (cfiCond22) VB load(1, XDATA, add(CFA_XSP16, literal(-11)))
          CFI (cfiCond22) V0 load(1, XDATA, add(CFA_XSP16, literal(-10)))
          CFI (cfiCond22) V1 load(1, XDATA, add(CFA_XSP16, literal(-9)))
          CFI (cfiCond22) V2 load(1, XDATA, add(CFA_XSP16, literal(-8)))
          CFI (cfiCond22) V3 load(1, XDATA, add(CFA_XSP16, literal(-7)))
          CFI (cfiCond22) R7 load(1, XDATA, add(CFA_XSP16, literal(-6)))
          CFI (cfiCond22) ?RET_LOW load(1, XDATA, add(CFA_XSP16, literal(-5)))
          CFI (cfiCond22) ?RET_HIGH load(1, XDATA, add(CFA_XSP16, literal(-4)))
          CFI (cfiCond22) ?BRET_EXT load(1, XDATA, add(CFA_XSP16, literal(-3)))
          CFI (cfiCond22) DPL0 load(1, XDATA, add(CFA_XSP16, literal(-2)))
          CFI (cfiCond22) DPH0 load(1, XDATA, add(CFA_XSP16, literal(-1)))
          CFI (cfiCond22) CFA_SP SP+-6
          CFI (cfiCond22) CFA_XSP16 add(XSP16, 13)
          CFI Block cfiCond23 Using cfiCommon0
          CFI (cfiCond23) Function zclZigIt_Reporting
          CFI (cfiCond23) Conditional ??CrossCallReturnLabel_12, ??CrossCallReturnLabel_10, ??CrossCallReturnLabel_1
          CFI (cfiCond23) R6 load(1, XDATA, add(CFA_XSP16, literal(-12)))
          CFI (cfiCond23) VB load(1, XDATA, add(CFA_XSP16, literal(-11)))
          CFI (cfiCond23) V0 load(1, XDATA, add(CFA_XSP16, literal(-10)))
          CFI (cfiCond23) V1 load(1, XDATA, add(CFA_XSP16, literal(-9)))
          CFI (cfiCond23) V2 load(1, XDATA, add(CFA_XSP16, literal(-8)))
          CFI (cfiCond23) V3 load(1, XDATA, add(CFA_XSP16, literal(-7)))
          CFI (cfiCond23) R7 load(1, XDATA, add(CFA_XSP16, literal(-6)))
          CFI (cfiCond23) ?RET_LOW load(1, XDATA, add(CFA_XSP16, literal(-5)))
          CFI (cfiCond23) ?RET_HIGH load(1, XDATA, add(CFA_XSP16, literal(-4)))
          CFI (cfiCond23) ?BRET_EXT load(1, XDATA, add(CFA_XSP16, literal(-3)))
          CFI (cfiCond23) DPL0 load(1, XDATA, add(CFA_XSP16, literal(-2)))
          CFI (cfiCond23) DPH0 load(1, XDATA, add(CFA_XSP16, literal(-1)))
          CFI (cfiCond23) CFA_SP SP+-6
          CFI (cfiCond23) CFA_XSP16 add(XSP16, 13)
          CFI Block cfiPicker24 Using cfiCommon1
          CFI (cfiPicker24) NoFunction
          CFI (cfiPicker24) Picker
        MOVX      @DPTR,A
        MOV       DPL,R2
        MOV       DPH,R3
        INC       DPTR
        INC       DPTR
        INC       DPTR
        RET
          CFI EndBlock cfiCond19
          CFI EndBlock cfiCond20
          CFI EndBlock cfiCond21
          CFI EndBlock cfiCond22
          CFI EndBlock cfiCond23
          CFI EndBlock cfiPicker24

        RSEG BANKED_CODE:HUGECODE:NOROOT(0)
?Subroutine3:
          CFI Block cfiCond25 Using cfiCommon0
          CFI Function zclZigIt_Reporting
          CFI Conditional ??CrossCallReturnLabel_0
          CFI R6 load(1, XDATA, add(CFA_XSP16, literal(-12)))
          CFI VB load(1, XDATA, add(CFA_XSP16, literal(-11)))
          CFI V0 load(1, XDATA, add(CFA_XSP16, literal(-10)))
          CFI V1 load(1, XDATA, add(CFA_XSP16, literal(-9)))
          CFI V2 load(1, XDATA, add(CFA_XSP16, literal(-8)))
          CFI V3 load(1, XDATA, add(CFA_XSP16, literal(-7)))
          CFI R7 load(1, XDATA, add(CFA_XSP16, literal(-6)))
          CFI ?RET_LOW load(1, XDATA, add(CFA_XSP16, literal(-5)))
          CFI ?RET_HIGH load(1, XDATA, add(CFA_XSP16, literal(-4)))
          CFI ?BRET_EXT load(1, XDATA, add(CFA_XSP16, literal(-3)))
          CFI DPL0 load(1, XDATA, add(CFA_XSP16, literal(-2)))
          CFI DPH0 load(1, XDATA, add(CFA_XSP16, literal(-1)))
          CFI CFA_SP SP+-2
          CFI CFA_XSP16 add(XSP16, 13)
          CFI Block cfiCond26 Using cfiCommon0
          CFI (cfiCond26) Function zclZigIt_Reporting
          CFI (cfiCond26) Conditional ??CrossCallReturnLabel_1
          CFI (cfiCond26) R6 load(1, XDATA, add(CFA_XSP16, literal(-12)))
          CFI (cfiCond26) VB load(1, XDATA, add(CFA_XSP16, literal(-11)))
          CFI (cfiCond26) V0 load(1, XDATA, add(CFA_XSP16, literal(-10)))
          CFI (cfiCond26) V1 load(1, XDATA, add(CFA_XSP16, literal(-9)))
          CFI (cfiCond26) V2 load(1, XDATA, add(CFA_XSP16, literal(-8)))
          CFI (cfiCond26) V3 load(1, XDATA, add(CFA_XSP16, literal(-7)))
          CFI (cfiCond26) R7 load(1, XDATA, add(CFA_XSP16, literal(-6)))
          CFI (cfiCond26) ?RET_LOW load(1, XDATA, add(CFA_XSP16, literal(-5)))
          CFI (cfiCond26) ?RET_HIGH load(1, XDATA, add(CFA_XSP16, literal(-4)))
          CFI (cfiCond26) ?BRET_EXT load(1, XDATA, add(CFA_XSP16, literal(-3)))
          CFI (cfiCond26) DPL0 load(1, XDATA, add(CFA_XSP16, literal(-2)))
          CFI (cfiCond26) DPH0 load(1, XDATA, add(CFA_XSP16, literal(-1)))
          CFI (cfiCond26) CFA_SP SP+-2
          CFI (cfiCond26) CFA_XSP16 add(XSP16, 13)
          CFI Block cfiPicker27 Using cfiCommon1
          CFI (cfiPicker27) NoFunction
          CFI (cfiPicker27) Picker
        LCALL     ?Subroutine9 & 0xFFFF
??CrossCallReturnLabel_10:
        INC       DPTR
        INC       DPTR
        INC       DPTR
        INC       DPTR
        RET
          CFI EndBlock cfiCond25
          CFI EndBlock cfiCond26
          CFI EndBlock cfiPicker27
//  360 
//  361 
//  362 
//  363 /*********************************************************************
//  364  * @fn          zclSample_event_loop
//  365  *
//  366  * @brief       Event Loop Processor for zclGeneral.
//  367  *
//  368  * @param       none
//  369  *
//  370  * @return      none
//  371  */

        RSEG BANKED_CODE:HUGECODE:NOROOT(0)
//  372 uint16 zclZigIt_event_loop( uint8 task_id, uint16 events )
zclZigIt_event_loop:
          CFI Block cfiBlock28 Using cfiCommon0
          CFI Function zclZigIt_event_loop
        CODE
//  373 {
        FUNCALL zclZigIt_event_loop, zclZigIt_Reporting
        LOCFRAME ISTACK, 0, STACK
        LOCFRAME PSTACK, 0, STACK
        LOCFRAME XSTACK, 12, STACK
        LOCFRAME IOVERLAY, 0, STATIC
        LOCFRAME DOVERLAY, 0, STATIC
        ARGFRAME ISTACK, 0, STACK
        ARGFRAME PSTACK, 0, STACK
        ARGFRAME XSTACK, 12, STACK
        ARGFRAME IOVERLAY, 0, STATIC
        ARGFRAME DOVERLAY, 0, STATIC
        FUNCALL zclZigIt_event_loop, osal_start_timerEx
        LOCFRAME ISTACK, 0, STACK
        LOCFRAME PSTACK, 0, STACK
        LOCFRAME XSTACK, 16, STACK
        LOCFRAME IOVERLAY, 0, STATIC
        LOCFRAME DOVERLAY, 0, STATIC
        ARGFRAME ISTACK, 0, STACK
        ARGFRAME PSTACK, 0, STACK
        ARGFRAME XSTACK, 16, STACK
        ARGFRAME IOVERLAY, 0, STATIC
        ARGFRAME DOVERLAY, 0, STATIC
        FUNCALL zclZigIt_event_loop, bdb_ZedAttemptRecoverNwk
        LOCFRAME ISTACK, 0, STACK
        LOCFRAME PSTACK, 0, STACK
        LOCFRAME XSTACK, 12, STACK
        LOCFRAME IOVERLAY, 0, STATIC
        LOCFRAME DOVERLAY, 0, STATIC
        ARGFRAME ISTACK, 0, STACK
        ARGFRAME PSTACK, 0, STACK
        ARGFRAME XSTACK, 12, STACK
        ARGFRAME IOVERLAY, 0, STATIC
        ARGFRAME DOVERLAY, 0, STATIC
        FUNCALL zclZigIt_event_loop, zclZigIt_ProcessIncomingMsg
        LOCFRAME ISTACK, 0, STACK
        LOCFRAME PSTACK, 0, STACK
        LOCFRAME XSTACK, 12, STACK
        LOCFRAME IOVERLAY, 0, STATIC
        LOCFRAME DOVERLAY, 0, STATIC
        ARGFRAME ISTACK, 0, STACK
        ARGFRAME PSTACK, 0, STACK
        ARGFRAME XSTACK, 12, STACK
        ARGFRAME IOVERLAY, 0, STATIC
        ARGFRAME DOVERLAY, 0, STATIC
        FUNCALL zclZigIt_event_loop, osal_msg_deallocate
        LOCFRAME ISTACK, 0, STACK
        LOCFRAME PSTACK, 0, STACK
        LOCFRAME XSTACK, 12, STACK
        LOCFRAME IOVERLAY, 0, STATIC
        LOCFRAME DOVERLAY, 0, STATIC
        ARGFRAME ISTACK, 0, STACK
        ARGFRAME PSTACK, 0, STACK
        ARGFRAME XSTACK, 12, STACK
        ARGFRAME IOVERLAY, 0, STATIC
        ARGFRAME DOVERLAY, 0, STATIC
        FUNCALL zclZigIt_event_loop, osal_msg_receive
        LOCFRAME ISTACK, 0, STACK
        LOCFRAME PSTACK, 0, STACK
        LOCFRAME XSTACK, 12, STACK
        LOCFRAME IOVERLAY, 0, STATIC
        LOCFRAME DOVERLAY, 0, STATIC
        ARGFRAME ISTACK, 0, STACK
        ARGFRAME PSTACK, 0, STACK
        ARGFRAME XSTACK, 12, STACK
        ARGFRAME IOVERLAY, 0, STATIC
        ARGFRAME DOVERLAY, 0, STATIC
        REQUIRE ?V0
        REQUIRE ?V1
        REQUIRE ?V2
        REQUIRE ?V3
        MOV       A,#-0xc
        LCALL     ?BANKED_ENTER_XDATA
          CFI DPH0 load(1, XDATA, add(CFA_XSP16, literal(-1)))
          CFI DPL0 load(1, XDATA, add(CFA_XSP16, literal(-2)))
          CFI ?BRET_EXT load(1, XDATA, add(CFA_XSP16, literal(-3)))
          CFI ?RET_HIGH load(1, XDATA, add(CFA_XSP16, literal(-4)))
          CFI ?RET_LOW load(1, XDATA, add(CFA_XSP16, literal(-5)))
          CFI R7 load(1, XDATA, add(CFA_XSP16, literal(-6)))
          CFI V3 load(1, XDATA, add(CFA_XSP16, literal(-7)))
          CFI V2 load(1, XDATA, add(CFA_XSP16, literal(-8)))
          CFI V1 load(1, XDATA, add(CFA_XSP16, literal(-9)))
          CFI V0 load(1, XDATA, add(CFA_XSP16, literal(-10)))
          CFI VB load(1, XDATA, add(CFA_XSP16, literal(-11)))
          CFI R6 load(1, XDATA, add(CFA_XSP16, literal(-12)))
          CFI CFA_SP SP+0
          CFI CFA_XSP16 add(XSP16, 12)
        ; Saved register size: 12
        ; Auto size: 0
        MOV       ?V0,R2
        MOV       ?V1,R3
//  374   afIncomingMSGPacket_t *MSGpkt;
//  375   (void)task_id;  // Intentionally unreferenced parameter
//  376 
//  377   //Send toggle every 500ms
//  378 //  if( events & SAMPLESW_TOGGLE_TEST_EVT )
//  379 //  {
//  380 //    osal_start_timerEx(zclZigIt_TaskID,SAMPLESW_TOGGLE_TEST_EVT,5000);
//  381 //    //zclGeneral_SendOnOff_CmdToggle( SAMPLESW_ENDPOINT, &zclZigIt_DstAddr, FALSE, bdb_getZCLFrameCounter() );
//  382 //    zclGeneral_SendOnOff_CmdOn( SAMPLESW_ENDPOINT, &zclZigIt_DstAddr, FALSE, bdb_getZCLFrameCounter() );
//  383 //    
//  384 //    zclGeneral_SendOnOff_CmdOff( SAMPLESW_ENDPOINT, &zclZigIt_DstAddr, FALSE, bdb_getZCLFrameCounter() );
//  385 //   
//  386 //    // return unprocessed events
//  387 //    return (events ^ SAMPLESW_TOGGLE_TEST_EVT);
//  388 //  }
//  389 //  
//  390   if ( events & ZIGIT_REPORTING_EVT )
        MOV       A,R3
        ANL       A,#0x10
        JZ        ??zclZigIt_event_loop_0
//  391   {
//  392     // report states
//  393     zclZigIt_Reporting(REPORT_REASON_TIMER);
        ; Setup parameters for call to function zclZigIt_Reporting
        MOV       R2,#0x0
        MOV       R3,#0x0
        LCALL     `??zclZigIt_Reporting::?relay`; Banked call to: zclZigIt_Reporting
//  394     osal_start_timerEx(zclZigIt_TaskID,ZIGIT_REPORTING_EVT,5000);
        ; Setup parameters for call to function osal_start_timerEx
        MOV       DPTR,#__Constant_1388
        LCALL     ?PUSH_XSTACK8_X_FOUR
          CFI CFA_XSP16 add(XSP16, 16)
        LCALL     ?Subroutine4 & 0xFFFF
??CrossCallReturnLabel_14:
        LCALL     ?DEALLOC_XSTACK8
          CFI CFA_XSP16 add(XSP16, 12)
//  395     
//  396     return ( events ^ ZIGIT_REPORTING_EVT );
        MOV       R2,?V0
        MOV       A,?V1
        XRL       A,#0x10
        SJMP      ??zclZigIt_event_loop_1
//  397   }      
//  398   
//  399   if ( events & SYS_EVENT_MSG )
??zclZigIt_event_loop_0:
        MOV       A,R3
        ANL       A,#0x80
        JNZ       ??zclZigIt_event_loop_2
//  400   {
//  401     while ( (MSGpkt = (afIncomingMSGPacket_t *)osal_msg_receive( zclZigIt_TaskID )) )
//  402     {
//  403       switch ( MSGpkt->hdr.event )
//  404       {
//  405         case ZCL_INCOMING_MSG:
//  406           // Incoming ZCL Foundation command/response messages
//  407           zclZigIt_ProcessIncomingMsg( (zclIncomingMsg_t *)MSGpkt );
//  408           break;
//  409 
//  410         case KEY_CHANGE:
//  411           zclZigIt_HandleKeys( ((keyChange_t *)MSGpkt)->state, ((keyChange_t *)MSGpkt)->keys );
//  412           break;
//  413 
//  414         case ZDO_STATE_CHANGE:
//  415           //UI_DeviceStateUpdated((devStates_t)(MSGpkt->hdr.status));
//  416           break;
//  417 
//  418 #if defined (OTA_CLIENT) && (OTA_CLIENT == TRUE)
//  419         case ZCL_OTA_CALLBACK_IND:
//  420           zclZigIt_ProcessOTAMsgs( (zclOTA_CallbackMsg_t*)MSGpkt  );
//  421           break;
//  422 #endif
//  423 
//  424         default:
//  425           break;
//  426       }
//  427 
//  428       // Release the memory
//  429       osal_msg_deallocate( (uint8 *)MSGpkt );
//  430     }
//  431 
//  432     // return unprocessed events
//  433     return (events ^ SYS_EVENT_MSG);
//  434   }
//  435 
//  436 #if ZG_BUILD_ENDDEVICE_TYPE    
//  437   if ( events & SAMPLEAPP_END_DEVICE_REJOIN_EVT )
        MOV       A,R2
        MOV       C,0xE0 /* A   */.0
        JNC       ??zclZigIt_event_loop_3
//  438   {
//  439     bdb_ZedAttemptRecoverNwk();
        ; Setup parameters for call to function bdb_ZedAttemptRecoverNwk
        LCALL     `??bdb_ZedAttemptRecoverNwk::?relay`; Banked call to: bdb_ZedAttemptRecoverNwk
//  440     return ( events ^ SAMPLEAPP_END_DEVICE_REJOIN_EVT );
        MOV       A,?V0
        XRL       A,#0x1
        MOV       R2,A
        MOV       R3,?V1
        SJMP      ??zclZigIt_event_loop_4
//  441   }
??zclZigIt_event_loop_5:
        MOV       DPL,R2
        MOV       DPH,R3
        MOVX      A,@DPTR
        XRL       A,#0x34
        JNZ       ??zclZigIt_event_loop_6
        ; Setup parameters for call to function zclZigIt_ProcessIncomingMsg
        LCALL     `??zclZigIt_ProcessIncomingMsg::?relay`; Banked call to: zclZigIt_ProcessIncomingMsg
??zclZigIt_event_loop_6:
        ; Setup parameters for call to function osal_msg_deallocate
        MOV       R2,?V2
        MOV       A,R7
        MOV       R3,A
        LCALL     `??osal_msg_deallocate::?relay`; Banked call to: osal_msg_deallocate
??zclZigIt_event_loop_2:
        ; Setup parameters for call to function osal_msg_receive
        MOV       DPTR,#zclZigIt_TaskID
        MOVX      A,@DPTR
        MOV       R1,A
        LCALL     `??osal_msg_receive::?relay`; Banked call to: osal_msg_receive
        MOV       ?V2,R2
        MOV       ?V3,R3
        MOV       R7,?V3
        MOV       A,R2
        ORL       A,R7
        JNZ       ??zclZigIt_event_loop_5
        MOV       R2,?V0
        MOV       A,?V1
        XRL       A,#0x80
??zclZigIt_event_loop_1:
        MOV       R3,A
        SJMP      ??zclZigIt_event_loop_4
//  442 #endif
//  443 
//  444   // Discard unknown events
//  445   return 0;
??zclZigIt_event_loop_3:
        MOV       R2,#0x0
        MOV       R3,#0x0
??zclZigIt_event_loop_4:
        LJMP      ?Subroutine1 & 0xFFFF
//  446 }
          CFI EndBlock cfiBlock28
//  447 
//  448 /*********************************************************************
//  449  * @fn      zclZigIt_HandleKeys
//  450  *
//  451  * @brief   Handles all key events for this device.
//  452  *
//  453  * @param   shift - true if in shift/alt.
//  454  * @param   keys - bit field for key events. Valid entries:
//  455  *                 HAL_KEY_SW_5
//  456  *                 HAL_KEY_SW_4
//  457  *                 HAL_KEY_SW_2
//  458  *                 HAL_KEY_SW_1
//  459  *
//  460  * @return  none
//  461  */
//  462 static void zclZigIt_HandleKeys( byte shift, byte keys )
//  463 {
//  464   //UI_MainStateMachine(keys);
//  465 }
//  466 
//  467 
//  468 /*********************************************************************
//  469  * @fn      zclZigIt_ProcessCommissioningStatus
//  470  *
//  471  * @brief   Callback in which the status of the commissioning process are reported
//  472  *
//  473  * @param   bdbCommissioningModeMsg - Context message of the status of a commissioning process
//  474  *
//  475  * @return  none
//  476  */

        RSEG BANKED_CODE:HUGECODE:NOROOT(0)
//  477 static void zclZigIt_ProcessCommissioningStatus(bdbCommissioningModeMsg_t *bdbCommissioningModeMsg)
zclZigIt_ProcessCommissioningStatus:
          CFI Block cfiBlock29 Using cfiCommon0
          CFI Function zclZigIt_ProcessCommissioningStatus
        CODE
//  478 {
        FUNCALL zclZigIt_ProcessCommissioningStatus, bdb_StartCommissioning
        LOCFRAME ISTACK, 2, STACK
        LOCFRAME PSTACK, 0, STACK
        LOCFRAME XSTACK, 0, STACK
        LOCFRAME IOVERLAY, 0, STATIC
        LOCFRAME DOVERLAY, 0, STATIC
        ARGFRAME ISTACK, 2, STACK
        ARGFRAME PSTACK, 0, STACK
        ARGFRAME XSTACK, 0, STACK
        ARGFRAME IOVERLAY, 0, STATIC
        ARGFRAME DOVERLAY, 0, STATIC
        FUNCALL zclZigIt_ProcessCommissioningStatus, osal_start_timerEx
        LOCFRAME ISTACK, 2, STACK
        LOCFRAME PSTACK, 0, STACK
        LOCFRAME XSTACK, 4, STACK
        LOCFRAME IOVERLAY, 0, STATIC
        LOCFRAME DOVERLAY, 0, STATIC
        ARGFRAME ISTACK, 2, STACK
        ARGFRAME PSTACK, 0, STACK
        ARGFRAME XSTACK, 4, STACK
        ARGFRAME IOVERLAY, 0, STATIC
        ARGFRAME DOVERLAY, 0, STATIC
        PUSH      DPL
          CFI DPL0 Frame(CFA_SP, 4)
          CFI CFA_SP SP+-4
        PUSH      DPH
          CFI DPH0 Frame(CFA_SP, 5)
          CFI CFA_SP SP+-5
        ; Saved register size: 2
        ; Auto size: 0
//  479   switch(bdbCommissioningModeMsg->bdbCommissioningMode)
        MOV       DPL,R2
        MOV       DPH,R3
        INC       DPTR
        MOVX      A,@DPTR
        ADD       A,#-0x2
        JZ        ??zclZigIt_ProcessCommissioningStatus_0
        ADD       A,#-0x3
        JZ        ??zclZigIt_ProcessCommissioningStatus_1
        SJMP      ??zclZigIt_ProcessCommissioningStatus_2
//  480   {
//  481     case BDB_COMMISSIONING_FORMATION:
//  482       if(bdbCommissioningModeMsg->bdbCommissioningStatus == BDB_COMMISSIONING_SUCCESS)
??zclZigIt_ProcessCommissioningStatus_0:
        MOV       DPL,R2
        MOV       DPH,R3
        MOVX      A,@DPTR
        JNZ       ??zclZigIt_ProcessCommissioningStatus_2
//  483       {
//  484         //After formation, perform nwk steering again plus the remaining commissioning modes that has not been processed yet
//  485         bdb_StartCommissioning(BDB_COMMISSIONING_MODE_NWK_STEERING | bdbCommissioningModeMsg->bdbRemainingCommissioningModes);
        ; Setup parameters for call to function bdb_StartCommissioning
        INC       DPTR
        INC       DPTR
        MOVX      A,@DPTR
        ORL       A,#0x2
        MOV       R1,A
        LCALL     `??bdb_StartCommissioning::?relay`; Banked call to: bdb_StartCommissioning
        SJMP      ??zclZigIt_ProcessCommissioningStatus_2
//  486       }
//  487       else
//  488       {
//  489         //Want to try other channels?
//  490         //try with bdb_setChannelAttribute
//  491       }
//  492     break;
//  493     case BDB_COMMISSIONING_NWK_STEERING:
//  494       if(bdbCommissioningModeMsg->bdbCommissioningStatus == BDB_COMMISSIONING_SUCCESS)
//  495       {
//  496         //YOUR JOB:
//  497         //We are on the nwk, what now?
//  498       }
//  499       else
//  500       {
//  501         //See the possible errors for nwk steering procedure
//  502         //No suitable networks found
//  503         //Want to try other channels?
//  504         //try with bdb_setChannelAttribute
//  505       }
//  506     break;
//  507     case BDB_COMMISSIONING_FINDING_BINDING:
//  508       if(bdbCommissioningModeMsg->bdbCommissioningStatus == BDB_COMMISSIONING_SUCCESS)
//  509       {
//  510         //YOUR JOB:
//  511       }
//  512       else
//  513       {
//  514         //YOUR JOB:
//  515         //retry?, wait for user interaction?
//  516       }
//  517     break;
//  518     case BDB_COMMISSIONING_INITIALIZATION:
//  519       //Initialization notification can only be successful. Failure on initialization 
//  520       //only happens for ZED and is notified as BDB_COMMISSIONING_PARENT_LOST notification
//  521       
//  522       //YOUR JOB:
//  523       //We are on a network, what now?
//  524       
//  525     break;
//  526 #if ZG_BUILD_ENDDEVICE_TYPE    
//  527     case BDB_COMMISSIONING_PARENT_LOST:
//  528       if(bdbCommissioningModeMsg->bdbCommissioningStatus == BDB_COMMISSIONING_NETWORK_RESTORED)
??zclZigIt_ProcessCommissioningStatus_1:
        MOV       DPL,R2
        MOV       DPH,R3
        MOVX      A,@DPTR
        XRL       A,#0xd
        JZ        ??zclZigIt_ProcessCommissioningStatus_2
//  529       {
//  530         //We did recover from losing parent
//  531       }
//  532       else
//  533       {
//  534         //Parent not found, attempt to rejoin again after a fixed delay
//  535         osal_start_timerEx(zclZigIt_TaskID, SAMPLEAPP_END_DEVICE_REJOIN_EVT, SAMPLEAPP_END_DEVICE_REJOIN_DELAY);
        ; Setup parameters for call to function osal_start_timerEx
        MOV       DPTR,#__Constant_2710
        LCALL     ?PUSH_XSTACK8_X_FOUR
          CFI CFA_XSP16 add(XSP16, 4)
        MOV       R2,#0x1
        MOV       R3,#0x0
        LCALL     ??Subroutine11_0 & 0xFFFF
//  536       }
//  537     break;
//  538 #endif 
//  539   }
??CrossCallReturnLabel_15:
        LCALL     ?DEALLOC_XSTACK8
          CFI CFA_XSP16 XSP16+0
//  540   
//  541   //UI_UpdateComissioningStatus(bdbCommissioningModeMsg);
//  542 }
??zclZigIt_ProcessCommissioningStatus_2:
        LJMP      ?Subroutine2 & 0xFFFF
          CFI EndBlock cfiBlock29
//  543 
//  544 /*********************************************************************
//  545  * @fn      zclZigIt_BasicResetCB
//  546  *
//  547  * @brief   Callback from the ZCL General Cluster Library
//  548  *          to set all the Basic Cluster attributes to  default values.
//  549  *
//  550  * @param   none
//  551  *
//  552  * @return  none
//  553  */

        RSEG BANKED_CODE:HUGECODE:NOROOT(0)
//  554 static void zclZigIt_BasicResetCB( void )
zclZigIt_BasicResetCB:
          CFI Block cfiBlock30 Using cfiCommon0
          CFI Function zclZigIt_BasicResetCB
        CODE
//  555 {
        FUNCALL zclZigIt_BasicResetCB, zclZigIt_ResetAttributesToDefaultValues
        LOCFRAME ISTACK, 2, STACK
        LOCFRAME PSTACK, 0, STACK
        LOCFRAME XSTACK, 5, STACK
        LOCFRAME IOVERLAY, 0, STATIC
        LOCFRAME DOVERLAY, 0, STATIC
        ARGFRAME ISTACK, 2, STACK
        ARGFRAME PSTACK, 0, STACK
        ARGFRAME XSTACK, 5, STACK
        ARGFRAME IOVERLAY, 0, STATIC
        ARGFRAME DOVERLAY, 0, STATIC
        FUNCALL zclZigIt_BasicResetCB, osal_memset
        LOCFRAME ISTACK, 2, STACK
        LOCFRAME PSTACK, 0, STACK
        LOCFRAME XSTACK, 5, STACK
        LOCFRAME IOVERLAY, 0, STATIC
        LOCFRAME DOVERLAY, 0, STATIC
        ARGFRAME ISTACK, 2, STACK
        ARGFRAME PSTACK, 0, STACK
        ARGFRAME XSTACK, 5, STACK
        ARGFRAME IOVERLAY, 0, STATIC
        ARGFRAME DOVERLAY, 0, STATIC
        FUNCALL zclZigIt_BasicResetCB, zgWriteStartupOptions
        LOCFRAME ISTACK, 2, STACK
        LOCFRAME PSTACK, 0, STACK
        LOCFRAME XSTACK, 5, STACK
        LOCFRAME IOVERLAY, 0, STATIC
        LOCFRAME DOVERLAY, 0, STATIC
        ARGFRAME ISTACK, 2, STACK
        ARGFRAME PSTACK, 0, STACK
        ARGFRAME XSTACK, 5, STACK
        ARGFRAME IOVERLAY, 0, STATIC
        ARGFRAME DOVERLAY, 0, STATIC
        FUNCALL zclZigIt_BasicResetCB, NLME_LeaveReq
        LOCFRAME ISTACK, 2, STACK
        LOCFRAME PSTACK, 0, STACK
        LOCFRAME XSTACK, 5, STACK
        LOCFRAME IOVERLAY, 0, STATIC
        LOCFRAME DOVERLAY, 0, STATIC
        ARGFRAME ISTACK, 2, STACK
        ARGFRAME PSTACK, 0, STACK
        ARGFRAME XSTACK, 5, STACK
        ARGFRAME IOVERLAY, 0, STATIC
        ARGFRAME DOVERLAY, 0, STATIC
        FUNCALL zclZigIt_BasicResetCB, ZDApp_LeaveReset
        LOCFRAME ISTACK, 2, STACK
        LOCFRAME PSTACK, 0, STACK
        LOCFRAME XSTACK, 5, STACK
        LOCFRAME IOVERLAY, 0, STATIC
        LOCFRAME DOVERLAY, 0, STATIC
        ARGFRAME ISTACK, 2, STACK
        ARGFRAME PSTACK, 0, STACK
        ARGFRAME XSTACK, 5, STACK
        ARGFRAME IOVERLAY, 0, STATIC
        ARGFRAME DOVERLAY, 0, STATIC
        PUSH      DPL
          CFI DPL0 Frame(CFA_SP, 4)
          CFI CFA_SP SP+-4
        PUSH      DPH
          CFI DPH0 Frame(CFA_SP, 5)
          CFI CFA_SP SP+-5
        ; Saved register size: 2
        ; Auto size: 5
        MOV       A,#-0x5
        LCALL     ?ALLOC_XSTACK8
          CFI CFA_XSP16 add(XSP16, 5)
//  556   zclZigIt_ResetAttributesToDefaultValues();
        ; Setup parameters for call to function zclZigIt_ResetAttributesToDefaultValues
        LCALL     `??zclZigIt_ResetAttributesToDefaultValues::?rel`; Banked call to: zclZigIt_ResetAttributesToDefaultValues
//  557   NLME_LeaveReq_t leaveReq;
//  558   // Set every field to 0
//  559   osal_memset( &leaveReq, 0, sizeof( NLME_LeaveReq_t ) );
        ; Setup parameters for call to function osal_memset
        MOV       R4,#0x5
        MOV       R5,#0x0
        MOV       R1,#0x0
        MOV       R2,?XSP + 0
        MOV       R3,?XSP + 1
        LCALL     `??osal_memset::?relay`; Banked call to: osal_memset
//  560   
//  561   // This will enable the device to rejoin the network after reset.
//  562   leaveReq.rejoin = TRUE;
        MOV       A,#0x3
        LCALL     ?XSTACK_DISP0_8
        MOV       A,#0x1
        MOVX      @DPTR,A
//  563   
//  564   // Set the NV startup option to force a "new" join.
//  565   zgWriteStartupOptions( ZG_STARTUP_SET, ZCD_STARTOPT_DEFAULT_NETWORK_STATE );
        ; Setup parameters for call to function zgWriteStartupOptions
        MOV       R2,#0x2
        MOV       R1,#-0x1
        LCALL     `??zgWriteStartupOptions::?relay`; Banked call to: zgWriteStartupOptions
//  566   
//  567   // Leave the network, and reset afterwards
//  568   if ( NLME_LeaveReq( &leaveReq ) != ZSuccess )
        ; Setup parameters for call to function NLME_LeaveReq
        MOV       R2,?XSP + 0
        MOV       R3,?XSP + 1
        LCALL     `??NLME_LeaveReq::?relay`; Banked call to: NLME_LeaveReq
        MOV       A,R1
        JZ        ??zclZigIt_BasicResetCB_0
//  569   {
//  570     // Couldn't send out leave; prepare to reset anyway
//  571     ZDApp_LeaveReset( FALSE );
        ; Setup parameters for call to function ZDApp_LeaveReset
        MOV       R1,#0x0
        LCALL     `??ZDApp_LeaveReset::?relay`; Banked call to: ZDApp_LeaveReset
//  572   }
//  573 }
??zclZigIt_BasicResetCB_0:
        MOV       A,#0x5
        LCALL     ?DEALLOC_XSTACK8
          CFI CFA_XSP16 XSP16+0
        LJMP      ?Subroutine2 & 0xFFFF
          CFI EndBlock cfiBlock30
//  574 
//  575 /******************************************************************************
//  576  *
//  577  *  Functions for processing ZCL Foundation incoming Command/Response messages
//  578  *
//  579  *****************************************************************************/
//  580 
//  581 /*********************************************************************
//  582  * @fn      zclZigIt_ProcessIncomingMsg
//  583  *
//  584  * @brief   Process ZCL Foundation incoming message
//  585  *
//  586  * @param   pInMsg - pointer to the received message
//  587  *
//  588  * @return  none
//  589  */

        RSEG BANKED_CODE:HUGECODE:NOROOT(0)
//  590 static void zclZigIt_ProcessIncomingMsg( zclIncomingMsg_t *pInMsg )
zclZigIt_ProcessIncomingMsg:
          CFI Block cfiBlock31 Using cfiCommon0
          CFI Function zclZigIt_ProcessIncomingMsg
        CODE
//  591 {
        FUNCALL zclZigIt_ProcessIncomingMsg, zclZigIt_ProcessInDiscCmdsRspCmd
        LOCFRAME ISTACK, 0, STACK
        LOCFRAME PSTACK, 0, STACK
        LOCFRAME XSTACK, 9, STACK
        LOCFRAME IOVERLAY, 0, STATIC
        LOCFRAME DOVERLAY, 0, STATIC
        ARGFRAME ISTACK, 0, STACK
        ARGFRAME PSTACK, 0, STACK
        ARGFRAME XSTACK, 9, STACK
        ARGFRAME IOVERLAY, 0, STATIC
        ARGFRAME DOVERLAY, 0, STATIC
        FUNCALL zclZigIt_ProcessIncomingMsg, zclZigIt_ProcessInDiscCmdsRspCmd
        LOCFRAME ISTACK, 0, STACK
        LOCFRAME PSTACK, 0, STACK
        LOCFRAME XSTACK, 9, STACK
        LOCFRAME IOVERLAY, 0, STATIC
        LOCFRAME DOVERLAY, 0, STATIC
        ARGFRAME ISTACK, 0, STACK
        ARGFRAME PSTACK, 0, STACK
        ARGFRAME XSTACK, 9, STACK
        ARGFRAME IOVERLAY, 0, STATIC
        ARGFRAME DOVERLAY, 0, STATIC
        FUNCALL zclZigIt_ProcessIncomingMsg, osal_mem_free
        LOCFRAME ISTACK, 0, STACK
        LOCFRAME PSTACK, 0, STACK
        LOCFRAME XSTACK, 9, STACK
        LOCFRAME IOVERLAY, 0, STATIC
        LOCFRAME DOVERLAY, 0, STATIC
        ARGFRAME ISTACK, 0, STACK
        ARGFRAME PSTACK, 0, STACK
        ARGFRAME XSTACK, 9, STACK
        ARGFRAME IOVERLAY, 0, STATIC
        ARGFRAME DOVERLAY, 0, STATIC
        MOV       A,#-0x9
        LCALL     ?BANKED_ENTER_XDATA
          CFI DPH0 load(1, XDATA, add(CFA_XSP16, literal(-1)))
          CFI DPL0 load(1, XDATA, add(CFA_XSP16, literal(-2)))
          CFI ?BRET_EXT load(1, XDATA, add(CFA_XSP16, literal(-3)))
          CFI ?RET_HIGH load(1, XDATA, add(CFA_XSP16, literal(-4)))
          CFI ?RET_LOW load(1, XDATA, add(CFA_XSP16, literal(-5)))
          CFI R7 load(1, XDATA, add(CFA_XSP16, literal(-6)))
          CFI V0 load(1, XDATA, add(CFA_XSP16, literal(-7)))
          CFI VB load(1, XDATA, add(CFA_XSP16, literal(-8)))
          CFI R6 load(1, XDATA, add(CFA_XSP16, literal(-9)))
          CFI CFA_SP SP+0
          CFI CFA_XSP16 add(XSP16, 9)
        ; Saved register size: 9
        ; Auto size: 0
//  592   switch ( pInMsg->zclHdr.commandID )
        MOV       A,R2
        ADD       A,#0x17
        MOV       R0,A
        CLR       A
        ADDC      A,R3
        MOV       R1,A
        MOV       A,R0
        MOV       R6,A
        MOV       A,R1
        MOV       R7,A
        MOV       DPL,R2
        MOV       DPH,R3
        INC       DPTR
        INC       DPTR
        INC       DPTR
        INC       DPTR
        INC       DPTR
        INC       DPTR
        INC       DPTR
        MOVX      A,@DPTR
        DEC       A
        JZ        ??zclZigIt_ProcessIncomingMsg_0
        ADD       A,#-0x3
        JZ        ??zclZigIt_ProcessIncomingMsg_1
        ADD       A,#-0x9
        JZ        ??zclZigIt_ProcessIncomingMsg_2
        ADD       A,#-0x5
        JZ        ??zclZigIt_ProcessIncomingMsg_3
        ADD       A,#-0x2
        JZ        ??zclZigIt_ProcessIncomingMsg_3
        ADD       A,#-0x2
        JZ        ??zclZigIt_ProcessIncomingMsg_4
        SJMP      ??zclZigIt_ProcessIncomingMsg_5
//  593   {
//  594 #ifdef ZCL_READ
//  595     case ZCL_CMD_READ_RSP:
//  596       zclZigIt_ProcessInReadRspCmd( pInMsg );
??zclZigIt_ProcessIncomingMsg_0:
        LCALL     ?Subroutine6 & 0xFFFF
??CrossCallReturnLabel_2:
        MOVX      A,@DPTR
        MOV       R1,A
        MOV       A,R0
        CLR       C
        SUBB      A,R1
        JNC       ??zclZigIt_ProcessIncomingMsg_5
        INC       R0
        SJMP      ??CrossCallReturnLabel_2
//  597       break;
//  598 #endif
//  599 #ifdef ZCL_WRITE
//  600     case ZCL_CMD_WRITE_RSP:
//  601       zclZigIt_ProcessInWriteRspCmd( pInMsg );
??zclZigIt_ProcessIncomingMsg_1:
        LCALL     ?Subroutine6 & 0xFFFF
??CrossCallReturnLabel_3:
        MOVX      A,@DPTR
        MOV       R1,A
        MOV       A,R0
        CLR       C
        SUBB      A,R1
        JNC       ??zclZigIt_ProcessIncomingMsg_5
        INC       R0
        SJMP      ??CrossCallReturnLabel_3
//  602       break;
//  603 #endif
//  604 #ifdef ZCL_REPORT
//  605     // See ZCL Test Applicaiton (zcl_testapp.c) for sample code on Attribute Reporting
//  606     case ZCL_CMD_CONFIG_REPORT:
//  607       //zclZigIt_ProcessInConfigReportCmd( pInMsg );
//  608       break;
//  609 
//  610     case ZCL_CMD_CONFIG_REPORT_RSP:
//  611       //zclZigIt_ProcessInConfigReportRspCmd( pInMsg );
//  612       break;
//  613 
//  614     case ZCL_CMD_READ_REPORT_CFG:
//  615       //zclZigIt_ProcessInReadReportCfgCmd( pInMsg );
//  616       break;
//  617 
//  618     case ZCL_CMD_READ_REPORT_CFG_RSP:
//  619       //zclZigIt_ProcessInReadReportCfgRspCmd( pInMsg );
//  620       break;
//  621 
//  622     case ZCL_CMD_REPORT:
//  623       //zclZigIt_ProcessInReportCmd( pInMsg );
//  624       break;
//  625 #endif
//  626     case ZCL_CMD_DEFAULT_RSP:
//  627       zclZigIt_ProcessInDefaultRspCmd( pInMsg );
//  628       break;
//  629 #ifdef ZCL_DISCOVER
//  630     case ZCL_CMD_DISCOVER_CMDS_RECEIVED_RSP:
//  631       zclZigIt_ProcessInDiscCmdsRspCmd( pInMsg );
??zclZigIt_ProcessIncomingMsg_3:
        ; Setup parameters for call to function zclZigIt_ProcessInDiscCmdsRspCmd
//  632       break;
//  633 
//  634     case ZCL_CMD_DISCOVER_CMDS_GEN_RSP:
//  635       zclZigIt_ProcessInDiscCmdsRspCmd( pInMsg );
        ; Setup parameters for call to function zclZigIt_ProcessInDiscCmdsRspCmd
        LCALL     `??zclZigIt_ProcessInDiscCmdsRspCmd::?relay`; Banked call to: zclZigIt_ProcessInDiscCmdsRspCmd
//  636       break;
        SJMP      ??zclZigIt_ProcessIncomingMsg_5
//  637 
//  638     case ZCL_CMD_DISCOVER_ATTRS_RSP:
//  639       zclZigIt_ProcessInDiscAttrsRspCmd( pInMsg );
??zclZigIt_ProcessIncomingMsg_2:
        LCALL     ?Subroutine5 & 0xFFFF
??CrossCallReturnLabel_17:
        MOV       DPL,R0
        MOV       DPH,R1
        INC       DPTR
        MOVX      A,@DPTR
        MOV       R3,A
        MOV       A,R2
        CLR       C
        SUBB      A,R3
        JNC       ??zclZigIt_ProcessIncomingMsg_5
        INC       R2
        SJMP      ??CrossCallReturnLabel_17
//  640       break;
//  641 
//  642     case ZCL_CMD_DISCOVER_ATTRS_EXT_RSP:
//  643       zclZigIt_ProcessInDiscAttrsExtRspCmd( pInMsg );
??zclZigIt_ProcessIncomingMsg_4:
        LCALL     ?Subroutine5 & 0xFFFF
//  644       break;
//  645 #endif
//  646     default:
//  647       break;
//  648   }
??CrossCallReturnLabel_18:
        SJMP      ??zclZigIt_ProcessIncomingMsg_6
??zclZigIt_ProcessIncomingMsg_7:
        INC       R2
??zclZigIt_ProcessIncomingMsg_6:
        MOV       DPL,R0
        MOV       DPH,R1
        INC       DPTR
        MOVX      A,@DPTR
        MOV       R3,A
        MOV       A,R2
        CLR       C
        SUBB      A,R3
        JC        ??zclZigIt_ProcessIncomingMsg_7
//  649 
//  650   if ( pInMsg->attrCmd )
??zclZigIt_ProcessIncomingMsg_5:
        MOV       DPL,R6
        MOV       DPH,R7
        MOVX      A,@DPTR
        MOV       R2,A
        INC       DPTR
        MOVX      A,@DPTR
        MOV       R3,A
        MOV       A,R2
        ORL       A,R3
        JZ        ??zclZigIt_ProcessIncomingMsg_8
//  651     osal_mem_free( pInMsg->attrCmd );
        ; Setup parameters for call to function osal_mem_free
        LCALL     `??osal_mem_free::?relay`; Banked call to: osal_mem_free
//  652 }
??zclZigIt_ProcessIncomingMsg_8:
        LJMP      ?Subroutine0 & 0xFFFF
          CFI EndBlock cfiBlock31

        RSEG BANKED_CODE:HUGECODE:NOROOT(0)
?Subroutine6:
          CFI Block cfiCond32 Using cfiCommon0
          CFI Function zclZigIt_ProcessIncomingMsg
          CFI Conditional ??CrossCallReturnLabel_2
          CFI R6 load(1, XDATA, add(CFA_XSP16, literal(-9)))
          CFI VB load(1, XDATA, add(CFA_XSP16, literal(-8)))
          CFI V0 load(1, XDATA, add(CFA_XSP16, literal(-7)))
          CFI R7 load(1, XDATA, add(CFA_XSP16, literal(-6)))
          CFI ?RET_LOW load(1, XDATA, add(CFA_XSP16, literal(-5)))
          CFI ?RET_HIGH load(1, XDATA, add(CFA_XSP16, literal(-4)))
          CFI ?BRET_EXT load(1, XDATA, add(CFA_XSP16, literal(-3)))
          CFI DPL0 load(1, XDATA, add(CFA_XSP16, literal(-2)))
          CFI DPH0 load(1, XDATA, add(CFA_XSP16, literal(-1)))
          CFI CFA_SP SP+-2
          CFI CFA_XSP16 add(XSP16, 9)
          CFI Block cfiCond33 Using cfiCommon0
          CFI (cfiCond33) Function zclZigIt_ProcessIncomingMsg
          CFI (cfiCond33) Conditional ??CrossCallReturnLabel_3
          CFI (cfiCond33) R6 load(1, XDATA, add(CFA_XSP16, literal(-9)))
          CFI (cfiCond33) VB load(1, XDATA, add(CFA_XSP16, literal(-8)))
          CFI (cfiCond33) V0 load(1, XDATA, add(CFA_XSP16, literal(-7)))
          CFI (cfiCond33) R7 load(1, XDATA, add(CFA_XSP16, literal(-6)))
          CFI (cfiCond33) ?RET_LOW load(1, XDATA, add(CFA_XSP16, literal(-5)))
          CFI (cfiCond33) ?RET_HIGH load(1, XDATA, add(CFA_XSP16, literal(-4)))
          CFI (cfiCond33) ?BRET_EXT load(1, XDATA, add(CFA_XSP16, literal(-3)))
          CFI (cfiCond33) DPL0 load(1, XDATA, add(CFA_XSP16, literal(-2)))
          CFI (cfiCond33) DPH0 load(1, XDATA, add(CFA_XSP16, literal(-1)))
          CFI (cfiCond33) CFA_SP SP+-2
          CFI (cfiCond33) CFA_XSP16 add(XSP16, 9)
          CFI Block cfiPicker34 Using cfiCommon1
          CFI (cfiPicker34) NoFunction
          CFI (cfiPicker34) Picker
        MOV       DPL,R0
        MOV       DPH,R1
        MOVX      A,@DPTR
        MOV       R0,A
        INC       DPTR
        MOVX      A,@DPTR
        MOV       DPL,R0
        MOV       DPH,A
        MOV       R0,#0x0
        RET
          CFI EndBlock cfiCond32
          CFI EndBlock cfiCond33
          CFI EndBlock cfiPicker34

        RSEG BANKED_CODE:HUGECODE:NOROOT(0)
?Subroutine5:
          CFI Block cfiCond35 Using cfiCommon0
          CFI Function zclZigIt_ProcessIncomingMsg
          CFI Conditional ??CrossCallReturnLabel_17
          CFI R6 load(1, XDATA, add(CFA_XSP16, literal(-9)))
          CFI VB load(1, XDATA, add(CFA_XSP16, literal(-8)))
          CFI V0 load(1, XDATA, add(CFA_XSP16, literal(-7)))
          CFI R7 load(1, XDATA, add(CFA_XSP16, literal(-6)))
          CFI ?RET_LOW load(1, XDATA, add(CFA_XSP16, literal(-5)))
          CFI ?RET_HIGH load(1, XDATA, add(CFA_XSP16, literal(-4)))
          CFI ?BRET_EXT load(1, XDATA, add(CFA_XSP16, literal(-3)))
          CFI DPL0 load(1, XDATA, add(CFA_XSP16, literal(-2)))
          CFI DPH0 load(1, XDATA, add(CFA_XSP16, literal(-1)))
          CFI CFA_SP SP+-2
          CFI CFA_XSP16 add(XSP16, 9)
          CFI Block cfiCond36 Using cfiCommon0
          CFI (cfiCond36) Function zclZigIt_ProcessIncomingMsg
          CFI (cfiCond36) Conditional ??CrossCallReturnLabel_18
          CFI (cfiCond36) R6 load(1, XDATA, add(CFA_XSP16, literal(-9)))
          CFI (cfiCond36) VB load(1, XDATA, add(CFA_XSP16, literal(-8)))
          CFI (cfiCond36) V0 load(1, XDATA, add(CFA_XSP16, literal(-7)))
          CFI (cfiCond36) R7 load(1, XDATA, add(CFA_XSP16, literal(-6)))
          CFI (cfiCond36) ?RET_LOW load(1, XDATA, add(CFA_XSP16, literal(-5)))
          CFI (cfiCond36) ?RET_HIGH load(1, XDATA, add(CFA_XSP16, literal(-4)))
          CFI (cfiCond36) ?BRET_EXT load(1, XDATA, add(CFA_XSP16, literal(-3)))
          CFI (cfiCond36) DPL0 load(1, XDATA, add(CFA_XSP16, literal(-2)))
          CFI (cfiCond36) DPH0 load(1, XDATA, add(CFA_XSP16, literal(-1)))
          CFI (cfiCond36) CFA_SP SP+-2
          CFI (cfiCond36) CFA_XSP16 add(XSP16, 9)
          CFI Block cfiPicker37 Using cfiCommon1
          CFI (cfiPicker37) NoFunction
          CFI (cfiPicker37) Picker
        MOV       DPL,R0
        MOV       DPH,R1
          CFI EndBlock cfiCond35
          CFI EndBlock cfiCond36
          CFI EndBlock cfiPicker37
        REQUIRE ??Subroutine12_0
        ; // Fall through to label ??Subroutine12_0

        RSEG BANKED_CODE:HUGECODE:NOROOT(0)
??Subroutine12_0:
          CFI Block cfiCond38 Using cfiCommon0
          CFI Function zclZigIt_ProcessInDiscCmdsRspCmd
          CFI Conditional ??CrossCallReturnLabel_16
          CFI DPL0 Frame(CFA_SP, 4)
          CFI DPH0 Frame(CFA_SP, 5)
          CFI CFA_SP SP+-7
          CFI Block cfiCond39 Using cfiCommon0
          CFI (cfiCond39) Function zclZigIt_ProcessIncomingMsg
          CFI (cfiCond39) Conditional ??CrossCallReturnLabel_17
          CFI (cfiCond39) R6 load(1, XDATA, add(CFA_XSP16, literal(-9)))
          CFI (cfiCond39) VB load(1, XDATA, add(CFA_XSP16, literal(-8)))
          CFI (cfiCond39) V0 load(1, XDATA, add(CFA_XSP16, literal(-7)))
          CFI (cfiCond39) R7 load(1, XDATA, add(CFA_XSP16, literal(-6)))
          CFI (cfiCond39) ?RET_LOW load(1, XDATA, add(CFA_XSP16, literal(-5)))
          CFI (cfiCond39) ?RET_HIGH load(1, XDATA, add(CFA_XSP16, literal(-4)))
          CFI (cfiCond39) ?BRET_EXT load(1, XDATA, add(CFA_XSP16, literal(-3)))
          CFI (cfiCond39) DPL0 load(1, XDATA, add(CFA_XSP16, literal(-2)))
          CFI (cfiCond39) DPH0 load(1, XDATA, add(CFA_XSP16, literal(-1)))
          CFI (cfiCond39) CFA_SP SP+-2
          CFI (cfiCond39) CFA_XSP16 add(XSP16, 9)
          CFI Block cfiCond40 Using cfiCommon0
          CFI (cfiCond40) Function zclZigIt_ProcessIncomingMsg
          CFI (cfiCond40) Conditional ??CrossCallReturnLabel_18
          CFI (cfiCond40) R6 load(1, XDATA, add(CFA_XSP16, literal(-9)))
          CFI (cfiCond40) VB load(1, XDATA, add(CFA_XSP16, literal(-8)))
          CFI (cfiCond40) V0 load(1, XDATA, add(CFA_XSP16, literal(-7)))
          CFI (cfiCond40) R7 load(1, XDATA, add(CFA_XSP16, literal(-6)))
          CFI (cfiCond40) ?RET_LOW load(1, XDATA, add(CFA_XSP16, literal(-5)))
          CFI (cfiCond40) ?RET_HIGH load(1, XDATA, add(CFA_XSP16, literal(-4)))
          CFI (cfiCond40) ?BRET_EXT load(1, XDATA, add(CFA_XSP16, literal(-3)))
          CFI (cfiCond40) DPL0 load(1, XDATA, add(CFA_XSP16, literal(-2)))
          CFI (cfiCond40) DPH0 load(1, XDATA, add(CFA_XSP16, literal(-1)))
          CFI (cfiCond40) CFA_SP SP+-2
          CFI (cfiCond40) CFA_XSP16 add(XSP16, 9)
          CFI Block cfiPicker41 Using cfiCommon1
          CFI (cfiPicker41) NoFunction
          CFI (cfiPicker41) Picker
        MOVX      A,@DPTR
        MOV       R0,A
        INC       DPTR
        MOVX      A,@DPTR
        MOV       R1,A
        MOV       R2,#0x0
        RET
          CFI EndBlock cfiCond38
          CFI EndBlock cfiCond39
          CFI EndBlock cfiCond40
          CFI EndBlock cfiPicker41
//  653 
//  654 #ifdef ZCL_READ
//  655 
//  656 /*********************************************************************
//  657  * @fn      zclZigIt_ProcessInReadRspCmd
//  658  *
//  659  * @brief   Process the "Profile" Read Response Command
//  660  *
//  661  * @param   pInMsg - incoming message to process
//  662  *
//  663  * @return  none
//  664  */
//  665 static uint8 zclZigIt_ProcessInReadRspCmd( zclIncomingMsg_t *pInMsg )
//  666 {
//  667   zclReadRspCmd_t *readRspCmd;
//  668   uint8 i;
//  669 
//  670   readRspCmd = (zclReadRspCmd_t *)pInMsg->attrCmd;
//  671   for (i = 0; i < readRspCmd->numAttr; i++)
//  672   {
//  673     // Notify the originator of the results of the original read attributes
//  674     // attempt and, for each successfull request, the value of the requested
//  675     // attribute
//  676   }
//  677 
//  678   return TRUE;
//  679 }
//  680 #endif // ZCL_READ
//  681 
//  682 #ifdef ZCL_WRITE
//  683 /*********************************************************************
//  684  * @fn      zclZigIt_ProcessInWriteRspCmd
//  685  *
//  686  * @brief   Process the "Profile" Write Response Command
//  687  *
//  688  * @param   pInMsg - incoming message to process
//  689  *
//  690  * @return  none
//  691  */
//  692 static uint8 zclZigIt_ProcessInWriteRspCmd( zclIncomingMsg_t *pInMsg )
//  693 {
//  694   zclWriteRspCmd_t *writeRspCmd;
//  695   uint8 i;
//  696 
//  697   writeRspCmd = (zclWriteRspCmd_t *)pInMsg->attrCmd;
//  698   for (i = 0; i < writeRspCmd->numAttr; i++)
//  699   {
//  700     // Notify the device of the results of the its original write attributes
//  701     // command.
//  702   }
//  703 
//  704   return TRUE;
//  705 }
//  706 #endif // ZCL_WRITE
//  707 
//  708 /*********************************************************************
//  709  * @fn      zclZigIt_ProcessInDefaultRspCmd
//  710  *
//  711  * @brief   Process the "Profile" Default Response Command
//  712  *
//  713  * @param   pInMsg - incoming message to process
//  714  *
//  715  * @return  none
//  716  */
//  717 static uint8 zclZigIt_ProcessInDefaultRspCmd( zclIncomingMsg_t *pInMsg )
//  718 {
//  719   // zclDefaultRspCmd_t *defaultRspCmd = (zclDefaultRspCmd_t *)pInMsg->attrCmd;
//  720   // Device is notified of the Default Response command.
//  721   (void)pInMsg;
//  722   return TRUE;
//  723 }
//  724 
//  725 #ifdef ZCL_DISCOVER
//  726 /*********************************************************************
//  727  * @fn      zclZigIt_ProcessInDiscCmdsRspCmd
//  728  *
//  729  * @brief   Process the Discover Commands Response Command
//  730  *
//  731  * @param   pInMsg - incoming message to process
//  732  *
//  733  * @return  none
//  734  */

        RSEG BANKED_CODE:HUGECODE:NOROOT(0)
//  735 static uint8 zclZigIt_ProcessInDiscCmdsRspCmd( zclIncomingMsg_t *pInMsg )
zclZigIt_ProcessInDiscCmdsRspCmd:
          CFI Block cfiBlock42 Using cfiCommon0
          CFI Function zclZigIt_ProcessInDiscCmdsRspCmd
        CODE
//  736 {
        PUSH      DPL
          CFI DPL0 Frame(CFA_SP, 4)
          CFI CFA_SP SP+-4
        PUSH      DPH
          CFI DPH0 Frame(CFA_SP, 5)
          CFI CFA_SP SP+-5
        ; Saved register size: 2
        ; Auto size: 0
//  737   zclDiscoverCmdsCmdRsp_t *discoverRspCmd;
//  738   uint8 i;
//  739 
//  740   discoverRspCmd = (zclDiscoverCmdsCmdRsp_t *)pInMsg->attrCmd;
        MOV       A,R2
        ADD       A,#0x17
        MOV       DPL,A
        CLR       A
        ADDC      A,R3
        MOV       DPH,A
        LCALL     ??Subroutine12_0 & 0xFFFF
//  741   for ( i = 0; i < discoverRspCmd->numCmd; i++ )
??CrossCallReturnLabel_16:
        SJMP      ??zclZigIt_ProcessInDiscCmdsRspCmd_0
??zclZigIt_ProcessInDiscCmdsRspCmd_1:
        INC       R2
??zclZigIt_ProcessInDiscCmdsRspCmd_0:
        MOV       DPL,R0
        MOV       DPH,R1
        INC       DPTR
        INC       DPTR
        MOVX      A,@DPTR
        MOV       R3,A
        MOV       A,R2
        CLR       C
        SUBB      A,R3
        JC        ??zclZigIt_ProcessInDiscCmdsRspCmd_1
//  742   {
//  743     // Device is notified of the result of its attribute discovery command.
//  744   }
//  745 
//  746   return TRUE;
        MOV       R1,#0x1
          CFI EndBlock cfiBlock42
        REQUIRE ?Subroutine2
        ; // Fall through to label ?Subroutine2
//  747 }

        RSEG BANKED_CODE:HUGECODE:NOROOT(0)
?Subroutine2:
          CFI Block cfiBlock43 Using cfiCommon0
          CFI NoFunction
          CFI CFA_SP SP+-5
          CFI DPL0 Frame(CFA_SP, 4)
          CFI DPH0 Frame(CFA_SP, 5)
        POP       DPH
          CFI CFA_SP SP+-4
          CFI DPH0 SameValue
        POP       DPL
          CFI CFA_SP SP+-3
          CFI DPL0 SameValue
        LJMP      ?BRET
          CFI EndBlock cfiBlock43
//  748 
//  749 /*********************************************************************
//  750  * @fn      zclZigIt_ProcessInDiscAttrsRspCmd
//  751  *
//  752  * @brief   Process the "Profile" Discover Attributes Response Command
//  753  *
//  754  * @param   pInMsg - incoming message to process
//  755  *
//  756  * @return  none
//  757  */
//  758 static uint8 zclZigIt_ProcessInDiscAttrsRspCmd( zclIncomingMsg_t *pInMsg )
//  759 {
//  760   zclDiscoverAttrsRspCmd_t *discoverRspCmd;
//  761   uint8 i;
//  762 
//  763   discoverRspCmd = (zclDiscoverAttrsRspCmd_t *)pInMsg->attrCmd;
//  764   for ( i = 0; i < discoverRspCmd->numAttr; i++ )
//  765   {
//  766     // Device is notified of the result of its attribute discovery command.
//  767   }
//  768 
//  769   return TRUE;
//  770 }
//  771 
//  772 /*********************************************************************
//  773  * @fn      zclZigIt_ProcessInDiscAttrsExtRspCmd
//  774  *
//  775  * @brief   Process the "Profile" Discover Attributes Extended Response Command
//  776  *
//  777  * @param   pInMsg - incoming message to process
//  778  *
//  779  * @return  none
//  780  */
//  781 static uint8 zclZigIt_ProcessInDiscAttrsExtRspCmd( zclIncomingMsg_t *pInMsg )
//  782 {
//  783   zclDiscoverAttrsExtRsp_t *discoverRspCmd;
//  784   uint8 i;
//  785 
//  786   discoverRspCmd = (zclDiscoverAttrsExtRsp_t *)pInMsg->attrCmd;
//  787   for ( i = 0; i < discoverRspCmd->numAttr; i++ )
//  788   {
//  789     // Device is notified of the result of its attribute discovery command.
//  790   }
//  791 
//  792   return TRUE;
//  793 }
//  794 #endif // ZCL_DISCOVER
//  795 
//  796 #if defined (OTA_CLIENT) && (OTA_CLIENT == TRUE)
//  797 /*********************************************************************
//  798  * @fn      zclZigIt_ProcessOTAMsgs
//  799  *
//  800  * @brief   Called to process callbacks from the ZCL OTA.
//  801  *
//  802  * @param   none
//  803  *
//  804  * @return  none
//  805  */
//  806 static void zclZigIt_ProcessOTAMsgs( zclOTA_CallbackMsg_t* pMsg )
//  807 {
//  808   uint8 RxOnIdle;
//  809 
//  810   switch(pMsg->ota_event)
//  811   {
//  812   case ZCL_OTA_START_CALLBACK:
//  813     if (pMsg->hdr.status == ZSuccess)
//  814     {
//  815       // Speed up the poll rate
//  816       RxOnIdle = TRUE;
//  817       ZMacSetReq( ZMacRxOnIdle, &RxOnIdle );
//  818       NLME_SetPollRate( 2000 );
//  819     }
//  820     break;
//  821 
//  822   case ZCL_OTA_DL_COMPLETE_CALLBACK:
//  823     if (pMsg->hdr.status == ZSuccess)
//  824     {
//  825       // Reset the CRC Shadow and reboot.  The bootloader will see the
//  826       // CRC shadow has been cleared and switch to the new image
//  827       HalOTAInvRC();
//  828       SystemReset();
//  829     }
//  830     else
//  831     {
//  832       // slow the poll rate back down.
//  833       RxOnIdle = FALSE;
//  834       ZMacSetReq( ZMacRxOnIdle, &RxOnIdle );
//  835       NLME_SetPollRate(DEVICE_POLL_RATE);
//  836     }
//  837     break;
//  838 
//  839   default:
//  840     break;
//  841   }
//  842 }
//  843 #endif // defined (OTA_CLIENT) && (OTA_CLIENT == TRUE)
//  844 
//  845 /****************************************************************************
//  846 ****************************************************************************/
//  847 

        RSEG BANKED_CODE:HUGECODE:NOROOT(0)
//  848 void zclZigIt_UiActionToggleLight(uint16 keys)
zclZigIt_UiActionToggleLight:
          CFI Block cfiBlock44 Using cfiCommon0
          CFI Function zclZigIt_UiActionToggleLight
        CODE
//  849 {
        FUNCALL zclZigIt_UiActionToggleLight, bdb_getZCLFrameCounter
        LOCFRAME ISTACK, 0, STACK
        LOCFRAME PSTACK, 0, STACK
        LOCFRAME XSTACK, 10, STACK
        LOCFRAME IOVERLAY, 0, STATIC
        LOCFRAME DOVERLAY, 0, STATIC
        ARGFRAME ISTACK, 0, STACK
        ARGFRAME PSTACK, 0, STACK
        ARGFRAME XSTACK, 10, STACK
        ARGFRAME IOVERLAY, 0, STATIC
        ARGFRAME DOVERLAY, 0, STATIC
        FUNCALL zclZigIt_UiActionToggleLight, zcl_SendCommand
        LOCFRAME ISTACK, 0, STACK
        LOCFRAME PSTACK, 0, STACK
        LOCFRAME XSTACK, 21, STACK
        LOCFRAME IOVERLAY, 0, STATIC
        LOCFRAME DOVERLAY, 0, STATIC
        ARGFRAME ISTACK, 0, STACK
        ARGFRAME PSTACK, 0, STACK
        ARGFRAME XSTACK, 21, STACK
        ARGFRAME IOVERLAY, 0, STATIC
        ARGFRAME DOVERLAY, 0, STATIC
        FUNCALL zclZigIt_UiActionToggleLight, bdb_getZCLFrameCounter
        LOCFRAME ISTACK, 0, STACK
        LOCFRAME PSTACK, 0, STACK
        LOCFRAME XSTACK, 10, STACK
        LOCFRAME IOVERLAY, 0, STATIC
        LOCFRAME DOVERLAY, 0, STATIC
        ARGFRAME ISTACK, 0, STACK
        ARGFRAME PSTACK, 0, STACK
        ARGFRAME XSTACK, 10, STACK
        ARGFRAME IOVERLAY, 0, STATIC
        ARGFRAME DOVERLAY, 0, STATIC
        FUNCALL zclZigIt_UiActionToggleLight, zcl_SendCommand
        LOCFRAME ISTACK, 0, STACK
        LOCFRAME PSTACK, 0, STACK
        LOCFRAME XSTACK, 21, STACK
        LOCFRAME IOVERLAY, 0, STATIC
        LOCFRAME DOVERLAY, 0, STATIC
        ARGFRAME ISTACK, 0, STACK
        ARGFRAME PSTACK, 0, STACK
        ARGFRAME XSTACK, 21, STACK
        ARGFRAME IOVERLAY, 0, STATIC
        ARGFRAME DOVERLAY, 0, STATIC
        FUNCALL zclZigIt_UiActionToggleLight, bdb_getZCLFrameCounter
        LOCFRAME ISTACK, 0, STACK
        LOCFRAME PSTACK, 0, STACK
        LOCFRAME XSTACK, 10, STACK
        LOCFRAME IOVERLAY, 0, STATIC
        LOCFRAME DOVERLAY, 0, STATIC
        ARGFRAME ISTACK, 0, STACK
        ARGFRAME PSTACK, 0, STACK
        ARGFRAME XSTACK, 10, STACK
        ARGFRAME IOVERLAY, 0, STATIC
        ARGFRAME DOVERLAY, 0, STATIC
        FUNCALL zclZigIt_UiActionToggleLight, zcl_SendCommand
        LOCFRAME ISTACK, 0, STACK
        LOCFRAME PSTACK, 0, STACK
        LOCFRAME XSTACK, 21, STACK
        LOCFRAME IOVERLAY, 0, STATIC
        LOCFRAME DOVERLAY, 0, STATIC
        ARGFRAME ISTACK, 0, STACK
        ARGFRAME PSTACK, 0, STACK
        ARGFRAME XSTACK, 21, STACK
        ARGFRAME IOVERLAY, 0, STATIC
        ARGFRAME DOVERLAY, 0, STATIC
        REQUIRE ?V0
        REQUIRE ?V1
        MOV       A,#-0xa
        LCALL     ?BANKED_ENTER_XDATA
          CFI DPH0 load(1, XDATA, add(CFA_XSP16, literal(-1)))
          CFI DPL0 load(1, XDATA, add(CFA_XSP16, literal(-2)))
          CFI ?BRET_EXT load(1, XDATA, add(CFA_XSP16, literal(-3)))
          CFI ?RET_HIGH load(1, XDATA, add(CFA_XSP16, literal(-4)))
          CFI ?RET_LOW load(1, XDATA, add(CFA_XSP16, literal(-5)))
          CFI R7 load(1, XDATA, add(CFA_XSP16, literal(-6)))
          CFI V1 load(1, XDATA, add(CFA_XSP16, literal(-7)))
          CFI V0 load(1, XDATA, add(CFA_XSP16, literal(-8)))
          CFI VB load(1, XDATA, add(CFA_XSP16, literal(-9)))
          CFI R6 load(1, XDATA, add(CFA_XSP16, literal(-10)))
          CFI CFA_SP SP+0
          CFI CFA_XSP16 add(XSP16, 10)
        ; Saved register size: 10
        ; Auto size: 0
//  850   if (zclZigIt_OnOffSwitchActions == ON_OFF_SWITCH_ACTIONS_TOGGLE)
        MOV       A,R2
        ANL       A,#0x4
        MOV       R0,A
        MOV       DPTR,#zclZigIt_OnOffSwitchActions
        MOVX      A,@DPTR
        XRL       A,#0x2
        JNZ       ??zclZigIt_UiActionToggleLight_0
//  851   {
//  852     if (keys & UI_KEY_SW_5_PRESSED)
        MOV       A,R0
        JNZ       $+5
        LJMP      ??zclZigIt_UiActionToggleLight_1 & 0xFFFF
//  853     {
//  854       zclGeneral_SendOnOff_CmdToggle( SAMPLESW_ENDPOINT, &zclZigIt_DstAddr, FALSE, bdb_getZCLFrameCounter() );
        ; Setup parameters for call to function bdb_getZCLFrameCounter
        LCALL     ?Subroutine8 & 0xFFFF
//  855     }
//  856   }
??CrossCallReturnLabel_6:
        LCALL     ?PUSH_XSTACK_I_TWO
          CFI CFA_XSP16 add(XSP16, 12)
        MOV       R0,#?V0
        LCALL     ?PUSH_XSTACK_I_TWO
          CFI CFA_XSP16 add(XSP16, 14)
        MOV       A,R1
        MOV       ?V0,A
        MOV       R0,#?V0
        LCALL     ?PUSH_XSTACK_I_ONE
          CFI CFA_XSP16 add(XSP16, 15)
        CLR       A
        MOV       ?V0,A
        MOV       R0,#?V0
        LCALL     ?PUSH_XSTACK_I_TWO
          CFI CFA_XSP16 add(XSP16, 17)
        MOV       R0,#?V0
        LCALL     ?PUSH_XSTACK_I_ONE
          CFI CFA_XSP16 add(XSP16, 18)
        MOV       R0,#?V0
        LCALL     ?PUSH_XSTACK_I_ONE
          CFI CFA_XSP16 add(XSP16, 19)
        MOV       ?V0,#0x1
        MOV       R0,#?V0
        LCALL     ?PUSH_XSTACK_I_ONE
          CFI CFA_XSP16 add(XSP16, 20)
        MOV       ?V0,#0x2
        SJMP      ??zclZigIt_UiActionToggleLight_2
          CFI CFA_XSP16 add(XSP16, 10)
//  857   else if (((keys & UI_KEY_SW_5_PRESSED) && (zclZigIt_OnOffSwitchActions == ON_OFF_SWITCH_ACTIONS_ON))
//  858     || ((keys & UI_KEY_SW_5_RELEASED) && (zclZigIt_OnOffSwitchActions == ON_OFF_SWITCH_ACTIONS_OFF)))
??zclZigIt_UiActionToggleLight_0:
        MOV       A,R0
        JZ        ??zclZigIt_UiActionToggleLight_3
        MOVX      A,@DPTR
        JZ        ??zclZigIt_UiActionToggleLight_4
??zclZigIt_UiActionToggleLight_3:
        MOV       A,R3
        ANL       A,#0x4
        JZ        ??zclZigIt_UiActionToggleLight_5
        MOVX      A,@DPTR
        XRL       A,#0x1
        JNZ       ??zclZigIt_UiActionToggleLight_5
//  859   {
//  860     zclGeneral_SendOnOff_CmdOn( SAMPLESW_ENDPOINT, &zclZigIt_DstAddr, FALSE, bdb_getZCLFrameCounter() );
??zclZigIt_UiActionToggleLight_4:
        ; Setup parameters for call to function bdb_getZCLFrameCounter
        LCALL     ?Subroutine8 & 0xFFFF
//  861   }
??CrossCallReturnLabel_7:
        LCALL     ?PUSH_XSTACK_I_TWO
          CFI CFA_XSP16 add(XSP16, 12)
        MOV       R0,#?V0
        LCALL     ?PUSH_XSTACK_I_TWO
          CFI CFA_XSP16 add(XSP16, 14)
        MOV       A,R1
        MOV       ?V0,A
        MOV       R0,#?V0
        LCALL     ?PUSH_XSTACK_I_ONE
          CFI CFA_XSP16 add(XSP16, 15)
        CLR       A
        MOV       ?V0,A
        MOV       R0,#?V0
        LCALL     ?PUSH_XSTACK_I_TWO
          CFI CFA_XSP16 add(XSP16, 17)
        MOV       R0,#?V0
        LCALL     ?PUSH_XSTACK_I_ONE
          CFI CFA_XSP16 add(XSP16, 18)
        MOV       R0,#?V0
        LCALL     ?PUSH_XSTACK_I_ONE
          CFI CFA_XSP16 add(XSP16, 19)
        MOV       ?V0,#0x1
        MOV       R0,#?V0
        LCALL     ?PUSH_XSTACK_I_ONE
          CFI CFA_XSP16 add(XSP16, 20)
        SJMP      ??zclZigIt_UiActionToggleLight_2
          CFI CFA_XSP16 add(XSP16, 10)
//  862   else
//  863   {
//  864     zclGeneral_SendOnOff_CmdOff( SAMPLESW_ENDPOINT, &zclZigIt_DstAddr, FALSE, bdb_getZCLFrameCounter() );
??zclZigIt_UiActionToggleLight_5:
        ; Setup parameters for call to function bdb_getZCLFrameCounter
        LCALL     ?Subroutine8 & 0xFFFF
//  865   }
??CrossCallReturnLabel_8:
        LCALL     ?PUSH_XSTACK_I_TWO
          CFI CFA_XSP16 add(XSP16, 12)
        MOV       R0,#?V0
        LCALL     ?PUSH_XSTACK_I_TWO
          CFI CFA_XSP16 add(XSP16, 14)
        MOV       A,R1
        MOV       ?V0,A
        MOV       R0,#?V0
        LCALL     ?PUSH_XSTACK_I_ONE
          CFI CFA_XSP16 add(XSP16, 15)
        CLR       A
        MOV       ?V0,A
        MOV       R0,#?V0
        LCALL     ?PUSH_XSTACK_I_TWO
          CFI CFA_XSP16 add(XSP16, 17)
        MOV       R0,#?V0
        LCALL     ?PUSH_XSTACK_I_ONE
          CFI CFA_XSP16 add(XSP16, 18)
        MOV       R0,#?V0
        LCALL     ?PUSH_XSTACK_I_ONE
          CFI CFA_XSP16 add(XSP16, 19)
        MOV       ?V0,#0x1
        MOV       R0,#?V0
        LCALL     ?PUSH_XSTACK_I_ONE
          CFI CFA_XSP16 add(XSP16, 20)
        MOV       ?V0,#0x0
??zclZigIt_UiActionToggleLight_2:
        MOV       R0,#?V0
        LCALL     ?PUSH_XSTACK_I_ONE
          CFI CFA_XSP16 add(XSP16, 21)
        MOV       R4,#0x6
        MOV       R5,#0x0
        MOV       R2,#zclZigIt_DstAddr & 0xff
        MOV       R3,#(zclZigIt_DstAddr >> 8) & 0xff
        MOV       R1,#0x8
        LCALL     `??zcl_SendCommand::?relay`; Banked call to: zcl_SendCommand
        MOV       A,#0xb
        LCALL     ?DEALLOC_XSTACK8
          CFI CFA_XSP16 add(XSP16, 10)
//  866 }
??zclZigIt_UiActionToggleLight_1:
        MOV       R7,#0x2
        LJMP      ?BANKED_LEAVE_XDATA
          CFI EndBlock cfiBlock44

        RSEG BANKED_CODE:HUGECODE:NOROOT(0)
?Subroutine8:
          CFI Block cfiCond45 Using cfiCommon0
          CFI Function zclZigIt_UiActionToggleLight
          CFI Conditional ??CrossCallReturnLabel_6
          CFI R6 load(1, XDATA, add(CFA_XSP16, literal(-10)))
          CFI VB load(1, XDATA, add(CFA_XSP16, literal(-9)))
          CFI V0 load(1, XDATA, add(CFA_XSP16, literal(-8)))
          CFI V1 load(1, XDATA, add(CFA_XSP16, literal(-7)))
          CFI R7 load(1, XDATA, add(CFA_XSP16, literal(-6)))
          CFI ?RET_LOW load(1, XDATA, add(CFA_XSP16, literal(-5)))
          CFI ?RET_HIGH load(1, XDATA, add(CFA_XSP16, literal(-4)))
          CFI ?BRET_EXT load(1, XDATA, add(CFA_XSP16, literal(-3)))
          CFI DPL0 load(1, XDATA, add(CFA_XSP16, literal(-2)))
          CFI DPH0 load(1, XDATA, add(CFA_XSP16, literal(-1)))
          CFI CFA_SP SP+-2
          CFI CFA_XSP16 add(XSP16, 10)
          CFI Block cfiCond46 Using cfiCommon0
          CFI (cfiCond46) Function zclZigIt_UiActionToggleLight
          CFI (cfiCond46) Conditional ??CrossCallReturnLabel_7
          CFI (cfiCond46) R6 load(1, XDATA, add(CFA_XSP16, literal(-10)))
          CFI (cfiCond46) VB load(1, XDATA, add(CFA_XSP16, literal(-9)))
          CFI (cfiCond46) V0 load(1, XDATA, add(CFA_XSP16, literal(-8)))
          CFI (cfiCond46) V1 load(1, XDATA, add(CFA_XSP16, literal(-7)))
          CFI (cfiCond46) R7 load(1, XDATA, add(CFA_XSP16, literal(-6)))
          CFI (cfiCond46) ?RET_LOW load(1, XDATA, add(CFA_XSP16, literal(-5)))
          CFI (cfiCond46) ?RET_HIGH load(1, XDATA, add(CFA_XSP16, literal(-4)))
          CFI (cfiCond46) ?BRET_EXT load(1, XDATA, add(CFA_XSP16, literal(-3)))
          CFI (cfiCond46) DPL0 load(1, XDATA, add(CFA_XSP16, literal(-2)))
          CFI (cfiCond46) DPH0 load(1, XDATA, add(CFA_XSP16, literal(-1)))
          CFI (cfiCond46) CFA_SP SP+-2
          CFI (cfiCond46) CFA_XSP16 add(XSP16, 10)
          CFI Block cfiCond47 Using cfiCommon0
          CFI (cfiCond47) Function zclZigIt_UiActionToggleLight
          CFI (cfiCond47) Conditional ??CrossCallReturnLabel_8
          CFI (cfiCond47) R6 load(1, XDATA, add(CFA_XSP16, literal(-10)))
          CFI (cfiCond47) VB load(1, XDATA, add(CFA_XSP16, literal(-9)))
          CFI (cfiCond47) V0 load(1, XDATA, add(CFA_XSP16, literal(-8)))
          CFI (cfiCond47) V1 load(1, XDATA, add(CFA_XSP16, literal(-7)))
          CFI (cfiCond47) R7 load(1, XDATA, add(CFA_XSP16, literal(-6)))
          CFI (cfiCond47) ?RET_LOW load(1, XDATA, add(CFA_XSP16, literal(-5)))
          CFI (cfiCond47) ?RET_HIGH load(1, XDATA, add(CFA_XSP16, literal(-4)))
          CFI (cfiCond47) ?BRET_EXT load(1, XDATA, add(CFA_XSP16, literal(-3)))
          CFI (cfiCond47) DPL0 load(1, XDATA, add(CFA_XSP16, literal(-2)))
          CFI (cfiCond47) DPH0 load(1, XDATA, add(CFA_XSP16, literal(-1)))
          CFI (cfiCond47) CFA_SP SP+-2
          CFI (cfiCond47) CFA_XSP16 add(XSP16, 10)
          CFI Block cfiPicker48 Using cfiCommon1
          CFI (cfiPicker48) NoFunction
          CFI (cfiPicker48) Picker
        LCALL     `??bdb_getZCLFrameCounter::?relay`; Banked call to: bdb_getZCLFrameCounter
        MOV       A,R1
        MOV       R1,A
        ; Setup parameters for call to function zcl_SendCommand
        ; Setup parameters for call to function zcl_SendCommand
        ; Setup parameters for call to function zcl_SendCommand
        CLR       A
        MOV       ?V0,A
        MOV       ?V1,A
        MOV       R0,#?V0
        RET
          CFI EndBlock cfiCond45
          CFI EndBlock cfiCond46
          CFI EndBlock cfiCond47
          CFI EndBlock cfiPicker48
//  867 
//  868 

        RSEG BANKED_CODE:HUGECODE:NOROOT(0)
//  869 void zclZigIt_UiUpdateLcd(uint8 gui_state, char * line[3])
zclZigIt_UiUpdateLcd:
          CFI Block cfiBlock49 Using cfiCommon0
          CFI Function zclZigIt_UiUpdateLcd
        CODE
//  870 {
        PUSH      DPL
          CFI DPL0 Frame(CFA_SP, 4)
          CFI CFA_SP SP+-4
        PUSH      DPH
          CFI DPH0 Frame(CFA_SP, 5)
          CFI CFA_SP SP+-5
        ; Saved register size: 2
        ; Auto size: 0
//  871   line[2] = "< TOGGLE LIGHT >";
        MOV       DPL,R2
        MOV       DPH,R3
        INC       DPTR
        INC       DPTR
        INC       DPTR
        INC       DPTR
        MOV       A,#`?<Constant "< TOGGLE LIGHT >">` & 0xff
        MOVX      @DPTR,A
        INC       DPTR
        MOV       A,#(`?<Constant "< TOGGLE LIGHT >">` >> 8) & 0xff
        MOVX      @DPTR,A
//  872 }
        LJMP      ?Subroutine2 & 0xFFFF
          CFI EndBlock cfiBlock49

        RSEG XDATA_ID:CODE:NOROOT(0)
`?<Initializer for zclZigIt_OnOffSwitchType>`:
        DATA8
        DB 1

        RSEG XDATA_ID:CODE:NOROOT(0)
`?<Initializer for sampleSw_TestEp>`:
        DATA8
        DB 8
        DB 0
        DATA16
        DW zclZigIt_TaskID
        DW 0H
        DATA8
        DB 0

        RSEG XDATA_ID:CODE:NOROOT(0)
`?<Initializer for zclZigIt_NwkState>`:
        DATA8
        DB 1

        RSEG XDATA_ID:CODE:NOROOT(0)
`?<Initializer for zclZigIt_CmdCallbacks>`:
        DATA16
        DW `??zclZigIt_BasicResetCB::?relay`
        DW 0H
        DW 0H
        DW 0H
        DW 0H
        DW 0H
        DW 0H
        DW 0H
        DW 0H

        RSEG BANK_RELAYS:CODE:REORDER:NOROOT(0)
`??zclZigIt_Init::?relay`:
        CODE
        LCALL   ?BDISPATCH
        DATA24
        DC24    zclZigIt_Init

        RSEG BANK_RELAYS:CODE:REORDER:NOROOT(0)
`??zclZigIt_Reporting::?relay`:
        CODE
        LCALL   ?BDISPATCH
        DATA24
        DC24    zclZigIt_Reporting

        RSEG BANK_RELAYS:CODE:REORDER:NOROOT(0)
`??zclZigIt_event_loop::?relay`:
        CODE
        LCALL   ?BDISPATCH
        DATA24
        DC24    zclZigIt_event_loop

        RSEG BANK_RELAYS:CODE:REORDER:NOROOT(0)
`??zclZigIt_ProcessCommissioningStatus::?relay`:
        CODE
        LCALL   ?BDISPATCH
        DATA24
        DC24    zclZigIt_ProcessCommissioningStatus

        RSEG BANK_RELAYS:CODE:REORDER:NOROOT(0)
`??zclZigIt_BasicResetCB::?relay`:
        CODE
        LCALL   ?BDISPATCH
        DATA24
        DC24    zclZigIt_BasicResetCB

        RSEG BANK_RELAYS:CODE:REORDER:NOROOT(0)
`??zclZigIt_ProcessIncomingMsg::?relay`:
        CODE
        LCALL   ?BDISPATCH
        DATA24
        DC24    zclZigIt_ProcessIncomingMsg

        RSEG BANK_RELAYS:CODE:REORDER:NOROOT(0)
`??zclZigIt_ProcessInDiscCmdsRspCmd::?relay`:
        CODE
        LCALL   ?BDISPATCH
        DATA24
        DC24    zclZigIt_ProcessInDiscCmdsRspCmd

        RSEG BANK_RELAYS:CODE:REORDER:NOROOT(0)
`??zclZigIt_UiActionToggleLight::?relay`:
        CODE
        LCALL   ?BDISPATCH
        DATA24
        DC24    zclZigIt_UiActionToggleLight

        RSEG BANK_RELAYS:CODE:REORDER:NOROOT(0)
`??zclZigIt_UiUpdateLcd::?relay`:
        CODE
        LCALL   ?BDISPATCH
        DATA24
        DC24    zclZigIt_UiUpdateLcd

        RSEG XDATA_ROM_C:CONST:REORDER:NOROOT(0)
        DATA8
`?<Constant "< TOGGLE LIGHT >">`:
        DB "< TOGGLE LIGHT >"

        RSEG XDATA_ROM_C:CONST:REORDER:NOROOT(0)
        DATA32
__Constant_1388:
        DD 5000

        RSEG XDATA_ROM_C:CONST:REORDER:NOROOT(0)
        DATA32
__Constant_2710:
        DD 10000

        END
// 
// 1 077 bytes in segment BANKED_CODE
//    54 bytes in segment BANK_RELAYS
//    27 bytes in segment XDATA_I
//    27 bytes in segment XDATA_ID
//    25 bytes in segment XDATA_ROM_C
//    18 bytes in segment XDATA_Z
// 
//    81 bytes of CODE     memory
//    17 bytes of CONST    memory (+ 8 bytes shared)
// 1 077 bytes of HUGECODE memory
//    45 bytes of XDATA    memory
//
//Errors: none
//Warnings: 1
